
PS2_ISR.elf:     file format elf32-littlenios2
PS2_ISR.elf
architecture: nios2:r1, flags 0x00000112:
EXEC_P, HAS_SYMS, D_PAGED
start address 0x00000248

Program Header:
    LOAD off    0x00001000 vaddr 0x00000000 paddr 0x00000000 align 2**12
         filesz 0x00000020 memsz 0x00000020 flags r-x
    LOAD off    0x00001020 vaddr 0x00000020 paddr 0x00000020 align 2**12
         filesz 0x000c985c memsz 0x000c985c flags r-x
    LOAD off    0x000ca87c vaddr 0x000c987c paddr 0x000cb608 align 2**12
         filesz 0x00001d8c memsz 0x00001d8c flags rw-
    LOAD off    0x000cd394 vaddr 0x000cd394 paddr 0x000cd394 align 2**12
         filesz 0x00000000 memsz 0x0000021c flags rw-

Sections:
Idx Name          Size      VMA       LMA       File off  Algn
  0 .entry        00000020  00000000  00000000  00001000  2**5
                  CONTENTS, ALLOC, LOAD, READONLY, CODE
  1 .exceptions   00000228  00000020  00000020  00001020  2**2
                  CONTENTS, ALLOC, LOAD, READONLY, CODE
  2 .text         0000d894  00000248  00000248  00001248  2**2
                  CONTENTS, ALLOC, LOAD, READONLY, CODE
  3 .rodata       000bbda0  0000dadc  0000dadc  0000eadc  2**2
                  CONTENTS, ALLOC, LOAD, READONLY, DATA
  4 .rwdata       00001d8c  000c987c  000cb608  000ca87c  2**2
                  CONTENTS, ALLOC, LOAD, DATA, SMALL_DATA
  5 .bss          0000021c  000cd394  000cd394  000cd394  2**2
                  ALLOC, SMALL_DATA
  6 .SDRAM        00000000  000cd5b0  000cd5b0  000cc608  2**0
                  CONTENTS
  7 .Onchip_SRAM  00000000  08000000  08000000  000cc608  2**0
                  CONTENTS
  8 .VGA_Subsystem_Char_Buf_Subsystem_Onchip_SRAM 00000000  09000000  09000000  000cc608  2**0
                  CONTENTS
  9 .comment      00000023  00000000  00000000  000cc608  2**0
                  CONTENTS, READONLY
 10 .debug_aranges 00000b00  00000000  00000000  000cc630  2**3
                  CONTENTS, READONLY, DEBUGGING
 11 .debug_info   0001a510  00000000  00000000  000cd130  2**0
                  CONTENTS, READONLY, DEBUGGING
 12 .debug_abbrev 00006427  00000000  00000000  000e7640  2**0
                  CONTENTS, READONLY, DEBUGGING
 13 .debug_line   00007170  00000000  00000000  000eda67  2**0
                  CONTENTS, READONLY, DEBUGGING
 14 .debug_frame  0000258c  00000000  00000000  000f4bd8  2**2
                  CONTENTS, READONLY, DEBUGGING
 15 .debug_str    00003999  00000000  00000000  000f7164  2**0
                  CONTENTS, READONLY, DEBUGGING
 16 .debug_alt_sim_info 00000020  00000000  00000000  000fab00  2**2
                  CONTENTS, READONLY, DEBUGGING
 17 .debug_ranges 00000368  00000000  00000000  000fab20  2**3
                  CONTENTS, READONLY, DEBUGGING
 18 .thread_model 00000003  00000000  00000000  000fe731  2**0
                  CONTENTS, READONLY
 19 .cpu          00000005  00000000  00000000  000fe734  2**0
                  CONTENTS, READONLY
 20 .qsys         00000001  00000000  00000000  000fe739  2**0
                  CONTENTS, READONLY
 21 .simulation_enabled 00000001  00000000  00000000  000fe73a  2**0
                  CONTENTS, READONLY
 22 .sysid_hash   00000004  00000000  00000000  000fe73b  2**0
                  CONTENTS, READONLY
 23 .sysid_base   00000004  00000000  00000000  000fe73f  2**0
                  CONTENTS, READONLY
 24 .sysid_time   00000004  00000000  00000000  000fe743  2**0
                  CONTENTS, READONLY
 25 .stderr_dev   00000009  00000000  00000000  000fe747  2**0
                  CONTENTS, READONLY
 26 .stdin_dev    00000009  00000000  00000000  000fe750  2**0
                  CONTENTS, READONLY
 27 .stdout_dev   00000009  00000000  00000000  000fe759  2**0
                  CONTENTS, READONLY
 28 .sopc_system_name 0000000f  00000000  00000000  000fe762  2**0
                  CONTENTS, READONLY
 29 .jdi          00008914  00000000  00000000  000fe771  2**0
                  CONTENTS, READONLY
 30 .sopcinfo     0010ca86  00000000  00000000  00107085  2**0
                  CONTENTS, READONLY
SYMBOL TABLE:
00000000 l    d  .entry	00000000 .entry
00000020 l    d  .exceptions	00000000 .exceptions
00000248 l    d  .text	00000000 .text
0000dadc l    d  .rodata	00000000 .rodata
000c987c l    d  .rwdata	00000000 .rwdata
000cd394 l    d  .bss	00000000 .bss
000cd5b0 l    d  .SDRAM	00000000 .SDRAM
08000000 l    d  .Onchip_SRAM	00000000 .Onchip_SRAM
09000000 l    d  .VGA_Subsystem_Char_Buf_Subsystem_Onchip_SRAM	00000000 .VGA_Subsystem_Char_Buf_Subsystem_Onchip_SRAM
00000000 l    d  .comment	00000000 .comment
00000000 l    d  .debug_aranges	00000000 .debug_aranges
00000000 l    d  .debug_info	00000000 .debug_info
00000000 l    d  .debug_abbrev	00000000 .debug_abbrev
00000000 l    d  .debug_line	00000000 .debug_line
00000000 l    d  .debug_frame	00000000 .debug_frame
00000000 l    d  .debug_str	00000000 .debug_str
00000000 l    d  .debug_alt_sim_info	00000000 .debug_alt_sim_info
00000000 l    d  .debug_ranges	00000000 .debug_ranges
00000000 l    df *ABS*	00000000 BSP//obj/HAL/src/crt0.o
00000280 l       .text	00000000 alt_after_alt_main
00000000 l    df *ABS*	00000000 alt_irq_handler.c
00000000 l    df *ABS*	00000000 alt_instruction_exception_entry.c
00000000 l    df *ABS*	00000000 PS2_ISR.c
00000000 l    df *ABS*	00000000 PS2_interrupt.c
0000dadc l     O .rodata	00025800 SphearSplash
000332dc l     O .rodata	00025800 SphearEnd
00000000 l    df *ABS*	00000000 audio_ISR.c
00000000 l    df *ABS*	00000000 globals.c
00000000 l    df *ABS*	00000000 interval_timer_ISR.c
00000000 l    df *ABS*	00000000 physics.c
00000000 l    df *ABS*	00000000 memcpy.c
00000000 l    df *ABS*	00000000 rand.c
00000000 l    df *ABS*	00000000 impure.c
000c99c0 l     O .rwdata	00000424 impure_data
00000000 l    df *ABS*	00000000 alt_irq_register.c
00000000 l    df *ABS*	00000000 alt_irq_vars.c
00000000 l    df *ABS*	00000000 alt_load.c
0000565c l     F .text	00000068 alt_load_section
00000000 l    df *ABS*	00000000 alt_main.c
00000000 l    df *ABS*	00000000 alt_printf.c
00000000 l    df *ABS*	00000000 alt_putchar.c
00000000 l    df *ABS*	00000000 alt_sys_init.c
00005a2c l     F .text	00000034 alt_dev_reg
000c9de4 l     O .rwdata	00001060 JTAG_UART
000cae44 l     O .rwdata	00000030 AV_Config
000cae74 l     O .rwdata	00000030 Audio_Subsystem_Audio
000caea4 l     O .rwdata	00000038 PS2_Port
000caedc l     O .rwdata	00000038 PS2_Port_Dual
000caf14 l     O .rwdata	0000005c VGA_Subsystem_Char_Buf_Subsystem_Char_Buf_DMA
000caf70 l     O .rwdata	0000005c VGA_Subsystem_VGA_Pixel_DMA
000cafcc l     O .rwdata	00000044 VGA_Subsystem_VGA_Pixel_RGB_Resampler
00000000 l    df *ABS*	00000000 altera_avalon_jtag_uart_fd.c
00000000 l    df *ABS*	00000000 altera_avalon_jtag_uart_init.c
0000634c l     F .text	00000210 altera_avalon_jtag_uart_irq
0000655c l     F .text	000000a0 altera_avalon_jtag_uart_timeout
00000000 l    df *ABS*	00000000 altera_avalon_jtag_uart_ioctl.c
00000000 l    df *ABS*	00000000 altera_avalon_jtag_uart_read.c
00000000 l    df *ABS*	00000000 altera_avalon_jtag_uart_write.c
00000000 l    df *ABS*	00000000 altera_avalon_timer_sc.c
00006b94 l     F .text	0000007c alt_avalon_timer_sc_irq
00000000 l    df *ABS*	00000000 altera_up_avalon_audio.c
00000000 l    df *ABS*	00000000 altera_up_avalon_ps2.c
00000000 l    df *ABS*	00000000 altera_up_avalon_video_dma_controller.c
00000000 l    df *ABS*	00000000 alt_alarm_start.c
00000000 l    df *ABS*	00000000 alt_close.c
00009068 l     F .text	0000003c alt_get_errno
00000000 l    df *ABS*	00000000 alt_dcache_flush_all.c
00000000 l    df *ABS*	00000000 alt_dev.c
00009194 l     F .text	0000002c alt_dev_null_write
00000000 l    df *ABS*	00000000 alt_dev_llist_insert.c
000091c0 l     F .text	0000003c alt_get_errno
00000000 l    df *ABS*	00000000 alt_do_ctors.c
00000000 l    df *ABS*	00000000 alt_do_dtors.c
00000000 l    df *ABS*	00000000 alt_errno.c
00000000 l    df *ABS*	00000000 alt_find_dev.c
00000000 l    df *ABS*	00000000 alt_icache_flush_all.c
00000000 l    df *ABS*	00000000 alt_io_redirect.c
00009424 l     F .text	000000c4 alt_open_fd
00000000 l    df *ABS*	00000000 alt_open.c
00009564 l     F .text	0000003c alt_get_errno
000095a0 l     F .text	000000c4 alt_file_locked
00000000 l    df *ABS*	00000000 alt_release_fd.c
00000000 l    df *ABS*	00000000 alt_tick.c
00000000 l    df *ABS*	00000000 altera_nios2_gen2_irq.c
00000000 l    df *ABS*	00000000 alt_find_file.c
00000000 l    df *ABS*	00000000 alt_get_fd.c
00000000 l    df *ABS*	00000000 alt_icache_flush.c
00000000 l    df *ABS*	00000000 atexit.c
00000000 l    df *ABS*	00000000 exit.c
00000000 l    df *ABS*	00000000 int_errno.c
00000000 l    df *ABS*	00000000 memcmp.c
00000000 l    df *ABS*	00000000 putc.c
00000000 l    df *ABS*	00000000 strlen.c
00000000 l    df *ABS*	00000000 wbuf.c
00000000 l    df *ABS*	00000000 wsetup.c
00000000 l    df *ABS*	00000000 __atexit.c
00000000 l    df *ABS*	00000000 __call_atexit.c
000cd408 l     O .bss	00000004 __atexit_lock
00000000 l    df *ABS*	00000000 fflush.c
00000000 l    df *ABS*	00000000 findfp.c
0000abf8 l     F .text	000000f4 std
000cd40c l     O .bss	00000004 __sfp_lock
000cd410 l     O .bss	00000004 __sinit_lock
0000b0f4 l     F .text	00000024 __fp_lock
0000b118 l     F .text	00000024 __fp_unlock
00000000 l    df *ABS*	00000000 mallocr.c
00000000 l    df *ABS*	00000000 fwalk.c
00000000 l    df *ABS*	00000000 makebuf.c
00000000 l    df *ABS*	00000000 mallocr.c
0000bcc4 l     F .text	000003b4 malloc_extend_top
00000000 l    df *ABS*	00000000 memset.c
00000000 l    df *ABS*	00000000 sbrkr.c
00000000 l    df *ABS*	00000000 stdio.c
00000000 l    df *ABS*	00000000 writer.c
00000000 l    df *ABS*	00000000 closer.c
00000000 l    df *ABS*	00000000 fclose.c
00000000 l    df *ABS*	00000000 fstatr.c
00000000 l    df *ABS*	00000000 isattyr.c
00000000 l    df *ABS*	00000000 lseekr.c
00000000 l    df *ABS*	00000000 readr.c
00000000 l    df *ABS*	00000000 alt_exit.c
00000000 l    df *ABS*	00000000 alt_fstat.c
0000d49c l     F .text	0000003c alt_get_errno
00000000 l    df *ABS*	00000000 alt_isatty.c
0000d588 l     F .text	0000003c alt_get_errno
00000000 l    df *ABS*	00000000 alt_lseek.c
0000d668 l     F .text	0000003c alt_get_errno
00000000 l    df *ABS*	00000000 alt_malloc_lock.c
00000000 l    df *ABS*	00000000 alt_read.c
0000d7c0 l     F .text	0000003c alt_get_errno
00000000 l    df *ABS*	00000000 alt_sbrk.c
000cb604 l     O .rwdata	00000004 heap_end
00000000 l    df *ABS*	00000000 alt_write.c
0000d9a8 l     F .text	0000003c alt_get_errno
000cd400 g     O .bss	00000004 alt_instruction_exception_handler
000cd3ac g     O .bss	00000001 newData
0000d328 g     F .text	00000060 _isatty_r
00005748 g     F .text	0000007c alt_main
00005000 g     F .text	00000250 interval_timer_ISR
000cd398 g     O .bss	00000004 game_time
000cd4b0 g     O .bss	00000100 alt_irq
00007678 g     F .text	00000060 alt_up_ps2_disable_read_interrupt
0000d388 g     F .text	00000070 _lseek_r
000cb608 g       *ABS*	00000000 __flash_rwdata_start
000cd3ad g     O .bss	00000001 byte2
00006f2c g     F .text	00000060 alt_up_audio_read_fifo_avail
000cd5b0 g       *ABS*	00000000 __alt_heap_start
00006f8c g     F .text	00000068 alt_up_audio_record_r
000cd3ae g     O .bss	00000001 byte3
0000cf98 g     F .text	000000a0 __sseek
0000af9c g     F .text	000000d8 __sinit
00002e48 g     F .text	000001fc binRandS
0000a174 g     F .text	00000168 __swbuf_r
00007490 g     F .text	00000034 read_CE_bit
00002ac8 g     F .text	00000114 dispScore
0000acec g     F .text	000000a4 __sfmoreglue
0000d79c g     F .text	00000024 __malloc_unlock
00007818 g     F .text	0000009c alt_up_ps2_read_data_byte_timeout
00006e98 g     F .text	00000094 alt_up_audio_reset_audio_core
000cd3af g     O .bss	00000001 byte1
00003934 g     F .text	000002d4 resampleColours
0000af68 g     F .text	00000034 _cleanup
00007d70 g     F .text	00000154 alt_up_video_dma_read
0000360c g     F .text	000001d0 moveMouse
000099c0 g     F .text	00000024 altera_nios2_gen2_irq_init
00008778 g     F .text	000003a8 alt_up_video_dma_draw_circle
000037dc g     F .text	000000d0 openPS2Device
00000000 g     F .entry	0000001c __reset
000086c0 g     F .text	00000040 alt_up_video_dma_screen_clear
00000020 g       *ABS*	00000000 __flash_exceptions_start
00003ce8 g     F .text	00000068 assignPixelBuffers
0000d2c0 g     F .text	00000068 _fstat_r
000cd404 g     O .bss	00000004 errno
0000ceb4 g     F .text	00000030 __seofread
00006e58 g     F .text	00000040 alt_up_audio_write_interrupt_pending
000cd3f0 g     O .bss	00000004 alt_argv
000cb5c0 g     O .rwdata	00000004 c_of_rest
000d35c0 g       *ABS*	00000000 _gp
00008b20 g     F .text	00000124 alt_up_video_dma_draw_hline
00003c78 g     F .text	00000070 openCharDMA
000cb038 g     O .rwdata	00000180 alt_fd_list
00003e30 g     F .text	000000a0 initMouse
00009360 g     F .text	00000090 alt_find_dev
00005250 g     F .text	00000188 memcpy
0000af24 g     F .text	00000044 _cleanup_r
000094e8 g     F .text	0000007c alt_io_redirect
0000dadc g       *ABS*	00000000 __DTOR_END__
00009c20 g     F .text	0000009c alt_exception_cause_generated_bad_addr
00002d7c g     F .text	000000cc drawSplash
000cd3a8 g     O .bss	00000004 chaserDelay
00007374 g     F .text	00000050 alt_up_audio_read_fifo_head
00007b18 g     F .text	0000005c alt_up_video_dma_ctrl_set_bb_addr
00006754 g     F .text	0000021c altera_avalon_jtag_uart_read
00004ac0 g     F .text	000000b4 check_stopped
0000d5c4 g     F .text	000000a4 isatty
000cd448 g     O .bss	00000068 circles
00009b90 g     F .text	00000090 alt_icache_flush
000cd414 g     O .bss	00000004 __malloc_top_pad
0000415c g     F .text	00000258 resolve_collisions_dynamic
0000cdb8 g     F .text	00000060 _sbrk_r
000cd3b0 g     O .bss	00000008 up_dev
000cd3b8 g     O .bss	00000004 byteIndex
0000d3f8 g     F .text	00000070 _read_r
000cb5ec g     O .rwdata	00000004 alt_max_fd
000073c4 g     F .text	00000068 alt_up_audio_write_fifo_head
0000d15c g     F .text	0000012c _fclose_r
000074c4 g     F .text	00000030 read_num_bytes_available
0000aba4 g     F .text	00000054 fflush
000cd418 g     O .bss	00000004 __malloc_max_sbrked_mem
000054dc g     F .text	00000180 alt_irq_register
00003044 g     F .text	000001f4 charRandS
0000742c g     F .text	00000034 read_RI_bit
000cd3bc g     O .bss	00000002 mouseY
00003c08 g     F .text	00000070 openPixelDMA
0000d6a4 g     F .text	000000d4 lseek
000cb5d4 g     O .rwdata	00000004 _global_impure_ptr
000cd5b0 g       *ABS*	00000000 __bss_end
000098b8 g     F .text	00000108 alt_tick
0000479c g     F .text	0000005c accelerate_dynamic
000cd39c g     O .bss	00000004 time_step
000c987c g     O .rwdata	00000144 circle9
00006c84 g     F .text	0000003c alt_up_audio_open_dev
00007528 g     F .text	0000002c read_data_byte
0000b13c g     F .text	00000040 __fp_lock_all
000070bc g     F .text	00000068 alt_up_audio_play_r
0000981c g     F .text	0000009c alt_alarm_stop
00007460 g     F .text	00000030 read_RE_bit
000cd3e8 g     O .bss	00000004 alt_irq_active
000000fc g     F .exceptions	000000d8 alt_irq_handler
000cb010 g     O .rwdata	00000028 alt_dev_null
000076d8 g     F .text	00000074 alt_up_ps2_write_data_byte
00003dc4 g     F .text	0000006c initSplash
00009174 g     F .text	00000020 alt_dcache_flush_all
000cd3be g     O .bss	00000001 button1Down
000cb608 g       *ABS*	00000000 __ram_rwdata_end
000cb5e4 g     O .rwdata	00000008 alt_dev_list
0000d9e4 g     F .text	000000f8 write
00009e74 g     F .text	00000104 _putc_r
000c987c g       *ABS*	00000000 __ram_rodata_end
0000d4d8 g     F .text	000000b0 fstat
00000000 g       *ABS*	00000000 __alt_mem_SDRAM
000cd5b0 g       *ABS*	00000000 end
00007a08 g     F .text	00000098 alt_up_ps2_write_fd
00003d50 g     F .text	00000074 assignCharBuffers
00008c44 g     F .text	00000154 alt_up_video_dma_draw_vline
000cd3c0 g     O .bss	00000004 packetSize
00006298 g     F .text	000000b4 altera_avalon_jtag_uart_init
000cd3a0 g     O .bss	00000001 game_status
000001d4 g     F .exceptions	00000074 alt_instruction_exception_entry
00007bd4 g     F .text	00000034 alt_up_video_dma_ctrl_check_swap_status
0000dadc g       *ABS*	00000000 __CTOR_LIST__
00008e74 g     F .text	00000068 alt_up_video_dma_draw_helper
04000000 g       *ABS*	00000000 __alt_stack_pointer
00006c10 g     F .text	00000074 alt_avalon_timer_sc_init
000cd394 g     O .bss	00000004 num_objects
00006970 g     F .text	00000224 altera_avalon_jtag_uart_write
00004d90 g     F .text	00000094 reset_circles
0000b074 g     F .text	00000020 __sfp_lock_acquire
0000b1bc g     F .text	00000560 _free_r
000057c4 g     F .text	0000022c alt_printf
0000a62c g     F .text	000001ec __call_exitprocs
000038ac g     F .text	00000088 openAudioDevice
000cb600 g     O .rwdata	00000004 __malloc_sbrk_base
00000248 g     F .text	0000003c _start
000cd3f8 g     O .bss	00000004 _alt_tick_rate
00007c08 g     F .text	00000168 alt_up_video_dma_draw
0000726c g     F .text	00000108 alt_up_audio_write_fifo
0000541c g     F .text	000000c0 rand
000cd3fc g     O .bss	00000004 _alt_nticks
0000d7fc g     F .text	000000fc read
00004920 g     F .text	00000048 get_vel_y
00005a98 g     F .text	0000069c alt_sys_init
00003410 g     F .text	00000088 drawCursor
0000718c g     F .text	000000e0 alt_up_audio_read_fifo
00004b74 g     F .text	0000014c check_game_status
0000a4bc g     F .text	00000170 __register_exitproc
00006dc0 g     F .text	00000058 alt_up_audio_disable_write_interrupt
00008d98 g     F .text	000000dc alt_up_video_dma_draw_rectangle
00007924 g     F .text	00000058 alt_up_ps2_clear_fifo
000065fc g     F .text	00000068 altera_avalon_jtag_uart_close
000c987c g       *ABS*	00000000 __ram_rwdata_start
0000dadc g       *ABS*	00000000 __ram_rodata_start
000cd420 g     O .bss	00000028 __malloc_current_mallinfo
00006134 g     F .text	00000060 altera_avalon_jtag_uart_read_fd
00009aec g     F .text	000000a4 alt_get_fd
00002ca0 g     F .text	000000dc charDissolveEffect
0000d0fc g     F .text	00000060 _close_r
00006d6c g     F .text	00000054 alt_up_audio_enable_write_interrupt
00009d40 g     F .text	00000134 memcmp
000061f4 g     F .text	00000050 altera_avalon_jtag_uart_close_fd
000cd5b0 g       *ABS*	00000000 __alt_stack_base
00006244 g     F .text	00000054 altera_avalon_jtag_uart_ioctl_fd
00004660 g     F .text	0000013c update_dynamic
0000a31c g     F .text	000001a0 __swsetup_r
00006d14 g     F .text	00000058 alt_up_audio_disable_read_interrupt
0000ad90 g     F .text	00000194 __sfp
000cb1b8 g     O .rwdata	00000408 __malloc_av_
0000b0d4 g     F .text	00000020 __sinit_lock_release
000cb5c5 g     O .rwdata	00000001 negYMask
0000ce18 g     F .text	0000009c __sread
000099e4 g     F .text	00000108 alt_find_file
000cd3c4 g     O .bss	00000001 button3Down
000091fc g     F .text	000000a4 alt_dev_llist_insert
0000d778 g     F .text	00000024 __malloc_lock
0000d8f8 g     F .text	000000b0 sbrk
00004868 g     F .text	00000070 add_velocity_dynamic
0000ab1c g     F .text	00000088 _fflush_r
000043b4 g     F .text	0000006c update_gravity
000cd394 g       *ABS*	00000000 __bss_start
00008edc g     F .text	00000060 alt_up_video_dma_read_helper
0000cbf4 g     F .text	000001c4 memset
000004bc g     F .text	00002588 main
0000705c g     F .text	00000060 alt_up_audio_write_fifo_space
000cd3f4 g     O .bss	00000004 alt_envp
000cd41c g     O .bss	00000004 __malloc_max_total_mem
00006194 g     F .text	00000060 altera_avalon_jtag_uart_write_fd
0000a2dc g     F .text	00000040 __swbuf
000053d8 g     F .text	00000044 srand
0000d038 g     F .text	00000054 __sclose
04000000 g       *ABS*	00000000 __alt_heap_limit
0000d288 g     F .text	00000038 fclose
000078b4 g     F .text	00000070 alt_up_ps2_read_data_byte
000cd3c8 g     O .bss	00000004 timeout
000cd3cc g     O .bss	00000004 seq
0000c078 g     F .text	00000b7c _malloc_r
000cb5f0 g     O .rwdata	00000004 alt_errno
0000b8e4 g     F .text	000000d8 _fwalk
00007aa0 g     F .text	0000003c alt_up_ps2_open_dev
00009f78 g     F .text	00000108 putc
0000b71c g     F .text	000001c8 _malloc_trim_r
0000761c g     F .text	0000005c alt_up_ps2_enable_read_interrupt
0000dadc g       *ABS*	00000000 __CTOR_END__
000cb5cc g     O .rwdata	00000004 dir
000033d0 g     F .text	00000040 copyPoint
0000dadc g       *ABS*	00000000 __flash_rodata_start
0000dadc g       *ABS*	00000000 __DTOR_LIST__
000081e0 g     F .text	0000029c alt_up_video_dma_draw_line
000cd3a4 g     O .bss	00000004 delay
00005a60 g     F .text	00000038 alt_irq_init
000097b8 g     F .text	00000064 alt_release_fd
000074f4 g     F .text	00000034 read_data_valid
000077b4 g     F .text	00000064 alt_up_ps2_write_data_byte_with_ack
00009cbc g     F .text	0000003c atexit
0000d08c g     F .text	00000070 _write_r
00000284 g     F .text	00000238 PS2_ISR
00003238 g     F .text	00000198 fadeBGM
000cb5d0 g     O .rwdata	00000004 _impure_ptr
000cd3d0 g     O .bss	00000004 buf_index_play
000cd3ec g     O .bss	00000004 alt_argc
0000a818 g     F .text	00000304 __sflush_r
00009300 g     F .text	00000060 _do_dtors
09000000 g       *ABS*	00000000 __alt_mem_VGA_Subsystem_Char_Buf_Subsystem_Onchip_SRAM
00004cc0 g     F .text	000000d0 capture_ball
000047f8 g     F .text	00000070 set_new_velocity_dynamic
00003ed0 g     F .text	00000068 clickedInArea
00000020 g       .exceptions	00000000 alt_irq_entry
0000b17c g     F .text	00000040 __fp_unlock_all
000cb5dc g     O .rwdata	00000008 alt_fs_list
000cb5c4 g     O .rwdata	00000001 negXMask
00006ff4 g     F .text	00000068 alt_up_audio_record_l
00058f70 g     O .rodata	00070808 jazzplaza
00002bdc g     F .text	000000c4 dissolveEffect
00000020 g       *ABS*	00000000 __ram_exceptions_start
0000847c g     F .text	00000244 alt_up_video_dma_draw_string
00004968 g     F .text	00000158 update_all
000cb608 g       *ABS*	00000000 _edata
000cd3d4 g     O .bss	00000004 interval_timer_ptr
000cd5b0 g       *ABS*	00000000 _end
00007adc g     F .text	0000003c alt_up_video_dma_open_dev
00000248 g       *ABS*	00000000 __ram_exceptions_end
00006664 g     F .text	000000f0 altera_avalon_jtag_uart_ioctl
00004ed4 g     F .text	0000012c audio_ISR
08000000 g       *ABS*	00000000 __alt_mem_Onchip_SRAM
00007124 g     F .text	00000068 alt_up_audio_play_l
0000cee4 g     F .text	000000b4 __swrite
000cb5fc g     O .rwdata	00000004 __malloc_trim_threshold
00008700 g     F .text	00000078 alt_up_video_dma_screen_fill
00009cf8 g     F .text	00000048 exit
0000b9bc g     F .text	000000dc _fwalk_reent
00007554 g     F .text	000000c8 alt_up_ps2_init
04000000 g       *ABS*	00000000 __alt_data_end
00000020 g     F .exceptions	00000000 alt_exception
00002a44 g     F .text	00000084 clearChaser
0000b094 g     F .text	00000020 __sfp_lock_release
000cd3d8 g     O .bss	00000001 negX
0000d468 g     F .text	00000034 _exit
00008f3c g     F .text	0000012c alt_alarm_start
0000ba98 g     F .text	0000022c __smakebuf_r
0000774c g     F .text	00000068 alt_up_ps2_wait_for_ack
0000a080 g     F .text	000000f4 strlen
00009664 g     F .text	00000154 open
000059f0 g     F .text	0000003c alt_putchar
000cd3dc g     O .bss	00000004 audioArrayPosition
000cb5c8 g     O .rwdata	00000004 audioArraySize
000093f0 g     F .text	00000034 alt_icache_flush_all
00003498 g     F .text	00000174 restoreSplash
000cb5d8 g     O .rwdata	00000004 alt_priority_mask
0000797c g     F .text	0000008c alt_up_ps2_read_fd
000cd3e0 g     O .bss	00000001 button2Down
00003f38 g     F .text	00000224 displayInstructionsScreen
00004e24 g     F .text	000000b0 randomize_position
00007ec4 g     F .text	0000031c alt_up_video_dma_draw_box
000cb5f4 g     O .rwdata	00000008 alt_alarm_list
000092a0 g     F .text	00000060 _do_ctors
000cd3e2 g     O .bss	00000002 mouseX
000090a4 g     F .text	000000d0 close
000cd3e4 g     O .bss	00000001 negY
000056c4 g     F .text	00000084 alt_load
00006cc0 g     F .text	00000054 alt_up_audio_enable_read_interrupt
000048d8 g     F .text	00000048 get_vel_x
00004420 g     F .text	00000240 check_bounds
0000b0b4 g     F .text	00000020 __sinit_lock_acquire
00007b74 g     F .text	00000060 alt_up_video_dma_ctrl_swap_buffers
00006e18 g     F .text	00000040 alt_up_audio_read_interrupt_pending



Disassembly of section .entry:

00000000 <__reset>:
   0:	00840014 	movui	r2,4096
   4:	1001483a 	initi	r2
   8:	10bff804 	addi	r2,r2,-32
   c:	00bffd16 	blt	zero,r2,4 <__alt_mem_VGA_Subsystem_Char_Buf_Subsystem_Onchip_SRAM+0xf7000004>
  10:	00400034 	movhi	at,0
  14:	08409214 	ori	at,at,584
  18:	0800683a 	jmp	at
  1c:	00000000 	call	0 <__reset>

Disassembly of section .exceptions:

00000020 <alt_exception>:
  20:	deffed04 	addi	sp,sp,-76
  24:	dfc00015 	stw	ra,0(sp)
  28:	d8400215 	stw	at,8(sp)
  2c:	d8800315 	stw	r2,12(sp)
  30:	d8c00415 	stw	r3,16(sp)
  34:	d9000515 	stw	r4,20(sp)
  38:	d9400615 	stw	r5,24(sp)
  3c:	d9800715 	stw	r6,28(sp)
  40:	d9c00815 	stw	r7,32(sp)
  44:	000b307a 	rdctl	r5,estatus
  48:	da000915 	stw	r8,36(sp)
  4c:	da400a15 	stw	r9,40(sp)
  50:	da800b15 	stw	r10,44(sp)
  54:	dac00c15 	stw	r11,48(sp)
  58:	db000d15 	stw	r12,52(sp)
  5c:	db400e15 	stw	r13,56(sp)
  60:	db800f15 	stw	r14,60(sp)
  64:	dbc01015 	stw	r15,64(sp)
  68:	d9401115 	stw	r5,68(sp)
  6c:	ebffff04 	addi	r15,ea,-4
  70:	dbc01215 	stw	r15,72(sp)
  74:	0009313a 	rdctl	r4,ipending
  78:	2880004c 	andi	r2,r5,1
  7c:	10000326 	beq	r2,zero,8c <alt_exception+0x6c>
  80:	20000226 	beq	r4,zero,8c <alt_exception+0x6c>
  84:	00000fc0 	call	fc <alt_irq_handler>
  88:	00000706 	br	a8 <alt_exception+0x88>
  8c:	df401215 	stw	ea,72(sp)
  90:	e8bfff17 	ldw	r2,-4(ea)
  94:	e93fff04 	addi	r4,ea,-4
  98:	00001d40 	call	1d4 <alt_instruction_exception_entry>
  9c:	1000021e 	bne	r2,zero,a8 <alt_exception+0x88>
  a0:	ebffff04 	addi	r15,ea,-4
  a4:	dbc01215 	stw	r15,72(sp)
  a8:	d9401117 	ldw	r5,68(sp)
  ac:	df401217 	ldw	ea,72(sp)
  b0:	dfc00017 	ldw	ra,0(sp)
  b4:	2801707a 	wrctl	estatus,r5
  b8:	d8400217 	ldw	at,8(sp)
  bc:	d8800317 	ldw	r2,12(sp)
  c0:	d8c00417 	ldw	r3,16(sp)
  c4:	d9000517 	ldw	r4,20(sp)
  c8:	d9400617 	ldw	r5,24(sp)
  cc:	d9800717 	ldw	r6,28(sp)
  d0:	d9c00817 	ldw	r7,32(sp)
  d4:	da000917 	ldw	r8,36(sp)
  d8:	da400a17 	ldw	r9,40(sp)
  dc:	da800b17 	ldw	r10,44(sp)
  e0:	dac00c17 	ldw	r11,48(sp)
  e4:	db000d17 	ldw	r12,52(sp)
  e8:	db400e17 	ldw	r13,56(sp)
  ec:	db800f17 	ldw	r14,60(sp)
  f0:	dbc01017 	ldw	r15,64(sp)
  f4:	dec01304 	addi	sp,sp,76
  f8:	ef80083a 	eret

000000fc <alt_irq_handler>:
  fc:	defff904 	addi	sp,sp,-28
 100:	dfc00615 	stw	ra,24(sp)
 104:	df000515 	stw	fp,20(sp)
 108:	df000504 	addi	fp,sp,20
 10c:	0001883a 	nop
 110:	0005313a 	rdctl	r2,ipending
 114:	e0bffe15 	stw	r2,-8(fp)
 118:	e0bffe17 	ldw	r2,-8(fp)
 11c:	e0bffb15 	stw	r2,-20(fp)
 120:	e03ffd15 	stw	zero,-12(fp)
 124:	00800044 	movi	r2,1
 128:	e0bffc15 	stw	r2,-16(fp)
 12c:	e0fffb17 	ldw	r3,-20(fp)
 130:	e0bffc17 	ldw	r2,-16(fp)
 134:	1884703a 	and	r2,r3,r2
 138:	10001526 	beq	r2,zero,190 <alt_irq_handler+0x94>
 13c:	00800374 	movhi	r2,13
 140:	10b52c04 	addi	r2,r2,-11088
 144:	e0fffd17 	ldw	r3,-12(fp)
 148:	180690fa 	slli	r3,r3,3
 14c:	10c5883a 	add	r2,r2,r3
 150:	10c00017 	ldw	r3,0(r2)
 154:	00800374 	movhi	r2,13
 158:	10b52c04 	addi	r2,r2,-11088
 15c:	e13ffd17 	ldw	r4,-12(fp)
 160:	200890fa 	slli	r4,r4,3
 164:	1105883a 	add	r2,r2,r4
 168:	10800104 	addi	r2,r2,4
 16c:	10800017 	ldw	r2,0(r2)
 170:	e17ffd17 	ldw	r5,-12(fp)
 174:	1009883a 	mov	r4,r2
 178:	183ee83a 	callr	r3
 17c:	0001883a 	nop
 180:	0005313a 	rdctl	r2,ipending
 184:	e0bfff15 	stw	r2,-4(fp)
 188:	e0bfff17 	ldw	r2,-4(fp)
 18c:	00000706 	br	1ac <alt_irq_handler+0xb0>
 190:	e0bffc17 	ldw	r2,-16(fp)
 194:	1085883a 	add	r2,r2,r2
 198:	e0bffc15 	stw	r2,-16(fp)
 19c:	e0bffd17 	ldw	r2,-12(fp)
 1a0:	10800044 	addi	r2,r2,1
 1a4:	e0bffd15 	stw	r2,-12(fp)
 1a8:	003fe006 	br	12c <__alt_mem_VGA_Subsystem_Char_Buf_Subsystem_Onchip_SRAM+0xf700012c>
 1ac:	e0bffb15 	stw	r2,-20(fp)
 1b0:	e0bffb17 	ldw	r2,-20(fp)
 1b4:	103fda1e 	bne	r2,zero,120 <__alt_mem_VGA_Subsystem_Char_Buf_Subsystem_Onchip_SRAM+0xf7000120>
 1b8:	0001883a 	nop
 1bc:	0001883a 	nop
 1c0:	e037883a 	mov	sp,fp
 1c4:	dfc00117 	ldw	ra,4(sp)
 1c8:	df000017 	ldw	fp,0(sp)
 1cc:	dec00204 	addi	sp,sp,8
 1d0:	f800283a 	ret

000001d4 <alt_instruction_exception_entry>:
 1d4:	defffb04 	addi	sp,sp,-20
 1d8:	dfc00415 	stw	ra,16(sp)
 1dc:	df000315 	stw	fp,12(sp)
 1e0:	df000304 	addi	fp,sp,12
 1e4:	e13fff15 	stw	r4,-4(fp)
 1e8:	000531fa 	rdctl	r2,exception
 1ec:	e0bffd15 	stw	r2,-12(fp)
 1f0:	e0bffd17 	ldw	r2,-12(fp)
 1f4:	10801f0c 	andi	r2,r2,124
 1f8:	1004d0ba 	srli	r2,r2,2
 1fc:	e0bffd15 	stw	r2,-12(fp)
 200:	0005333a 	rdctl	r2,badaddr
 204:	e0bffe15 	stw	r2,-8(fp)
 208:	d0a79017 	ldw	r2,-25024(gp)
 20c:	10000726 	beq	r2,zero,22c <alt_instruction_exception_entry+0x58>
 210:	d0a79017 	ldw	r2,-25024(gp)
 214:	e0fffd17 	ldw	r3,-12(fp)
 218:	e1bffe17 	ldw	r6,-8(fp)
 21c:	e17fff17 	ldw	r5,-4(fp)
 220:	1809883a 	mov	r4,r3
 224:	103ee83a 	callr	r2
 228:	00000206 	br	234 <alt_instruction_exception_entry+0x60>
 22c:	003da03a 	break	0
 230:	0005883a 	mov	r2,zero
 234:	e037883a 	mov	sp,fp
 238:	dfc00117 	ldw	ra,4(sp)
 23c:	df000017 	ldw	fp,0(sp)
 240:	dec00204 	addi	sp,sp,8
 244:	f800283a 	ret

Disassembly of section .text:

00000248 <_start>:
     248:	06c10034 	movhi	sp,1024
     24c:	dec00014 	ori	sp,sp,0
     250:	06800374 	movhi	gp,13
     254:	d68d7014 	ori	gp,gp,13760
     258:	00800334 	movhi	r2,12
     25c:	10b4e514 	ori	r2,r2,54164
     260:	00c00334 	movhi	r3,12
     264:	18f56c14 	ori	r3,r3,54704
     268:	10c00326 	beq	r2,r3,278 <_start+0x30>
     26c:	10000015 	stw	zero,0(r2)
     270:	10800104 	addi	r2,r2,4
     274:	10fffd36 	bltu	r2,r3,26c <__alt_mem_VGA_Subsystem_Char_Buf_Subsystem_Onchip_SRAM+0xf700026c>
     278:	00056c40 	call	56c4 <alt_load>
     27c:	00057480 	call	5748 <alt_main>

00000280 <alt_after_alt_main>:
     280:	003fff06 	br	280 <__alt_mem_VGA_Subsystem_Char_Buf_Subsystem_Onchip_SRAM+0xf7000280>

00000284 <PS2_ISR>:
     284:	defffb04 	addi	sp,sp,-20
     288:	dfc00415 	stw	ra,16(sp)
     28c:	df000315 	stw	fp,12(sp)
     290:	df000304 	addi	fp,sp,12
     294:	e13ffe15 	stw	r4,-8(fp)
     298:	e17fff15 	stw	r5,-4(fp)
     29c:	e0bffe17 	ldw	r2,-8(fp)
     2a0:	10800017 	ldw	r2,0(r2)
     2a4:	e17ffd04 	addi	r5,fp,-12
     2a8:	1009883a 	mov	r4,r2
     2ac:	00078b40 	call	78b4 <alt_up_ps2_read_data_byte>
     2b0:	10007c1e 	bne	r2,zero,4a4 <PS2_ISR+0x220>
     2b4:	d0a77e17 	ldw	r2,-25096(gp)
     2b8:	10000e0e 	bge	r2,zero,2f4 <PS2_ISR+0x70>
     2bc:	e0bffd03 	ldbu	r2,-12(fp)
     2c0:	10803fcc 	andi	r2,r2,255
     2c4:	1080020c 	andi	r2,r2,8
     2c8:	10000826 	beq	r2,zero,2ec <PS2_ISR+0x68>
     2cc:	e0bffd03 	ldbu	r2,-12(fp)
     2d0:	10803fcc 	andi	r2,r2,255
     2d4:	10803ea0 	cmpeqi	r2,r2,250
     2d8:	1000041e 	bne	r2,zero,2ec <PS2_ISR+0x68>
     2dc:	e0bffd03 	ldbu	r2,-12(fp)
     2e0:	10803fcc 	andi	r2,r2,255
     2e4:	10802a98 	cmpnei	r2,r2,170
     2e8:	1000021e 	bne	r2,zero,2f4 <PS2_ISR+0x70>
     2ec:	d0277b05 	stb	zero,-25108(gp)
     2f0:	00006d06 	br	4a8 <PS2_ISR+0x224>
     2f4:	d0a77e17 	ldw	r2,-25096(gp)
     2f8:	1000060e 	bge	r2,zero,314 <PS2_ISR+0x90>
     2fc:	e0bffd03 	ldbu	r2,-12(fp)
     300:	10803fcc 	andi	r2,r2,255
     304:	1080020c 	andi	r2,r2,8
     308:	10000226 	beq	r2,zero,314 <PS2_ISR+0x90>
     30c:	d0277b05 	stb	zero,-25108(gp)
     310:	d0277e15 	stw	zero,-25096(gp)
     314:	d0a77e17 	ldw	r2,-25096(gp)
     318:	10c00060 	cmpeqi	r3,r2,1
     31c:	18002c1e 	bne	r3,zero,3d0 <PS2_ISR+0x14c>
     320:	10c00088 	cmpgei	r3,r2,2
     324:	1800021e 	bne	r3,zero,330 <PS2_ISR+0xac>
     328:	10000426 	beq	r2,zero,33c <PS2_ISR+0xb8>
     32c:	00005306 	br	47c <PS2_ISR+0x1f8>
     330:	108000a0 	cmpeqi	r2,r2,2
     334:	1000391e 	bne	r2,zero,41c <PS2_ISR+0x198>
     338:	00005006 	br	47c <PS2_ISR+0x1f8>
     33c:	e0bffd03 	ldbu	r2,-12(fp)
     340:	10803fcc 	andi	r2,r2,255
     344:	1080020c 	andi	r2,r2,8
     348:	10001e26 	beq	r2,zero,3c4 <PS2_ISR+0x140>
     34c:	e0bffd03 	ldbu	r2,-12(fp)
     350:	d0a77bc5 	stb	r2,-25105(gp)
     354:	e0bffd03 	ldbu	r2,-12(fp)
     358:	10803fcc 	andi	r2,r2,255
     35c:	1080004c 	andi	r2,r2,1
     360:	1004c03a 	cmpne	r2,r2,zero
     364:	d0a77f85 	stb	r2,-25090(gp)
     368:	e0bffd03 	ldbu	r2,-12(fp)
     36c:	10803fcc 	andi	r2,r2,255
     370:	1080008c 	andi	r2,r2,2
     374:	1004c03a 	cmpne	r2,r2,zero
     378:	d0a78805 	stb	r2,-25056(gp)
     37c:	e0bffd03 	ldbu	r2,-12(fp)
     380:	10803fcc 	andi	r2,r2,255
     384:	1080010c 	andi	r2,r2,4
     388:	1004c03a 	cmpne	r2,r2,zero
     38c:	d0a78105 	stb	r2,-25084(gp)
     390:	e0fffd03 	ldbu	r3,-12(fp)
     394:	d0a00103 	ldbu	r2,-32764(gp)
     398:	1884703a 	and	r2,r3,r2
     39c:	10803fcc 	andi	r2,r2,255
     3a0:	1004c03a 	cmpne	r2,r2,zero
     3a4:	d0a78605 	stb	r2,-25064(gp)
     3a8:	e0fffd03 	ldbu	r3,-12(fp)
     3ac:	d0a00143 	ldbu	r2,-32763(gp)
     3b0:	1884703a 	and	r2,r3,r2
     3b4:	10803fcc 	andi	r2,r2,255
     3b8:	1004c03a 	cmpne	r2,r2,zero
     3bc:	d0a78905 	stb	r2,-25052(gp)
     3c0:	00002e06 	br	47c <PS2_ISR+0x1f8>
     3c4:	00bfffc4 	movi	r2,-1
     3c8:	d0a77e15 	stw	r2,-25096(gp)
     3cc:	00003606 	br	4a8 <PS2_ISR+0x224>
     3d0:	e0bffd03 	ldbu	r2,-12(fp)
     3d4:	d0a77b45 	stb	r2,-25107(gp)
     3d8:	d0a77bc3 	ldbu	r2,-25105(gp)
     3dc:	10803fcc 	andi	r2,r2,255
     3e0:	1080100c 	andi	r2,r2,64
     3e4:	1000221e 	bne	r2,zero,470 <PS2_ISR+0x1ec>
     3e8:	d0a78603 	ldbu	r2,-25064(gp)
     3ec:	10803fcc 	andi	r2,r2,255
     3f0:	10000626 	beq	r2,zero,40c <PS2_ISR+0x188>
     3f4:	e0bffd03 	ldbu	r2,-12(fp)
     3f8:	10c03fcc 	andi	r3,r2,255
     3fc:	00bfc004 	movi	r2,-256
     400:	1884b03a 	or	r2,r3,r2
     404:	d0a7888d 	sth	r2,-25054(gp)
     408:	00001906 	br	470 <PS2_ISR+0x1ec>
     40c:	e0bffd03 	ldbu	r2,-12(fp)
     410:	10803fcc 	andi	r2,r2,255
     414:	d0a7888d 	sth	r2,-25054(gp)
     418:	00001506 	br	470 <PS2_ISR+0x1ec>
     41c:	e0bffd03 	ldbu	r2,-12(fp)
     420:	d0a77b85 	stb	r2,-25106(gp)
     424:	d0a77bc3 	ldbu	r2,-25105(gp)
     428:	10803fcc 	andi	r2,r2,255
     42c:	1080100c 	andi	r2,r2,64
     430:	1000111e 	bne	r2,zero,478 <PS2_ISR+0x1f4>
     434:	d0a78903 	ldbu	r2,-25052(gp)
     438:	10803fcc 	andi	r2,r2,255
     43c:	10000726 	beq	r2,zero,45c <PS2_ISR+0x1d8>
     440:	e0bffd03 	ldbu	r2,-12(fp)
     444:	10c03fcc 	andi	r3,r2,255
     448:	00bfc004 	movi	r2,-256
     44c:	1884b03a 	or	r2,r3,r2
     450:	0085c83a 	sub	r2,zero,r2
     454:	d0a77f0d 	sth	r2,-25092(gp)
     458:	00000706 	br	478 <PS2_ISR+0x1f4>
     45c:	e0bffd03 	ldbu	r2,-12(fp)
     460:	10803fcc 	andi	r2,r2,255
     464:	0085c83a 	sub	r2,zero,r2
     468:	d0a77f0d 	sth	r2,-25092(gp)
     46c:	00000206 	br	478 <PS2_ISR+0x1f4>
     470:	0001883a 	nop
     474:	00000106 	br	47c <PS2_ISR+0x1f8>
     478:	0001883a 	nop
     47c:	d0a77e17 	ldw	r2,-25096(gp)
     480:	10800044 	addi	r2,r2,1
     484:	d0a77e15 	stw	r2,-25096(gp)
     488:	d0e77e17 	ldw	r3,-25096(gp)
     48c:	d0a78017 	ldw	r2,-25088(gp)
     490:	18800416 	blt	r3,r2,4a4 <PS2_ISR+0x220>
     494:	00800044 	movi	r2,1
     498:	d0a77b05 	stb	r2,-25108(gp)
     49c:	d0277e15 	stw	zero,-25096(gp)
     4a0:	0001883a 	nop
     4a4:	0001883a 	nop
     4a8:	e037883a 	mov	sp,fp
     4ac:	dfc00117 	ldw	ra,4(sp)
     4b0:	df000017 	ldw	fp,0(sp)
     4b4:	dec00204 	addi	sp,sp,8
     4b8:	f800283a 	ret

000004bc <main>:
     4bc:	defffe04 	addi	sp,sp,-8
     4c0:	dfc00115 	stw	ra,4(sp)
     4c4:	df000015 	stw	fp,0(sp)
     4c8:	d839883a 	mov	fp,sp
     4cc:	023ffef4 	movhi	r8,65531
     4d0:	4200ef04 	addi	r8,r8,956
     4d4:	da37883a 	add	sp,sp,r8
     4d8:	d0a78717 	ldw	r2,-25060(gp)
     4dc:	10000015 	stw	zero,0(r2)
     4e0:	00bfc834 	movhi	r2,65312
     4e4:	10880004 	addi	r2,r2,8192
     4e8:	d0a78515 	stw	r2,-25068(gp)
     4ec:	d0a78517 	ldw	r2,-25068(gp)
     4f0:	10000015 	stw	zero,0(r2)
     4f4:	00bffef4 	movhi	r2,65531
     4f8:	1080f304 	addi	r2,r2,972
     4fc:	1705883a 	add	r2,r2,fp
     500:	10000005 	stb	zero,0(r2)
     504:	00800044 	movi	r2,1
     508:	00fffef4 	movhi	r3,65531
     50c:	18c0f344 	addi	r3,r3,973
     510:	1f07883a 	add	r3,r3,fp
     514:	18800005 	stb	r2,0(r3)
     518:	013ffef4 	movhi	r4,65531
     51c:	2100f384 	addi	r4,r4,974
     520:	2709883a 	add	r4,r4,fp
     524:	20000005 	stb	zero,0(r4)
     528:	00800174 	movhi	r2,5
     52c:	10bee604 	addi	r2,r2,-1128
     530:	017ffef4 	movhi	r5,65531
     534:	2940f304 	addi	r5,r5,972
     538:	2f0b883a 	add	r5,r5,fp
     53c:	2885883a 	add	r2,r5,r2
     540:	00c00d84 	movi	r3,54
     544:	10c00015 	stw	r3,0(r2)
     548:	00800174 	movhi	r2,5
     54c:	10bee604 	addi	r2,r2,-1128
     550:	01fffef4 	movhi	r7,65531
     554:	39c0f304 	addi	r7,r7,972
     558:	3f0f883a 	add	r7,r7,fp
     55c:	3885883a 	add	r2,r7,r2
     560:	00c01a84 	movi	r3,106
     564:	10c00115 	stw	r3,4(r2)
     568:	00800174 	movhi	r2,5
     56c:	10bee804 	addi	r2,r2,-1120
     570:	00fffef4 	movhi	r3,65531
     574:	18c0f304 	addi	r3,r3,972
     578:	1f07883a 	add	r3,r3,fp
     57c:	1885883a 	add	r2,r3,r2
     580:	00c02784 	movi	r3,158
     584:	10c00015 	stw	r3,0(r2)
     588:	00800174 	movhi	r2,5
     58c:	10bee804 	addi	r2,r2,-1120
     590:	013ffef4 	movhi	r4,65531
     594:	2100f304 	addi	r4,r4,972
     598:	2709883a 	add	r4,r4,fp
     59c:	2085883a 	add	r2,r4,r2
     5a0:	00c02044 	movi	r3,129
     5a4:	10c00115 	stw	r3,4(r2)
     5a8:	00800174 	movhi	r2,5
     5ac:	10beea04 	addi	r2,r2,-1112
     5b0:	017ffef4 	movhi	r5,65531
     5b4:	2940f304 	addi	r5,r5,972
     5b8:	2f0b883a 	add	r5,r5,fp
     5bc:	2885883a 	add	r2,r5,r2
     5c0:	00c02cc4 	movi	r3,179
     5c4:	10c00015 	stw	r3,0(r2)
     5c8:	00800174 	movhi	r2,5
     5cc:	10beea04 	addi	r2,r2,-1112
     5d0:	01fffef4 	movhi	r7,65531
     5d4:	39c0f304 	addi	r7,r7,972
     5d8:	3f0f883a 	add	r7,r7,fp
     5dc:	3885883a 	add	r2,r7,r2
     5e0:	00c01a84 	movi	r3,106
     5e4:	10c00115 	stw	r3,4(r2)
     5e8:	00800174 	movhi	r2,5
     5ec:	10beec04 	addi	r2,r2,-1104
     5f0:	00fffef4 	movhi	r3,65531
     5f4:	18c0f304 	addi	r3,r3,972
     5f8:	1f07883a 	add	r3,r3,fp
     5fc:	1885883a 	add	r2,r3,r2
     600:	00c04644 	movi	r3,281
     604:	10c00015 	stw	r3,0(r2)
     608:	00800174 	movhi	r2,5
     60c:	10beec04 	addi	r2,r2,-1104
     610:	013ffef4 	movhi	r4,65531
     614:	2100f304 	addi	r4,r4,972
     618:	2709883a 	add	r4,r4,fp
     61c:	2085883a 	add	r2,r4,r2
     620:	00c02044 	movi	r3,129
     624:	10c00115 	stw	r3,4(r2)
     628:	00800174 	movhi	r2,5
     62c:	10beee04 	addi	r2,r2,-1096
     630:	017ffef4 	movhi	r5,65531
     634:	2940f304 	addi	r5,r5,972
     638:	2f0b883a 	add	r5,r5,fp
     63c:	2885883a 	add	r2,r5,r2
     640:	00c00dc4 	movi	r3,55
     644:	10c00015 	stw	r3,0(r2)
     648:	00800174 	movhi	r2,5
     64c:	10beee04 	addi	r2,r2,-1096
     650:	01fffef4 	movhi	r7,65531
     654:	39c0f304 	addi	r7,r7,972
     658:	3f0f883a 	add	r7,r7,fp
     65c:	3885883a 	add	r2,r7,r2
     660:	00c02344 	movi	r3,141
     664:	10c00115 	stw	r3,4(r2)
     668:	00800174 	movhi	r2,5
     66c:	10bef004 	addi	r2,r2,-1088
     670:	00fffef4 	movhi	r3,65531
     674:	18c0f304 	addi	r3,r3,972
     678:	1f07883a 	add	r3,r3,fp
     67c:	1885883a 	add	r2,r3,r2
     680:	00c02784 	movi	r3,158
     684:	10c00015 	stw	r3,0(r2)
     688:	00800174 	movhi	r2,5
     68c:	10bef004 	addi	r2,r2,-1088
     690:	013ffef4 	movhi	r4,65531
     694:	2100f304 	addi	r4,r4,972
     698:	2709883a 	add	r4,r4,fp
     69c:	2085883a 	add	r2,r4,r2
     6a0:	00c02904 	movi	r3,164
     6a4:	10c00115 	stw	r3,4(r2)
     6a8:	00800174 	movhi	r2,5
     6ac:	10bef204 	addi	r2,r2,-1080
     6b0:	017ffef4 	movhi	r5,65531
     6b4:	2940f304 	addi	r5,r5,972
     6b8:	2f0b883a 	add	r5,r5,fp
     6bc:	2885883a 	add	r2,r5,r2
     6c0:	00c02cc4 	movi	r3,179
     6c4:	10c00015 	stw	r3,0(r2)
     6c8:	00800174 	movhi	r2,5
     6cc:	10bef204 	addi	r2,r2,-1080
     6d0:	01fffef4 	movhi	r7,65531
     6d4:	39c0f304 	addi	r7,r7,972
     6d8:	3f0f883a 	add	r7,r7,fp
     6dc:	3885883a 	add	r2,r7,r2
     6e0:	00c022c4 	movi	r3,139
     6e4:	10c00115 	stw	r3,4(r2)
     6e8:	00800174 	movhi	r2,5
     6ec:	10bef404 	addi	r2,r2,-1072
     6f0:	00fffef4 	movhi	r3,65531
     6f4:	18c0f304 	addi	r3,r3,972
     6f8:	1f07883a 	add	r3,r3,fp
     6fc:	1885883a 	add	r2,r3,r2
     700:	00c04644 	movi	r3,281
     704:	10c00015 	stw	r3,0(r2)
     708:	00800174 	movhi	r2,5
     70c:	10bef404 	addi	r2,r2,-1072
     710:	013ffef4 	movhi	r4,65531
     714:	2100f304 	addi	r4,r4,972
     718:	2709883a 	add	r4,r4,fp
     71c:	2085883a 	add	r2,r4,r2
     720:	00c02904 	movi	r3,164
     724:	10c00115 	stw	r3,4(r2)
     728:	00800174 	movhi	r2,5
     72c:	10bef604 	addi	r2,r2,-1064
     730:	017ffef4 	movhi	r5,65531
     734:	2940f304 	addi	r5,r5,972
     738:	2f0b883a 	add	r5,r5,fp
     73c:	2885883a 	add	r2,r5,r2
     740:	00c04984 	movi	r3,294
     744:	10c00015 	stw	r3,0(r2)
     748:	00800174 	movhi	r2,5
     74c:	10bef604 	addi	r2,r2,-1064
     750:	01fffef4 	movhi	r7,65531
     754:	39c0f304 	addi	r7,r7,972
     758:	3f0f883a 	add	r7,r7,fp
     75c:	3885883a 	add	r2,r7,r2
     760:	10000115 	stw	zero,4(r2)
     764:	00800174 	movhi	r2,5
     768:	10bef804 	addi	r2,r2,-1056
     76c:	00fffef4 	movhi	r3,65531
     770:	18c0f304 	addi	r3,r3,972
     774:	1f07883a 	add	r3,r3,fp
     778:	1885883a 	add	r2,r3,r2
     77c:	00c04fc4 	movi	r3,319
     780:	10c00015 	stw	r3,0(r2)
     784:	00800174 	movhi	r2,5
     788:	10bef804 	addi	r2,r2,-1056
     78c:	013ffef4 	movhi	r4,65531
     790:	2100f304 	addi	r4,r4,972
     794:	2709883a 	add	r4,r4,fp
     798:	2085883a 	add	r2,r4,r2
     79c:	00c00484 	movi	r3,18
     7a0:	10c00115 	stw	r3,4(r2)
     7a4:	00800174 	movhi	r2,5
     7a8:	10befa04 	addi	r2,r2,-1048
     7ac:	017ffef4 	movhi	r5,65531
     7b0:	2940f304 	addi	r5,r5,972
     7b4:	2f0b883a 	add	r5,r5,fp
     7b8:	2885883a 	add	r2,r5,r2
     7bc:	00c04984 	movi	r3,294
     7c0:	10c00015 	stw	r3,0(r2)
     7c4:	00800174 	movhi	r2,5
     7c8:	10befa04 	addi	r2,r2,-1048
     7cc:	01fffef4 	movhi	r7,65531
     7d0:	39c0f304 	addi	r7,r7,972
     7d4:	3f0f883a 	add	r7,r7,fp
     7d8:	3885883a 	add	r2,r7,r2
     7dc:	00c00484 	movi	r3,18
     7e0:	10c00115 	stw	r3,4(r2)
     7e4:	00800174 	movhi	r2,5
     7e8:	10befc04 	addi	r2,r2,-1040
     7ec:	00fffef4 	movhi	r3,65531
     7f0:	18c0f304 	addi	r3,r3,972
     7f4:	1f07883a 	add	r3,r3,fp
     7f8:	1885883a 	add	r2,r3,r2
     7fc:	00c04fc4 	movi	r3,319
     800:	10c00015 	stw	r3,0(r2)
     804:	00800174 	movhi	r2,5
     808:	10befc04 	addi	r2,r2,-1040
     80c:	013ffef4 	movhi	r4,65531
     810:	2100f304 	addi	r4,r4,972
     814:	2709883a 	add	r4,r4,fp
     818:	2085883a 	add	r2,r4,r2
     81c:	00c00904 	movi	r3,36
     820:	10c00115 	stw	r3,4(r2)
     824:	00800174 	movhi	r2,5
     828:	10befe04 	addi	r2,r2,-1032
     82c:	017ffef4 	movhi	r5,65531
     830:	2940f304 	addi	r5,r5,972
     834:	2f0b883a 	add	r5,r5,fp
     838:	2885883a 	add	r2,r5,r2
     83c:	10000015 	stw	zero,0(r2)
     840:	10000115 	stw	zero,4(r2)
     844:	00800174 	movhi	r2,5
     848:	10bf0004 	addi	r2,r2,-1024
     84c:	01fffef4 	movhi	r7,65531
     850:	39c0f304 	addi	r7,r7,972
     854:	3f0f883a 	add	r7,r7,fp
     858:	3885883a 	add	r2,r7,r2
     85c:	10000015 	stw	zero,0(r2)
     860:	10000115 	stw	zero,4(r2)
     864:	00800174 	movhi	r2,5
     868:	10bf0204 	addi	r2,r2,-1016
     86c:	00fffef4 	movhi	r3,65531
     870:	18c0f304 	addi	r3,r3,972
     874:	1f07883a 	add	r3,r3,fp
     878:	1885883a 	add	r2,r3,r2
     87c:	10000015 	stw	zero,0(r2)
     880:	10000115 	stw	zero,4(r2)
     884:	013ffef4 	movhi	r4,65531
     888:	2100f404 	addi	r4,r4,976
     88c:	2709883a 	add	r4,r4,fp
     890:	20000015 	stw	zero,0(r4)
     894:	017ffef4 	movhi	r5,65531
     898:	2940fb04 	addi	r5,r5,1004
     89c:	2f0b883a 	add	r5,r5,fp
     8a0:	28000015 	stw	zero,0(r5)
     8a4:	00801904 	movi	r2,100
     8a8:	01fffef4 	movhi	r7,65531
     8ac:	39c0fc04 	addi	r7,r7,1008
     8b0:	3f0f883a 	add	r7,r7,fp
     8b4:	38800015 	stw	r2,0(r7)
     8b8:	d0278315 	stw	zero,-25076(gp)
     8bc:	00800044 	movi	r2,1
     8c0:	d0a77a15 	stw	r2,-25112(gp)
     8c4:	00800044 	movi	r2,1
     8c8:	d0a00315 	stw	r2,-32756(gp)
     8cc:	00800174 	movhi	r2,5
     8d0:	10bf0404 	addi	r2,r2,-1008
     8d4:	00fffef4 	movhi	r3,65531
     8d8:	18c0f304 	addi	r3,r3,972
     8dc:	1f07883a 	add	r3,r3,fp
     8e0:	1885883a 	add	r2,r3,r2
     8e4:	10000015 	stw	zero,0(r2)
     8e8:	00800174 	movhi	r2,5
     8ec:	10bf0504 	addi	r2,r2,-1004
     8f0:	013ffef4 	movhi	r4,65531
     8f4:	2100f304 	addi	r4,r4,972
     8f8:	2709883a 	add	r4,r4,fp
     8fc:	2087883a 	add	r3,r4,r2
     900:	00804034 	movhi	r2,256
     904:	10bfffc4 	addi	r2,r2,-1
     908:	18800015 	stw	r2,0(r3)
     90c:	00800174 	movhi	r2,5
     910:	10bf0604 	addi	r2,r2,-1000
     914:	017ffef4 	movhi	r5,65531
     918:	2940f304 	addi	r5,r5,972
     91c:	2f0b883a 	add	r5,r5,fp
     920:	2885883a 	add	r2,r5,r2
     924:	00c03ff4 	movhi	r3,255
     928:	10c00015 	stw	r3,0(r2)
     92c:	00800174 	movhi	r2,5
     930:	10bf0704 	addi	r2,r2,-996
     934:	01fffef4 	movhi	r7,65531
     938:	39c0f304 	addi	r7,r7,972
     93c:	3f0f883a 	add	r7,r7,fp
     940:	3885883a 	add	r2,r7,r2
     944:	00ffc014 	movui	r3,65280
     948:	10c00015 	stw	r3,0(r2)
     94c:	00800174 	movhi	r2,5
     950:	10bf0804 	addi	r2,r2,-992
     954:	00fffef4 	movhi	r3,65531
     958:	18c0f304 	addi	r3,r3,972
     95c:	1f07883a 	add	r3,r3,fp
     960:	1885883a 	add	r2,r3,r2
     964:	00dc7144 	movi	r3,29125
     968:	10c00015 	stw	r3,0(r2)
     96c:	d0277bc5 	stb	zero,-25105(gp)
     970:	d0277b45 	stb	zero,-25107(gp)
     974:	d0277b85 	stb	zero,-25106(gp)
     978:	d0278215 	stw	zero,-25080(gp)
     97c:	00bfffc4 	movi	r2,-1
     980:	d0a77e15 	stw	r2,-25096(gp)
     984:	d0277f85 	stb	zero,-25090(gp)
     988:	d0278805 	stb	zero,-25056(gp)
     98c:	008000c4 	movi	r2,3
     990:	d0a78015 	stw	r2,-25088(gp)
     994:	d0277b05 	stb	zero,-25108(gp)
     998:	0002a440 	call	2a44 <clearChaser>
     99c:	00800f74 	movhi	r2,61
     9a0:	10824004 	addi	r2,r2,2304
     9a4:	013ffef4 	movhi	r4,65531
     9a8:	2100fd04 	addi	r4,r4,1012
     9ac:	2709883a 	add	r4,r4,fp
     9b0:	20800015 	stw	r2,0(r4)
     9b4:	d0a78517 	ldw	r2,-25068(gp)
     9b8:	10800204 	addi	r2,r2,8
     9bc:	017ffef4 	movhi	r5,65531
     9c0:	2940fd04 	addi	r5,r5,1012
     9c4:	2f0b883a 	add	r5,r5,fp
     9c8:	28c00017 	ldw	r3,0(r5)
     9cc:	18ffffcc 	andi	r3,r3,65535
     9d0:	10c00015 	stw	r3,0(r2)
     9d4:	d0a78517 	ldw	r2,-25068(gp)
     9d8:	10800304 	addi	r2,r2,12
     9dc:	01fffef4 	movhi	r7,65531
     9e0:	39c0fd04 	addi	r7,r7,1012
     9e4:	3f0f883a 	add	r7,r7,fp
     9e8:	38c00017 	ldw	r3,0(r7)
     9ec:	1806d43a 	srli	r3,r3,16
     9f0:	10c00015 	stw	r3,0(r2)
     9f4:	00fffef4 	movhi	r3,65531
     9f8:	18c11504 	addi	r3,r3,1108
     9fc:	e0c5883a 	add	r2,fp,r3
     a00:	013ffef4 	movhi	r4,65531
     a04:	2100fe04 	addi	r4,r4,1016
     a08:	2709883a 	add	r4,r4,fp
     a0c:	20800015 	stw	r2,0(r4)
     a10:	017ffef4 	movhi	r5,65531
     a14:	2940fe04 	addi	r5,r5,1016
     a18:	2f0b883a 	add	r5,r5,fp
     a1c:	29000017 	ldw	r4,0(r5)
     a20:	00037dc0 	call	37dc <openPS2Device>
     a24:	10000226 	beq	r2,zero,a30 <main+0x574>
     a28:	00bfffc4 	movi	r2,-1
     a2c:	00080006 	br	2a30 <main+0x2574>
     a30:	01800034 	movhi	r6,0
     a34:	31940004 	addi	r6,r6,20480
     a38:	d1677c04 	addi	r5,gp,-25104
     a3c:	0009883a 	mov	r4,zero
     a40:	00054dc0 	call	54dc <alt_irq_register>
     a44:	01800034 	movhi	r6,0
     a48:	3193b504 	addi	r6,r6,20180
     a4c:	d1677c04 	addi	r5,gp,-25104
     a50:	01000184 	movi	r4,6
     a54:	00054dc0 	call	54dc <alt_irq_register>
     a58:	01800034 	movhi	r6,0
     a5c:	3180a104 	addi	r6,r6,644
     a60:	d1677c04 	addi	r5,gp,-25104
     a64:	010001c4 	movi	r4,7
     a68:	00054dc0 	call	54dc <alt_irq_register>
     a6c:	d0a78517 	ldw	r2,-25068(gp)
     a70:	10800104 	addi	r2,r2,4
     a74:	00c001c4 	movi	r3,7
     a78:	10c00015 	stw	r3,0(r2)
     a7c:	01fffef4 	movhi	r7,65531
     a80:	39c11604 	addi	r7,r7,1112
     a84:	e1c5883a 	add	r2,fp,r7
     a88:	00fffef4 	movhi	r3,65531
     a8c:	18c0ff04 	addi	r3,r3,1020
     a90:	1f07883a 	add	r3,r3,fp
     a94:	18800015 	stw	r2,0(r3)
     a98:	017ffef4 	movhi	r5,65531
     a9c:	2940ff04 	addi	r5,r5,1020
     aa0:	2f0b883a 	add	r5,r5,fp
     aa4:	29000017 	ldw	r4,0(r5)
     aa8:	00038ac0 	call	38ac <openAudioDevice>
     aac:	10000226 	beq	r2,zero,ab8 <main+0x5fc>
     ab0:	00bfffc4 	movi	r2,-1
     ab4:	0007de06 	br	2a30 <main+0x2574>
     ab8:	d0a77d17 	ldw	r2,-25100(gp)
     abc:	1009883a 	mov	r4,r2
     ac0:	0006d6c0 	call	6d6c <alt_up_audio_enable_write_interrupt>
     ac4:	01fffef4 	movhi	r7,65531
     ac8:	39c11704 	addi	r7,r7,1116
     acc:	e1c5883a 	add	r2,fp,r7
     ad0:	00fffef4 	movhi	r3,65531
     ad4:	18c10004 	addi	r3,r3,1024
     ad8:	1f07883a 	add	r3,r3,fp
     adc:	18800015 	stw	r2,0(r3)
     ae0:	017ffef4 	movhi	r5,65531
     ae4:	29410004 	addi	r5,r5,1024
     ae8:	2f0b883a 	add	r5,r5,fp
     aec:	29000017 	ldw	r4,0(r5)
     af0:	0003c080 	call	3c08 <openPixelDMA>
     af4:	10000226 	beq	r2,zero,b00 <main+0x644>
     af8:	00bfffc4 	movi	r2,-1
     afc:	0007cc06 	br	2a30 <main+0x2574>
     b00:	01fffef4 	movhi	r7,65531
     b04:	39c11704 	addi	r7,r7,1116
     b08:	3f0f883a 	add	r7,r7,fp
     b0c:	38800017 	ldw	r2,0(r7)
     b10:	1009883a 	mov	r4,r2
     b14:	0003ce80 	call	3ce8 <assignPixelBuffers>
     b18:	00fffef4 	movhi	r3,65531
     b1c:	18c11804 	addi	r3,r3,1120
     b20:	e0c5883a 	add	r2,fp,r3
     b24:	013ffef4 	movhi	r4,65531
     b28:	21010104 	addi	r4,r4,1028
     b2c:	2709883a 	add	r4,r4,fp
     b30:	20800015 	stw	r2,0(r4)
     b34:	017ffef4 	movhi	r5,65531
     b38:	29410104 	addi	r5,r5,1028
     b3c:	2f0b883a 	add	r5,r5,fp
     b40:	29000017 	ldw	r4,0(r5)
     b44:	0003c780 	call	3c78 <openCharDMA>
     b48:	10000226 	beq	r2,zero,b54 <main+0x698>
     b4c:	00bfffc4 	movi	r2,-1
     b50:	0007b706 	br	2a30 <main+0x2574>
     b54:	01fffef4 	movhi	r7,65531
     b58:	39c11804 	addi	r7,r7,1120
     b5c:	3f0f883a 	add	r7,r7,fp
     b60:	38800017 	ldw	r2,0(r7)
     b64:	1009883a 	mov	r4,r2
     b68:	0003d500 	call	3d50 <assignCharBuffers>
     b6c:	00fffef4 	movhi	r3,65531
     b70:	18c11704 	addi	r3,r3,1116
     b74:	1f07883a 	add	r3,r3,fp
     b78:	18800017 	ldw	r2,0(r3)
     b7c:	01800074 	movhi	r6,1
     b80:	31b6b704 	addi	r6,r6,-9508
     b84:	01400044 	movi	r5,1
     b88:	1009883a 	mov	r4,r2
     b8c:	0003dc40 	call	3dc4 <initSplash>
     b90:	008000b4 	movhi	r2,2
     b94:	10962604 	addi	r2,r2,22680
     b98:	013ffef4 	movhi	r4,65531
     b9c:	2100f304 	addi	r4,r4,972
     ba0:	2709883a 	add	r4,r4,fp
     ba4:	2087883a 	add	r3,r4,r2
     ba8:	017ffef4 	movhi	r5,65531
     bac:	29411904 	addi	r5,r5,1124
     bb0:	e145883a 	add	r2,fp,r5
     bb4:	180b883a 	mov	r5,r3
     bb8:	1009883a 	mov	r4,r2
     bbc:	0002e480 	call	2e48 <binRandS>
     bc0:	00800174 	movhi	r2,5
     bc4:	10b58604 	addi	r2,r2,-10728
     bc8:	01fffef4 	movhi	r7,65531
     bcc:	39c0f304 	addi	r7,r7,972
     bd0:	3f0f883a 	add	r7,r7,fp
     bd4:	3887883a 	add	r3,r7,r2
     bd8:	00800174 	movhi	r2,5
     bdc:	10ac2604 	addi	r2,r2,-20328
     be0:	013ffef4 	movhi	r4,65531
     be4:	2100f304 	addi	r4,r4,972
     be8:	2709883a 	add	r4,r4,fp
     bec:	2085883a 	add	r2,r4,r2
     bf0:	180b883a 	mov	r5,r3
     bf4:	1009883a 	mov	r4,r2
     bf8:	00030440 	call	3044 <charRandS>
     bfc:	017ffef4 	movhi	r5,65531
     c00:	29411704 	addi	r5,r5,1116
     c04:	2f0b883a 	add	r5,r5,fp
     c08:	28c00017 	ldw	r3,0(r5)
     c0c:	00800174 	movhi	r2,5
     c10:	10bf0804 	addi	r2,r2,-992
     c14:	01fffef4 	movhi	r7,65531
     c18:	39c0f304 	addi	r7,r7,972
     c1c:	3f0f883a 	add	r7,r7,fp
     c20:	388d883a 	add	r6,r7,r2
     c24:	00800174 	movhi	r2,5
     c28:	10bf0504 	addi	r2,r2,-1004
     c2c:	013ffef4 	movhi	r4,65531
     c30:	2100f304 	addi	r4,r4,972
     c34:	2709883a 	add	r4,r4,fp
     c38:	208b883a 	add	r5,r4,r2
     c3c:	00800174 	movhi	r2,5
     c40:	10bf0404 	addi	r2,r2,-1008
     c44:	01fffef4 	movhi	r7,65531
     c48:	39c0f304 	addi	r7,r7,972
     c4c:	3f0f883a 	add	r7,r7,fp
     c50:	3889883a 	add	r4,r7,r2
     c54:	00800174 	movhi	r2,5
     c58:	10bf0704 	addi	r2,r2,-996
     c5c:	01fffef4 	movhi	r7,65531
     c60:	39c0f304 	addi	r7,r7,972
     c64:	3f0f883a 	add	r7,r7,fp
     c68:	3885883a 	add	r2,r7,r2
     c6c:	d8800115 	stw	r2,4(sp)
     c70:	00800174 	movhi	r2,5
     c74:	10bf0604 	addi	r2,r2,-1000
     c78:	01fffef4 	movhi	r7,65531
     c7c:	39c0f304 	addi	r7,r7,972
     c80:	3f0f883a 	add	r7,r7,fp
     c84:	3885883a 	add	r2,r7,r2
     c88:	d8800015 	stw	r2,0(sp)
     c8c:	300f883a 	mov	r7,r6
     c90:	280d883a 	mov	r6,r5
     c94:	200b883a 	mov	r5,r4
     c98:	1809883a 	mov	r4,r3
     c9c:	00039340 	call	3934 <resampleColours>
     ca0:	00bffef4 	movhi	r2,65531
     ca4:	10811704 	addi	r2,r2,1116
     ca8:	1705883a 	add	r2,r2,fp
     cac:	10c00017 	ldw	r3,0(r2)
     cb0:	00800174 	movhi	r2,5
     cb4:	10bf0604 	addi	r2,r2,-1000
     cb8:	013ffef4 	movhi	r4,65531
     cbc:	2100f304 	addi	r4,r4,972
     cc0:	2709883a 	add	r4,r4,fp
     cc4:	2085883a 	add	r2,r4,r2
     cc8:	11000017 	ldw	r4,0(r2)
     ccc:	00800174 	movhi	r2,5
     cd0:	10bf0004 	addi	r2,r2,-1024
     cd4:	017ffef4 	movhi	r5,65531
     cd8:	2940f304 	addi	r5,r5,972
     cdc:	2f0b883a 	add	r5,r5,fp
     ce0:	288d883a 	add	r6,r5,r2
     ce4:	00800174 	movhi	r2,5
     ce8:	10befe04 	addi	r2,r2,-1032
     cec:	01fffef4 	movhi	r7,65531
     cf0:	39c0f304 	addi	r7,r7,972
     cf4:	3f0f883a 	add	r7,r7,fp
     cf8:	388b883a 	add	r5,r7,r2
     cfc:	00800044 	movi	r2,1
     d00:	d8800115 	stw	r2,4(sp)
     d04:	00800174 	movhi	r2,5
     d08:	10bf0204 	addi	r2,r2,-1016
     d0c:	01fffef4 	movhi	r7,65531
     d10:	39c0f304 	addi	r7,r7,972
     d14:	3f0f883a 	add	r7,r7,fp
     d18:	3885883a 	add	r2,r7,r2
     d1c:	d8800015 	stw	r2,0(sp)
     d20:	300f883a 	mov	r7,r6
     d24:	280d883a 	mov	r6,r5
     d28:	200b883a 	mov	r5,r4
     d2c:	1809883a 	mov	r4,r3
     d30:	0003e300 	call	3e30 <initMouse>
     d34:	00bffef4 	movhi	r2,65531
     d38:	1080f404 	addi	r2,r2,976
     d3c:	1705883a 	add	r2,r2,fp
     d40:	11000017 	ldw	r4,0(r2)
     d44:	0002ac80 	call	2ac8 <dispScore>
     d48:	00fffef4 	movhi	r3,65531
     d4c:	18c0f504 	addi	r3,r3,980
     d50:	1f07883a 	add	r3,r3,fp
     d54:	18000015 	stw	zero,0(r3)
     d58:	00800174 	movhi	r2,5
     d5c:	10bf0904 	addi	r2,r2,-988
     d60:	013ffef4 	movhi	r4,65531
     d64:	2100f304 	addi	r4,r4,972
     d68:	2709883a 	add	r4,r4,fp
     d6c:	2085883a 	add	r2,r4,r2
     d70:	00d09c34 	movhi	r3,17008
     d74:	10c00015 	stw	r3,0(r2)
     d78:	00800174 	movhi	r2,5
     d7c:	10bf0904 	addi	r2,r2,-988
     d80:	017ffef4 	movhi	r5,65531
     d84:	2940f304 	addi	r5,r5,972
     d88:	2f0b883a 	add	r5,r5,fp
     d8c:	2885883a 	add	r2,r5,r2
     d90:	00d09c34 	movhi	r3,17008
     d94:	10c00115 	stw	r3,4(r2)
     d98:	00800174 	movhi	r2,5
     d9c:	10bf0904 	addi	r2,r2,-988
     da0:	01fffef4 	movhi	r7,65531
     da4:	39c0f304 	addi	r7,r7,972
     da8:	3f0f883a 	add	r7,r7,fp
     dac:	3885883a 	add	r2,r7,r2
     db0:	00d09234 	movhi	r3,16968
     db4:	10c00215 	stw	r3,8(r2)
     db8:	00800174 	movhi	r2,5
     dbc:	10bf0904 	addi	r2,r2,-988
     dc0:	00fffef4 	movhi	r3,65531
     dc4:	18c0f304 	addi	r3,r3,972
     dc8:	1f07883a 	add	r3,r3,fp
     dcc:	1885883a 	add	r2,r3,r2
     dd0:	00d09234 	movhi	r3,16968
     dd4:	10c00315 	stw	r3,12(r2)
     dd8:	013ffef4 	movhi	r4,65531
     ddc:	2100f604 	addi	r4,r4,984
     de0:	2709883a 	add	r4,r4,fp
     de4:	20000005 	stb	zero,0(r4)
     de8:	008f9374 	movhi	r2,15949
     dec:	10b33344 	addi	r2,r2,-13107
     df0:	017ffef4 	movhi	r5,65531
     df4:	29410204 	addi	r5,r5,1032
     df8:	2f0b883a 	add	r5,r5,fp
     dfc:	28800015 	stw	r2,0(r5)
     e00:	00800374 	movhi	r2,13
     e04:	10b51204 	addi	r2,r2,-11192
     e08:	00c00244 	movi	r3,9
     e0c:	10c01715 	stw	r3,92(r2)
     e10:	00800174 	movhi	r2,5
     e14:	10bf0904 	addi	r2,r2,-988
     e18:	01fffef4 	movhi	r7,65531
     e1c:	39c0f304 	addi	r7,r7,972
     e20:	3f0f883a 	add	r7,r7,fp
     e24:	3885883a 	add	r2,r7,r2
     e28:	10c00017 	ldw	r3,0(r2)
     e2c:	00800374 	movhi	r2,13
     e30:	10b51204 	addi	r2,r2,-11192
     e34:	10c00d15 	stw	r3,52(r2)
     e38:	00800174 	movhi	r2,5
     e3c:	10bf0904 	addi	r2,r2,-988
     e40:	00fffef4 	movhi	r3,65531
     e44:	18c0f304 	addi	r3,r3,972
     e48:	1f07883a 	add	r3,r3,fp
     e4c:	1885883a 	add	r2,r3,r2
     e50:	10c00217 	ldw	r3,8(r2)
     e54:	00800374 	movhi	r2,13
     e58:	10b51204 	addi	r2,r2,-11192
     e5c:	10c00e15 	stw	r3,56(r2)
     e60:	00800374 	movhi	r2,13
     e64:	10b51204 	addi	r2,r2,-11192
     e68:	10001215 	stw	zero,72(r2)
     e6c:	00800374 	movhi	r2,13
     e70:	10b51204 	addi	r2,r2,-11192
     e74:	00d04834 	movhi	r3,16672
     e78:	10c01315 	stw	r3,76(r2)
     e7c:	00800174 	movhi	r2,5
     e80:	10bf0904 	addi	r2,r2,-988
     e84:	013ffef4 	movhi	r4,65531
     e88:	2100f304 	addi	r4,r4,972
     e8c:	2709883a 	add	r4,r4,fp
     e90:	2085883a 	add	r2,r4,r2
     e94:	10c00117 	ldw	r3,4(r2)
     e98:	00800374 	movhi	r2,13
     e9c:	10b51204 	addi	r2,r2,-11192
     ea0:	10c00f15 	stw	r3,60(r2)
     ea4:	00800174 	movhi	r2,5
     ea8:	10bf0904 	addi	r2,r2,-988
     eac:	017ffef4 	movhi	r5,65531
     eb0:	2940f304 	addi	r5,r5,972
     eb4:	2f0b883a 	add	r5,r5,fp
     eb8:	2885883a 	add	r2,r5,r2
     ebc:	10c00317 	ldw	r3,12(r2)
     ec0:	00800374 	movhi	r2,13
     ec4:	10b51204 	addi	r2,r2,-11192
     ec8:	10c01015 	stw	r3,64(r2)
     ecc:	00800374 	movhi	r2,13
     ed0:	10b51204 	addi	r2,r2,-11192
     ed4:	10001115 	stw	zero,68(r2)
     ed8:	00800174 	movhi	r2,5
     edc:	10bf0704 	addi	r2,r2,-996
     ee0:	01fffef4 	movhi	r7,65531
     ee4:	39c0f304 	addi	r7,r7,972
     ee8:	3f0f883a 	add	r7,r7,fp
     eec:	3885883a 	add	r2,r7,r2
     ef0:	10c00017 	ldw	r3,0(r2)
     ef4:	00800374 	movhi	r2,13
     ef8:	10b51204 	addi	r2,r2,-11192
     efc:	10c01915 	stw	r3,100(r2)
     f00:	d0a77517 	ldw	r2,-25132(gp)
     f04:	10800044 	addi	r2,r2,1
     f08:	d0a77515 	stw	r2,-25132(gp)
     f0c:	00bffef4 	movhi	r2,65531
     f10:	1080f644 	addi	r2,r2,985
     f14:	1705883a 	add	r2,r2,fp
     f18:	10000005 	stb	zero,0(r2)
     f1c:	00fffef4 	movhi	r3,65531
     f20:	18c0f704 	addi	r3,r3,988
     f24:	1f07883a 	add	r3,r3,fp
     f28:	18000015 	stw	zero,0(r3)
     f2c:	013ffef4 	movhi	r4,65531
     f30:	2100f804 	addi	r4,r4,992
     f34:	2709883a 	add	r4,r4,fp
     f38:	20000005 	stb	zero,0(r4)
     f3c:	017ffef4 	movhi	r5,65531
     f40:	2940f844 	addi	r5,r5,993
     f44:	2f0b883a 	add	r5,r5,fp
     f48:	28000005 	stb	zero,0(r5)
     f4c:	01fffef4 	movhi	r7,65531
     f50:	39c0f884 	addi	r7,r7,994
     f54:	3f0f883a 	add	r7,r7,fp
     f58:	38000005 	stb	zero,0(r7)
     f5c:	00bffef4 	movhi	r2,65531
     f60:	1080f8c4 	addi	r2,r2,995
     f64:	1705883a 	add	r2,r2,fp
     f68:	10000005 	stb	zero,0(r2)
     f6c:	00fffef4 	movhi	r3,65531
     f70:	18c11704 	addi	r3,r3,1116
     f74:	1f07883a 	add	r3,r3,fp
     f78:	18800017 	ldw	r2,0(r3)
     f7c:	1009883a 	mov	r4,r2
     f80:	0007bd40 	call	7bd4 <alt_up_video_dma_ctrl_check_swap_status>
     f84:	103ff91e 	bne	r2,zero,f6c <__alt_mem_VGA_Subsystem_Char_Buf_Subsystem_Onchip_SRAM+0xf7000f6c>
     f88:	013ffef4 	movhi	r4,65531
     f8c:	2100f304 	addi	r4,r4,972
     f90:	2709883a 	add	r4,r4,fp
     f94:	20800003 	ldbu	r2,0(r4)
     f98:	1000051e 	bne	r2,zero,fb0 <main+0xaf4>
     f9c:	017ffef4 	movhi	r5,65531
     fa0:	2940f384 	addi	r5,r5,974
     fa4:	2f0b883a 	add	r5,r5,fp
     fa8:	28800003 	ldbu	r2,0(r5)
     fac:	10007d26 	beq	r2,zero,11a4 <main+0xce8>
     fb0:	01fffef4 	movhi	r7,65531
     fb4:	39c0f304 	addi	r7,r7,972
     fb8:	3f0f883a 	add	r7,r7,fp
     fbc:	38800003 	ldbu	r2,0(r7)
     fc0:	10007026 	beq	r2,zero,1184 <main+0xcc8>
     fc4:	00fffef4 	movhi	r3,65531
     fc8:	18c11704 	addi	r3,r3,1116
     fcc:	1f07883a 	add	r3,r3,fp
     fd0:	18800017 	ldw	r2,0(r3)
     fd4:	01400044 	movi	r5,1
     fd8:	1009883a 	mov	r4,r2
     fdc:	00086c00 	call	86c0 <alt_up_video_dma_screen_clear>
     fe0:	013ffef4 	movhi	r4,65531
     fe4:	21011704 	addi	r4,r4,1116
     fe8:	2709883a 	add	r4,r4,fp
     fec:	20c00017 	ldw	r3,0(r4)
     ff0:	00800174 	movhi	r2,5
     ff4:	10bf0604 	addi	r2,r2,-1000
     ff8:	017ffef4 	movhi	r5,65531
     ffc:	2940f304 	addi	r5,r5,972
    1000:	2f0b883a 	add	r5,r5,fp
    1004:	2885883a 	add	r2,r5,r2
    1008:	10800017 	ldw	r2,0(r2)
    100c:	1009883a 	mov	r4,r2
    1010:	00800044 	movi	r2,1
    1014:	d8800315 	stw	r2,12(sp)
    1018:	00800044 	movi	r2,1
    101c:	d8800215 	stw	r2,8(sp)
    1020:	00800484 	movi	r2,18
    1024:	d8800115 	stw	r2,4(sp)
    1028:	00804fc4 	movi	r2,319
    102c:	d8800015 	stw	r2,0(sp)
    1030:	000f883a 	mov	r7,zero
    1034:	01804984 	movi	r6,294
    1038:	200b883a 	mov	r5,r4
    103c:	1809883a 	mov	r4,r3
    1040:	0007ec40 	call	7ec4 <alt_up_video_dma_draw_box>
    1044:	01fffef4 	movhi	r7,65531
    1048:	39c11704 	addi	r7,r7,1116
    104c:	3f0f883a 	add	r7,r7,fp
    1050:	38c00017 	ldw	r3,0(r7)
    1054:	00800174 	movhi	r2,5
    1058:	10bf0604 	addi	r2,r2,-1000
    105c:	013ffef4 	movhi	r4,65531
    1060:	2100f304 	addi	r4,r4,972
    1064:	2709883a 	add	r4,r4,fp
    1068:	2085883a 	add	r2,r4,r2
    106c:	10800017 	ldw	r2,0(r2)
    1070:	1009883a 	mov	r4,r2
    1074:	d8000315 	stw	zero,12(sp)
    1078:	00800044 	movi	r2,1
    107c:	d8800215 	stw	r2,8(sp)
    1080:	00803c04 	movi	r2,240
    1084:	d8800115 	stw	r2,4(sp)
    1088:	00804fc4 	movi	r2,319
    108c:	d8800015 	stw	r2,0(sp)
    1090:	01c03204 	movi	r7,200
    1094:	01804604 	movi	r6,280
    1098:	200b883a 	mov	r5,r4
    109c:	1809883a 	mov	r4,r3
    10a0:	0007ec40 	call	7ec4 <alt_up_video_dma_draw_box>
    10a4:	017ffef4 	movhi	r5,65531
    10a8:	29411704 	addi	r5,r5,1116
    10ac:	2f0b883a 	add	r5,r5,fp
    10b0:	28c00017 	ldw	r3,0(r5)
    10b4:	00800174 	movhi	r2,5
    10b8:	10bf0704 	addi	r2,r2,-996
    10bc:	01fffef4 	movhi	r7,65531
    10c0:	39c0f304 	addi	r7,r7,972
    10c4:	3f0f883a 	add	r7,r7,fp
    10c8:	3885883a 	add	r2,r7,r2
    10cc:	10800017 	ldw	r2,0(r2)
    10d0:	1009883a 	mov	r4,r2
    10d4:	d8000315 	stw	zero,12(sp)
    10d8:	00800044 	movi	r2,1
    10dc:	d8800215 	stw	r2,8(sp)
    10e0:	00800784 	movi	r2,30
    10e4:	d8800115 	stw	r2,4(sp)
    10e8:	00802d04 	movi	r2,180
    10ec:	d8800015 	stw	r2,0(sp)
    10f0:	01c00284 	movi	r7,10
    10f4:	000d883a 	mov	r6,zero
    10f8:	200b883a 	mov	r5,r4
    10fc:	1809883a 	mov	r4,r3
    1100:	0007ec40 	call	7ec4 <alt_up_video_dma_draw_box>
    1104:	00fffef4 	movhi	r3,65531
    1108:	18c0f504 	addi	r3,r3,980
    110c:	1f07883a 	add	r3,r3,fp
    1110:	18800017 	ldw	r2,0(r3)
    1114:	10800098 	cmpnei	r2,r2,2
    1118:	1000391e 	bne	r2,zero,1200 <main+0xd44>
    111c:	013ffef4 	movhi	r4,65531
    1120:	21011704 	addi	r4,r4,1116
    1124:	2709883a 	add	r4,r4,fp
    1128:	20c00017 	ldw	r3,0(r4)
    112c:	00800174 	movhi	r2,5
    1130:	10bf0704 	addi	r2,r2,-996
    1134:	017ffef4 	movhi	r5,65531
    1138:	2940f304 	addi	r5,r5,972
    113c:	2f0b883a 	add	r5,r5,fp
    1140:	2885883a 	add	r2,r5,r2
    1144:	10800017 	ldw	r2,0(r2)
    1148:	1009883a 	mov	r4,r2
    114c:	00800044 	movi	r2,1
    1150:	d8800315 	stw	r2,12(sp)
    1154:	00800044 	movi	r2,1
    1158:	d8800215 	stw	r2,8(sp)
    115c:	00800904 	movi	r2,36
    1160:	d8800115 	stw	r2,4(sp)
    1164:	00804fc4 	movi	r2,319
    1168:	d8800015 	stw	r2,0(sp)
    116c:	01c00484 	movi	r7,18
    1170:	01804984 	movi	r6,294
    1174:	200b883a 	mov	r5,r4
    1178:	1809883a 	mov	r4,r3
    117c:	0007ec40 	call	7ec4 <alt_up_video_dma_draw_box>
    1180:	00001f06 	br	1200 <main+0xd44>
    1184:	01fffef4 	movhi	r7,65531
    1188:	39c11704 	addi	r7,r7,1116
    118c:	3f0f883a 	add	r7,r7,fp
    1190:	38800017 	ldw	r2,0(r7)
    1194:	01400044 	movi	r5,1
    1198:	1009883a 	mov	r4,r2
    119c:	00086c00 	call	86c0 <alt_up_video_dma_screen_clear>
    11a0:	00001706 	br	1200 <main+0xd44>
    11a4:	00fffef4 	movhi	r3,65531
    11a8:	18c0f344 	addi	r3,r3,973
    11ac:	1f07883a 	add	r3,r3,fp
    11b0:	18800003 	ldbu	r2,0(r3)
    11b4:	10001326 	beq	r2,zero,1204 <main+0xd48>
    11b8:	017ffef4 	movhi	r5,65531
    11bc:	29411704 	addi	r5,r5,1116
    11c0:	2f0b883a 	add	r5,r5,fp
    11c4:	29000017 	ldw	r4,0(r5)
    11c8:	00800174 	movhi	r2,5
    11cc:	10bf0204 	addi	r2,r2,-1016
    11d0:	01fffef4 	movhi	r7,65531
    11d4:	39c0f304 	addi	r7,r7,972
    11d8:	3f0f883a 	add	r7,r7,fp
    11dc:	3885883a 	add	r2,r7,r2
    11e0:	00c00044 	movi	r3,1
    11e4:	d8c00015 	stw	r3,0(sp)
    11e8:	01c00074 	movhi	r7,1
    11ec:	39f6b704 	addi	r7,r7,-9508
    11f0:	11400017 	ldw	r5,0(r2)
    11f4:	11800117 	ldw	r6,4(r2)
    11f8:	00034980 	call	3498 <restoreSplash>
    11fc:	00000106 	br	1204 <main+0xd48>
    1200:	0001883a 	nop
    1204:	d0a77b03 	ldbu	r2,-25108(gp)
    1208:	10803fcc 	andi	r2,r2,255
    120c:	10002126 	beq	r2,zero,1294 <main+0xdd8>
    1210:	d0277b05 	stb	zero,-25108(gp)
    1214:	00bffef4 	movhi	r2,65531
    1218:	10811504 	addi	r2,r2,1108
    121c:	1705883a 	add	r2,r2,fp
    1220:	10c00017 	ldw	r3,0(r2)
    1224:	017ffef4 	movhi	r5,65531
    1228:	29411704 	addi	r5,r5,1116
    122c:	2f0b883a 	add	r5,r5,fp
    1230:	29000017 	ldw	r4,0(r5)
    1234:	00800174 	movhi	r2,5
    1238:	10bf0004 	addi	r2,r2,-1024
    123c:	01fffef4 	movhi	r7,65531
    1240:	39c0f304 	addi	r7,r7,972
    1244:	3f0f883a 	add	r7,r7,fp
    1248:	388d883a 	add	r6,r7,r2
    124c:	00800174 	movhi	r2,5
    1250:	10befe04 	addi	r2,r2,-1032
    1254:	01fffef4 	movhi	r7,65531
    1258:	39c0f304 	addi	r7,r7,972
    125c:	3f0f883a 	add	r7,r7,fp
    1260:	388b883a 	add	r5,r7,r2
    1264:	00800174 	movhi	r2,5
    1268:	10bf0204 	addi	r2,r2,-1016
    126c:	01fffef4 	movhi	r7,65531
    1270:	39c0f304 	addi	r7,r7,972
    1274:	3f0f883a 	add	r7,r7,fp
    1278:	3885883a 	add	r2,r7,r2
    127c:	d8800015 	stw	r2,0(sp)
    1280:	300f883a 	mov	r7,r6
    1284:	280d883a 	mov	r6,r5
    1288:	200b883a 	mov	r5,r4
    128c:	1809883a 	mov	r4,r3
    1290:	000360c0 	call	360c <moveMouse>
    1294:	d0a77f83 	ldbu	r2,-25090(gp)
    1298:	10803fcc 	andi	r2,r2,255
    129c:	1003d626 	beq	r2,zero,21f8 <main+0x1d3c>
    12a0:	00fffef4 	movhi	r3,65531
    12a4:	18c0f384 	addi	r3,r3,974
    12a8:	1f07883a 	add	r3,r3,fp
    12ac:	18800003 	ldbu	r2,0(r3)
    12b0:	10004626 	beq	r2,zero,13cc <main+0xf10>
    12b4:	013ffef4 	movhi	r4,65531
    12b8:	2100f384 	addi	r4,r4,974
    12bc:	2709883a 	add	r4,r4,fp
    12c0:	20000005 	stb	zero,0(r4)
    12c4:	017ffef4 	movhi	r5,65531
    12c8:	2940f304 	addi	r5,r5,972
    12cc:	2f0b883a 	add	r5,r5,fp
    12d0:	28000005 	stb	zero,0(r5)
    12d4:	00800044 	movi	r2,1
    12d8:	01fffef4 	movhi	r7,65531
    12dc:	39c0f344 	addi	r7,r7,973
    12e0:	3f0f883a 	add	r7,r7,fp
    12e4:	38800005 	stb	r2,0(r7)
    12e8:	00bffef4 	movhi	r2,65531
    12ec:	1080f404 	addi	r2,r2,976
    12f0:	1705883a 	add	r2,r2,fp
    12f4:	11000017 	ldw	r4,0(r2)
    12f8:	0002ac80 	call	2ac8 <dispScore>
    12fc:	013ffef4 	movhi	r4,65531
    1300:	21011804 	addi	r4,r4,1120
    1304:	2709883a 	add	r4,r4,fp
    1308:	20c00017 	ldw	r3,0(r4)
    130c:	00800174 	movhi	r2,5
    1310:	10b58604 	addi	r2,r2,-10728
    1314:	017ffef4 	movhi	r5,65531
    1318:	2940f304 	addi	r5,r5,972
    131c:	2f0b883a 	add	r5,r5,fp
    1320:	2889883a 	add	r4,r5,r2
    1324:	00800174 	movhi	r2,5
    1328:	10ac2604 	addi	r2,r2,-20328
    132c:	01fffef4 	movhi	r7,65531
    1330:	39c0f304 	addi	r7,r7,972
    1334:	3f0f883a 	add	r7,r7,fp
    1338:	3885883a 	add	r2,r7,r2
    133c:	200d883a 	mov	r6,r4
    1340:	100b883a 	mov	r5,r2
    1344:	1809883a 	mov	r4,r3
    1348:	0002ca00 	call	2ca0 <charDissolveEffect>
    134c:	00fffef4 	movhi	r3,65531
    1350:	18c11704 	addi	r3,r3,1116
    1354:	1f07883a 	add	r3,r3,fp
    1358:	18800017 	ldw	r2,0(r3)
    135c:	01800074 	movhi	r6,1
    1360:	31b6b704 	addi	r6,r6,-9508
    1364:	01400044 	movi	r5,1
    1368:	1009883a 	mov	r4,r2
    136c:	0003dc40 	call	3dc4 <initSplash>
    1370:	017ffef4 	movhi	r5,65531
    1374:	29411704 	addi	r5,r5,1116
    1378:	2f0b883a 	add	r5,r5,fp
    137c:	29000017 	ldw	r4,0(r5)
    1380:	00800174 	movhi	r2,5
    1384:	10bf0704 	addi	r2,r2,-996
    1388:	01fffef4 	movhi	r7,65531
    138c:	39c0f304 	addi	r7,r7,972
    1390:	3f0f883a 	add	r7,r7,fp
    1394:	3885883a 	add	r2,r7,r2
    1398:	11400017 	ldw	r5,0(r2)
    139c:	00800174 	movhi	r2,5
    13a0:	10befe04 	addi	r2,r2,-1032
    13a4:	00fffef4 	movhi	r3,65531
    13a8:	18c0f304 	addi	r3,r3,972
    13ac:	1f07883a 	add	r3,r3,fp
    13b0:	1885883a 	add	r2,r3,r2
    13b4:	00c00044 	movi	r3,1
    13b8:	d8c00015 	stw	r3,0(sp)
    13bc:	11800017 	ldw	r6,0(r2)
    13c0:	11c00117 	ldw	r7,4(r2)
    13c4:	00034100 	call	3410 <drawCursor>
    13c8:	0004c606 	br	26e4 <main+0x2228>
    13cc:	017ffef4 	movhi	r5,65531
    13d0:	29411704 	addi	r5,r5,1116
    13d4:	2f0b883a 	add	r5,r5,fp
    13d8:	29000017 	ldw	r4,0(r5)
    13dc:	00800174 	movhi	r2,5
    13e0:	10bf0704 	addi	r2,r2,-996
    13e4:	01fffef4 	movhi	r7,65531
    13e8:	39c0f304 	addi	r7,r7,972
    13ec:	3f0f883a 	add	r7,r7,fp
    13f0:	3885883a 	add	r2,r7,r2
    13f4:	11400017 	ldw	r5,0(r2)
    13f8:	00800174 	movhi	r2,5
    13fc:	10befe04 	addi	r2,r2,-1032
    1400:	00fffef4 	movhi	r3,65531
    1404:	18c0f304 	addi	r3,r3,972
    1408:	1f07883a 	add	r3,r3,fp
    140c:	1885883a 	add	r2,r3,r2
    1410:	00c00044 	movi	r3,1
    1414:	d8c00015 	stw	r3,0(sp)
    1418:	11800017 	ldw	r6,0(r2)
    141c:	11c00117 	ldw	r7,4(r2)
    1420:	00034100 	call	3410 <drawCursor>
    1424:	013ffef4 	movhi	r4,65531
    1428:	2100f344 	addi	r4,r4,973
    142c:	2709883a 	add	r4,r4,fp
    1430:	20800003 	ldbu	r2,0(r4)
    1434:	1000d626 	beq	r2,zero,1790 <main+0x12d4>
    1438:	017ffef4 	movhi	r5,65531
    143c:	2940f504 	addi	r5,r5,980
    1440:	2f0b883a 	add	r5,r5,fp
    1444:	28800017 	ldw	r2,0(r5)
    1448:	1000d11e 	bne	r2,zero,1790 <main+0x12d4>
    144c:	00800174 	movhi	r2,5
    1450:	10bee604 	addi	r2,r2,-1128
    1454:	01fffef4 	movhi	r7,65531
    1458:	39c0f304 	addi	r7,r7,972
    145c:	3f0f883a 	add	r7,r7,fp
    1460:	3889883a 	add	r4,r7,r2
    1464:	00800174 	movhi	r2,5
    1468:	10befe04 	addi	r2,r2,-1032
    146c:	017ffef4 	movhi	r5,65531
    1470:	2940f304 	addi	r5,r5,972
    1474:	2f0b883a 	add	r5,r5,fp
    1478:	2887883a 	add	r3,r5,r2
    147c:	00800174 	movhi	r2,5
    1480:	10bee804 	addi	r2,r2,-1120
    1484:	01fffef4 	movhi	r7,65531
    1488:	39c0f304 	addi	r7,r7,972
    148c:	3f0f883a 	add	r7,r7,fp
    1490:	3885883a 	add	r2,r7,r2
    1494:	11400017 	ldw	r5,0(r2)
    1498:	d9400015 	stw	r5,0(sp)
    149c:	10800117 	ldw	r2,4(r2)
    14a0:	d8800115 	stw	r2,4(sp)
    14a4:	21800017 	ldw	r6,0(r4)
    14a8:	21c00117 	ldw	r7,4(r4)
    14ac:	19000017 	ldw	r4,0(r3)
    14b0:	19400117 	ldw	r5,4(r3)
    14b4:	0003ed00 	call	3ed0 <clickedInArea>
    14b8:	10803fcc 	andi	r2,r2,255
    14bc:	10001d1e 	bne	r2,zero,1534 <main+0x1078>
    14c0:	00800174 	movhi	r2,5
    14c4:	10beea04 	addi	r2,r2,-1112
    14c8:	00fffef4 	movhi	r3,65531
    14cc:	18c0f304 	addi	r3,r3,972
    14d0:	1f07883a 	add	r3,r3,fp
    14d4:	1889883a 	add	r4,r3,r2
    14d8:	00800174 	movhi	r2,5
    14dc:	10befe04 	addi	r2,r2,-1032
    14e0:	017ffef4 	movhi	r5,65531
    14e4:	2940f304 	addi	r5,r5,972
    14e8:	2f0b883a 	add	r5,r5,fp
    14ec:	2887883a 	add	r3,r5,r2
    14f0:	00800174 	movhi	r2,5
    14f4:	10beec04 	addi	r2,r2,-1104
    14f8:	01fffef4 	movhi	r7,65531
    14fc:	39c0f304 	addi	r7,r7,972
    1500:	3f0f883a 	add	r7,r7,fp
    1504:	3885883a 	add	r2,r7,r2
    1508:	11400017 	ldw	r5,0(r2)
    150c:	d9400015 	stw	r5,0(sp)
    1510:	10800117 	ldw	r2,4(r2)
    1514:	d8800115 	stw	r2,4(sp)
    1518:	21800017 	ldw	r6,0(r4)
    151c:	21c00117 	ldw	r7,4(r4)
    1520:	19000017 	ldw	r4,0(r3)
    1524:	19400117 	ldw	r5,4(r3)
    1528:	0003ed00 	call	3ed0 <clickedInArea>
    152c:	10803fcc 	andi	r2,r2,255
    1530:	10009726 	beq	r2,zero,1790 <main+0x12d4>
    1534:	00800174 	movhi	r2,5
    1538:	10bee604 	addi	r2,r2,-1128
    153c:	00fffef4 	movhi	r3,65531
    1540:	18c0f304 	addi	r3,r3,972
    1544:	1f07883a 	add	r3,r3,fp
    1548:	1889883a 	add	r4,r3,r2
    154c:	00800174 	movhi	r2,5
    1550:	10befe04 	addi	r2,r2,-1032
    1554:	017ffef4 	movhi	r5,65531
    1558:	2940f304 	addi	r5,r5,972
    155c:	2f0b883a 	add	r5,r5,fp
    1560:	2887883a 	add	r3,r5,r2
    1564:	00800174 	movhi	r2,5
    1568:	10bee804 	addi	r2,r2,-1120
    156c:	01fffef4 	movhi	r7,65531
    1570:	39c0f304 	addi	r7,r7,972
    1574:	3f0f883a 	add	r7,r7,fp
    1578:	3885883a 	add	r2,r7,r2
    157c:	11400017 	ldw	r5,0(r2)
    1580:	d9400015 	stw	r5,0(sp)
    1584:	10800117 	ldw	r2,4(r2)
    1588:	d8800115 	stw	r2,4(sp)
    158c:	21800017 	ldw	r6,0(r4)
    1590:	21c00117 	ldw	r7,4(r4)
    1594:	19000017 	ldw	r4,0(r3)
    1598:	19400117 	ldw	r5,4(r3)
    159c:	0003ed00 	call	3ed0 <clickedInArea>
    15a0:	10803fcc 	andi	r2,r2,255
    15a4:	10000626 	beq	r2,zero,15c0 <main+0x1104>
    15a8:	00800044 	movi	r2,1
    15ac:	00fffef4 	movhi	r3,65531
    15b0:	18c0f504 	addi	r3,r3,980
    15b4:	1f07883a 	add	r3,r3,fp
    15b8:	18800015 	stw	r2,0(r3)
    15bc:	00000806 	br	15e0 <main+0x1124>
    15c0:	00800084 	movi	r2,2
    15c4:	013ffef4 	movhi	r4,65531
    15c8:	2100f504 	addi	r4,r4,980
    15cc:	2709883a 	add	r4,r4,fp
    15d0:	20800015 	stw	r2,0(r4)
    15d4:	01000374 	movhi	r4,13
    15d8:	21351f04 	addi	r4,r4,-11140
    15dc:	0004e240 	call	4e24 <randomize_position>
    15e0:	00800044 	movi	r2,1
    15e4:	017ffef4 	movhi	r5,65531
    15e8:	2940f304 	addi	r5,r5,972
    15ec:	2f0b883a 	add	r5,r5,fp
    15f0:	28800005 	stb	r2,0(r5)
    15f4:	01fffef4 	movhi	r7,65531
    15f8:	39c0f344 	addi	r7,r7,973
    15fc:	3f0f883a 	add	r7,r7,fp
    1600:	38000005 	stb	zero,0(r7)
    1604:	00bffef4 	movhi	r2,65531
    1608:	1080f404 	addi	r2,r2,976
    160c:	1705883a 	add	r2,r2,fp
    1610:	11000017 	ldw	r4,0(r2)
    1614:	0002ac80 	call	2ac8 <dispScore>
    1618:	013ffef4 	movhi	r4,65531
    161c:	21011704 	addi	r4,r4,1116
    1620:	2709883a 	add	r4,r4,fp
    1624:	20c00017 	ldw	r3,0(r4)
    1628:	008000b4 	movhi	r2,2
    162c:	10962604 	addi	r2,r2,22680
    1630:	017ffef4 	movhi	r5,65531
    1634:	2940f304 	addi	r5,r5,972
    1638:	2f0b883a 	add	r5,r5,fp
    163c:	2889883a 	add	r4,r5,r2
    1640:	01fffef4 	movhi	r7,65531
    1644:	39c11904 	addi	r7,r7,1124
    1648:	e1c5883a 	add	r2,fp,r7
    164c:	200d883a 	mov	r6,r4
    1650:	100b883a 	mov	r5,r2
    1654:	1809883a 	mov	r4,r3
    1658:	0002bdc0 	call	2bdc <dissolveEffect>
    165c:	00bffef4 	movhi	r2,65531
    1660:	10811704 	addi	r2,r2,1116
    1664:	1705883a 	add	r2,r2,fp
    1668:	10c00017 	ldw	r3,0(r2)
    166c:	00800174 	movhi	r2,5
    1670:	10bf0604 	addi	r2,r2,-1000
    1674:	013ffef4 	movhi	r4,65531
    1678:	2100f304 	addi	r4,r4,972
    167c:	2709883a 	add	r4,r4,fp
    1680:	2085883a 	add	r2,r4,r2
    1684:	10800017 	ldw	r2,0(r2)
    1688:	1009883a 	mov	r4,r2
    168c:	00800044 	movi	r2,1
    1690:	d8800315 	stw	r2,12(sp)
    1694:	d8000215 	stw	zero,8(sp)
    1698:	00800484 	movi	r2,18
    169c:	d8800115 	stw	r2,4(sp)
    16a0:	00804fc4 	movi	r2,319
    16a4:	d8800015 	stw	r2,0(sp)
    16a8:	000f883a 	mov	r7,zero
    16ac:	01804984 	movi	r6,294
    16b0:	200b883a 	mov	r5,r4
    16b4:	1809883a 	mov	r4,r3
    16b8:	0007ec40 	call	7ec4 <alt_up_video_dma_draw_box>
    16bc:	017ffef4 	movhi	r5,65531
    16c0:	29411804 	addi	r5,r5,1120
    16c4:	2f0b883a 	add	r5,r5,fp
    16c8:	28800017 	ldw	r2,0(r5)
    16cc:	d8000015 	stw	zero,0(sp)
    16d0:	01c00084 	movi	r7,2
    16d4:	018012c4 	movi	r6,75
    16d8:	014001b4 	movhi	r5,6
    16dc:	2962b704 	addi	r5,r5,-29988
    16e0:	1009883a 	mov	r4,r2
    16e4:	000847c0 	call	847c <alt_up_video_dma_draw_string>
    16e8:	01fffef4 	movhi	r7,65531
    16ec:	39c0f504 	addi	r7,r7,980
    16f0:	3f0f883a 	add	r7,r7,fp
    16f4:	38800017 	ldw	r2,0(r7)
    16f8:	10800098 	cmpnei	r2,r2,2
    16fc:	1003f91e 	bne	r2,zero,26e4 <main+0x2228>
    1700:	00bffef4 	movhi	r2,65531
    1704:	10811704 	addi	r2,r2,1116
    1708:	1705883a 	add	r2,r2,fp
    170c:	10c00017 	ldw	r3,0(r2)
    1710:	00800174 	movhi	r2,5
    1714:	10bf0704 	addi	r2,r2,-996
    1718:	013ffef4 	movhi	r4,65531
    171c:	2100f304 	addi	r4,r4,972
    1720:	2709883a 	add	r4,r4,fp
    1724:	2085883a 	add	r2,r4,r2
    1728:	10800017 	ldw	r2,0(r2)
    172c:	1009883a 	mov	r4,r2
    1730:	00800044 	movi	r2,1
    1734:	d8800315 	stw	r2,12(sp)
    1738:	d8000215 	stw	zero,8(sp)
    173c:	00800904 	movi	r2,36
    1740:	d8800115 	stw	r2,4(sp)
    1744:	00804fc4 	movi	r2,319
    1748:	d8800015 	stw	r2,0(sp)
    174c:	01c00484 	movi	r7,18
    1750:	01804984 	movi	r6,294
    1754:	200b883a 	mov	r5,r4
    1758:	1809883a 	mov	r4,r3
    175c:	0007ec40 	call	7ec4 <alt_up_video_dma_draw_box>
    1760:	017ffef4 	movhi	r5,65531
    1764:	29411804 	addi	r5,r5,1120
    1768:	2f0b883a 	add	r5,r5,fp
    176c:	28800017 	ldw	r2,0(r5)
    1770:	d8000015 	stw	zero,0(sp)
    1774:	01c00184 	movi	r7,6
    1778:	018012c4 	movi	r6,75
    177c:	014001b4 	movhi	r5,6
    1780:	2962b904 	addi	r5,r5,-29980
    1784:	1009883a 	mov	r4,r2
    1788:	000847c0 	call	847c <alt_up_video_dma_draw_string>
    178c:	0003d506 	br	26e4 <main+0x2228>
    1790:	00800174 	movhi	r2,5
    1794:	10beee04 	addi	r2,r2,-1096
    1798:	01fffef4 	movhi	r7,65531
    179c:	39c0f304 	addi	r7,r7,972
    17a0:	3f0f883a 	add	r7,r7,fp
    17a4:	3889883a 	add	r4,r7,r2
    17a8:	00800174 	movhi	r2,5
    17ac:	10befe04 	addi	r2,r2,-1032
    17b0:	017ffef4 	movhi	r5,65531
    17b4:	2940f304 	addi	r5,r5,972
    17b8:	2f0b883a 	add	r5,r5,fp
    17bc:	2887883a 	add	r3,r5,r2
    17c0:	00800174 	movhi	r2,5
    17c4:	10bef004 	addi	r2,r2,-1088
    17c8:	01fffef4 	movhi	r7,65531
    17cc:	39c0f304 	addi	r7,r7,972
    17d0:	3f0f883a 	add	r7,r7,fp
    17d4:	3885883a 	add	r2,r7,r2
    17d8:	11400017 	ldw	r5,0(r2)
    17dc:	d9400015 	stw	r5,0(sp)
    17e0:	10800117 	ldw	r2,4(r2)
    17e4:	d8800115 	stw	r2,4(sp)
    17e8:	21800017 	ldw	r6,0(r4)
    17ec:	21c00117 	ldw	r7,4(r4)
    17f0:	19000017 	ldw	r4,0(r3)
    17f4:	19400117 	ldw	r5,4(r3)
    17f8:	0003ed00 	call	3ed0 <clickedInArea>
    17fc:	10803fcc 	andi	r2,r2,255
    1800:	10003026 	beq	r2,zero,18c4 <main+0x1408>
    1804:	00fffef4 	movhi	r3,65531
    1808:	18c0f504 	addi	r3,r3,980
    180c:	1f07883a 	add	r3,r3,fp
    1810:	18800017 	ldw	r2,0(r3)
    1814:	10002b1e 	bne	r2,zero,18c4 <main+0x1408>
    1818:	00800044 	movi	r2,1
    181c:	013ffef4 	movhi	r4,65531
    1820:	2100f384 	addi	r4,r4,974
    1824:	2709883a 	add	r4,r4,fp
    1828:	20800005 	stb	r2,0(r4)
    182c:	017ffef4 	movhi	r5,65531
    1830:	2940f344 	addi	r5,r5,973
    1834:	2f0b883a 	add	r5,r5,fp
    1838:	28000005 	stb	zero,0(r5)
    183c:	01fffef4 	movhi	r7,65531
    1840:	39c0f404 	addi	r7,r7,976
    1844:	3f0f883a 	add	r7,r7,fp
    1848:	39000017 	ldw	r4,0(r7)
    184c:	0002ac80 	call	2ac8 <dispScore>
    1850:	00bffef4 	movhi	r2,65531
    1854:	10811704 	addi	r2,r2,1116
    1858:	1705883a 	add	r2,r2,fp
    185c:	10c00017 	ldw	r3,0(r2)
    1860:	008000b4 	movhi	r2,2
    1864:	10962604 	addi	r2,r2,22680
    1868:	017ffef4 	movhi	r5,65531
    186c:	2940f304 	addi	r5,r5,972
    1870:	2f0b883a 	add	r5,r5,fp
    1874:	2889883a 	add	r4,r5,r2
    1878:	01fffef4 	movhi	r7,65531
    187c:	39c11904 	addi	r7,r7,1124
    1880:	e1c5883a 	add	r2,fp,r7
    1884:	200d883a 	mov	r6,r4
    1888:	100b883a 	mov	r5,r2
    188c:	1809883a 	mov	r4,r3
    1890:	0002bdc0 	call	2bdc <dissolveEffect>
    1894:	00fffef4 	movhi	r3,65531
    1898:	18c11704 	addi	r3,r3,1116
    189c:	1f07883a 	add	r3,r3,fp
    18a0:	18800017 	ldw	r2,0(r3)
    18a4:	013ffef4 	movhi	r4,65531
    18a8:	21011804 	addi	r4,r4,1120
    18ac:	2709883a 	add	r4,r4,fp
    18b0:	20c00017 	ldw	r3,0(r4)
    18b4:	180b883a 	mov	r5,r3
    18b8:	1009883a 	mov	r4,r2
    18bc:	0003f380 	call	3f38 <displayInstructionsScreen>
    18c0:	00038806 	br	26e4 <main+0x2228>
    18c4:	00800174 	movhi	r2,5
    18c8:	10bef204 	addi	r2,r2,-1080
    18cc:	017ffef4 	movhi	r5,65531
    18d0:	2940f304 	addi	r5,r5,972
    18d4:	2f0b883a 	add	r5,r5,fp
    18d8:	2889883a 	add	r4,r5,r2
    18dc:	00800174 	movhi	r2,5
    18e0:	10befe04 	addi	r2,r2,-1032
    18e4:	01fffef4 	movhi	r7,65531
    18e8:	39c0f304 	addi	r7,r7,972
    18ec:	3f0f883a 	add	r7,r7,fp
    18f0:	3887883a 	add	r3,r7,r2
    18f4:	00800174 	movhi	r2,5
    18f8:	10bef404 	addi	r2,r2,-1072
    18fc:	017ffef4 	movhi	r5,65531
    1900:	2940f304 	addi	r5,r5,972
    1904:	2f0b883a 	add	r5,r5,fp
    1908:	2885883a 	add	r2,r5,r2
    190c:	11400017 	ldw	r5,0(r2)
    1910:	d9400015 	stw	r5,0(sp)
    1914:	10800117 	ldw	r2,4(r2)
    1918:	d8800115 	stw	r2,4(sp)
    191c:	21800017 	ldw	r6,0(r4)
    1920:	21c00117 	ldw	r7,4(r4)
    1924:	19000017 	ldw	r4,0(r3)
    1928:	19400117 	ldw	r5,4(r3)
    192c:	0003ed00 	call	3ed0 <clickedInArea>
    1930:	10803fcc 	andi	r2,r2,255
    1934:	1000c626 	beq	r2,zero,1c50 <main+0x1794>
    1938:	01fffef4 	movhi	r7,65531
    193c:	39c0f504 	addi	r7,r7,980
    1940:	3f0f883a 	add	r7,r7,fp
    1944:	38800017 	ldw	r2,0(r7)
    1948:	1000c11e 	bne	r2,zero,1c50 <main+0x1794>
    194c:	00bffef4 	movhi	r2,65531
    1950:	1080f404 	addi	r2,r2,976
    1954:	1705883a 	add	r2,r2,fp
    1958:	11000017 	ldw	r4,0(r2)
    195c:	0002ac80 	call	2ac8 <dispScore>
    1960:	00fffef4 	movhi	r3,65531
    1964:	18c11704 	addi	r3,r3,1116
    1968:	1f07883a 	add	r3,r3,fp
    196c:	18800017 	ldw	r2,0(r3)
    1970:	018000f4 	movhi	r6,3
    1974:	318cb704 	addi	r6,r6,13020
    1978:	01400044 	movi	r5,1
    197c:	1009883a 	mov	r4,r2
    1980:	0003dc40 	call	3dc4 <initSplash>
    1984:	013ffef4 	movhi	r4,65531
    1988:	2100fe04 	addi	r4,r4,1016
    198c:	2709883a 	add	r4,r4,fp
    1990:	20800017 	ldw	r2,0(r4)
    1994:	10800017 	ldw	r2,0(r2)
    1998:	1009883a 	mov	r4,r2
    199c:	00076780 	call	7678 <alt_up_ps2_disable_read_interrupt>
    19a0:	d0a77d17 	ldw	r2,-25100(gp)
    19a4:	1009883a 	mov	r4,r2
    19a8:	0006dc00 	call	6dc0 <alt_up_audio_disable_write_interrupt>
    19ac:	008001c4 	movi	r2,7
    19b0:	017ffef4 	movhi	r5,65531
    19b4:	29410304 	addi	r5,r5,1036
    19b8:	2f0b883a 	add	r5,r5,fp
    19bc:	28800015 	stw	r2,0(r5)
    19c0:	0005303a 	rdctl	r2,status
    19c4:	01fffef4 	movhi	r7,65531
    19c8:	39c11204 	addi	r7,r7,1096
    19cc:	3f0f883a 	add	r7,r7,fp
    19d0:	38800015 	stw	r2,0(r7)
    19d4:	00bffef4 	movhi	r2,65531
    19d8:	10811204 	addi	r2,r2,1096
    19dc:	1705883a 	add	r2,r2,fp
    19e0:	10c00017 	ldw	r3,0(r2)
    19e4:	00bfff84 	movi	r2,-2
    19e8:	1884703a 	and	r2,r3,r2
    19ec:	1001703a 	wrctl	status,r2
    19f0:	00fffef4 	movhi	r3,65531
    19f4:	18c11204 	addi	r3,r3,1096
    19f8:	1f07883a 	add	r3,r3,fp
    19fc:	18800017 	ldw	r2,0(r3)
    1a00:	013ffef4 	movhi	r4,65531
    1a04:	21011304 	addi	r4,r4,1100
    1a08:	2709883a 	add	r4,r4,fp
    1a0c:	20800015 	stw	r2,0(r4)
    1a10:	00c00044 	movi	r3,1
    1a14:	017ffef4 	movhi	r5,65531
    1a18:	29410304 	addi	r5,r5,1036
    1a1c:	2f0b883a 	add	r5,r5,fp
    1a20:	28800017 	ldw	r2,0(r5)
    1a24:	1884983a 	sll	r2,r3,r2
    1a28:	0084303a 	nor	r2,zero,r2
    1a2c:	1007883a 	mov	r3,r2
    1a30:	d0a78a17 	ldw	r2,-25048(gp)
    1a34:	1884703a 	and	r2,r3,r2
    1a38:	d0a78a15 	stw	r2,-25048(gp)
    1a3c:	d0a78a17 	ldw	r2,-25048(gp)
    1a40:	100170fa 	wrctl	ienable,r2
    1a44:	01fffef4 	movhi	r7,65531
    1a48:	39c11304 	addi	r7,r7,1100
    1a4c:	3f0f883a 	add	r7,r7,fp
    1a50:	38800017 	ldw	r2,0(r7)
    1a54:	00fffef4 	movhi	r3,65531
    1a58:	18c11404 	addi	r3,r3,1104
    1a5c:	1f07883a 	add	r3,r3,fp
    1a60:	18800015 	stw	r2,0(r3)
    1a64:	013ffef4 	movhi	r4,65531
    1a68:	21011404 	addi	r4,r4,1104
    1a6c:	2709883a 	add	r4,r4,fp
    1a70:	20800017 	ldw	r2,0(r4)
    1a74:	1001703a 	wrctl	status,r2
    1a78:	00800184 	movi	r2,6
    1a7c:	017ffef4 	movhi	r5,65531
    1a80:	29410404 	addi	r5,r5,1040
    1a84:	2f0b883a 	add	r5,r5,fp
    1a88:	28800015 	stw	r2,0(r5)
    1a8c:	0005303a 	rdctl	r2,status
    1a90:	01fffef4 	movhi	r7,65531
    1a94:	39c10f04 	addi	r7,r7,1084
    1a98:	3f0f883a 	add	r7,r7,fp
    1a9c:	38800015 	stw	r2,0(r7)
    1aa0:	00bffef4 	movhi	r2,65531
    1aa4:	10810f04 	addi	r2,r2,1084
    1aa8:	1705883a 	add	r2,r2,fp
    1aac:	10c00017 	ldw	r3,0(r2)
    1ab0:	00bfff84 	movi	r2,-2
    1ab4:	1884703a 	and	r2,r3,r2
    1ab8:	1001703a 	wrctl	status,r2
    1abc:	00fffef4 	movhi	r3,65531
    1ac0:	18c10f04 	addi	r3,r3,1084
    1ac4:	1f07883a 	add	r3,r3,fp
    1ac8:	18800017 	ldw	r2,0(r3)
    1acc:	013ffef4 	movhi	r4,65531
    1ad0:	21011004 	addi	r4,r4,1088
    1ad4:	2709883a 	add	r4,r4,fp
    1ad8:	20800015 	stw	r2,0(r4)
    1adc:	00c00044 	movi	r3,1
    1ae0:	017ffef4 	movhi	r5,65531
    1ae4:	29410404 	addi	r5,r5,1040
    1ae8:	2f0b883a 	add	r5,r5,fp
    1aec:	28800017 	ldw	r2,0(r5)
    1af0:	1884983a 	sll	r2,r3,r2
    1af4:	0084303a 	nor	r2,zero,r2
    1af8:	1007883a 	mov	r3,r2
    1afc:	d0a78a17 	ldw	r2,-25048(gp)
    1b00:	1884703a 	and	r2,r3,r2
    1b04:	d0a78a15 	stw	r2,-25048(gp)
    1b08:	d0a78a17 	ldw	r2,-25048(gp)
    1b0c:	100170fa 	wrctl	ienable,r2
    1b10:	01fffef4 	movhi	r7,65531
    1b14:	39c11004 	addi	r7,r7,1088
    1b18:	3f0f883a 	add	r7,r7,fp
    1b1c:	38800017 	ldw	r2,0(r7)
    1b20:	00fffef4 	movhi	r3,65531
    1b24:	18c11104 	addi	r3,r3,1092
    1b28:	1f07883a 	add	r3,r3,fp
    1b2c:	18800015 	stw	r2,0(r3)
    1b30:	013ffef4 	movhi	r4,65531
    1b34:	21011104 	addi	r4,r4,1092
    1b38:	2709883a 	add	r4,r4,fp
    1b3c:	20800017 	ldw	r2,0(r4)
    1b40:	1001703a 	wrctl	status,r2
    1b44:	d0a77d17 	ldw	r2,-25100(gp)
    1b48:	1009883a 	mov	r4,r2
    1b4c:	00032380 	call	3238 <fadeBGM>
    1b50:	0002a440 	call	2a44 <clearChaser>
    1b54:	017ffef4 	movhi	r5,65531
    1b58:	29410504 	addi	r5,r5,1044
    1b5c:	2f0b883a 	add	r5,r5,fp
    1b60:	28000015 	stw	zero,0(r5)
    1b64:	0005303a 	rdctl	r2,status
    1b68:	01fffef4 	movhi	r7,65531
    1b6c:	39c10c04 	addi	r7,r7,1072
    1b70:	3f0f883a 	add	r7,r7,fp
    1b74:	38800015 	stw	r2,0(r7)
    1b78:	00bffef4 	movhi	r2,65531
    1b7c:	10810c04 	addi	r2,r2,1072
    1b80:	1705883a 	add	r2,r2,fp
    1b84:	10c00017 	ldw	r3,0(r2)
    1b88:	00bfff84 	movi	r2,-2
    1b8c:	1884703a 	and	r2,r3,r2
    1b90:	1001703a 	wrctl	status,r2
    1b94:	00fffef4 	movhi	r3,65531
    1b98:	18c10c04 	addi	r3,r3,1072
    1b9c:	1f07883a 	add	r3,r3,fp
    1ba0:	18800017 	ldw	r2,0(r3)
    1ba4:	013ffef4 	movhi	r4,65531
    1ba8:	21010d04 	addi	r4,r4,1076
    1bac:	2709883a 	add	r4,r4,fp
    1bb0:	20800015 	stw	r2,0(r4)
    1bb4:	00c00044 	movi	r3,1
    1bb8:	017ffef4 	movhi	r5,65531
    1bbc:	29410504 	addi	r5,r5,1044
    1bc0:	2f0b883a 	add	r5,r5,fp
    1bc4:	28800017 	ldw	r2,0(r5)
    1bc8:	1884983a 	sll	r2,r3,r2
    1bcc:	0084303a 	nor	r2,zero,r2
    1bd0:	1007883a 	mov	r3,r2
    1bd4:	d0a78a17 	ldw	r2,-25048(gp)
    1bd8:	1884703a 	and	r2,r3,r2
    1bdc:	d0a78a15 	stw	r2,-25048(gp)
    1be0:	d0a78a17 	ldw	r2,-25048(gp)
    1be4:	100170fa 	wrctl	ienable,r2
    1be8:	01fffef4 	movhi	r7,65531
    1bec:	39c10d04 	addi	r7,r7,1076
    1bf0:	3f0f883a 	add	r7,r7,fp
    1bf4:	38800017 	ldw	r2,0(r7)
    1bf8:	00fffef4 	movhi	r3,65531
    1bfc:	18c10e04 	addi	r3,r3,1080
    1c00:	1f07883a 	add	r3,r3,fp
    1c04:	18800015 	stw	r2,0(r3)
    1c08:	013ffef4 	movhi	r4,65531
    1c0c:	21010e04 	addi	r4,r4,1080
    1c10:	2709883a 	add	r4,r4,fp
    1c14:	20800017 	ldw	r2,0(r4)
    1c18:	1001703a 	wrctl	status,r2
    1c1c:	0005303a 	rdctl	r2,status
    1c20:	017ffef4 	movhi	r5,65531
    1c24:	29410b04 	addi	r5,r5,1068
    1c28:	2f0b883a 	add	r5,r5,fp
    1c2c:	28800015 	stw	r2,0(r5)
    1c30:	01fffef4 	movhi	r7,65531
    1c34:	39c10b04 	addi	r7,r7,1068
    1c38:	3f0f883a 	add	r7,r7,fp
    1c3c:	38c00017 	ldw	r3,0(r7)
    1c40:	00bfff84 	movi	r2,-2
    1c44:	1884703a 	and	r2,r3,r2
    1c48:	1001703a 	wrctl	status,r2
    1c4c:	003fff06 	br	1c4c <__alt_mem_VGA_Subsystem_Char_Buf_Subsystem_Onchip_SRAM+0xf7001c4c>
    1c50:	00800174 	movhi	r2,5
    1c54:	10bef604 	addi	r2,r2,-1064
    1c58:	00fffef4 	movhi	r3,65531
    1c5c:	18c0f304 	addi	r3,r3,972
    1c60:	1f07883a 	add	r3,r3,fp
    1c64:	1889883a 	add	r4,r3,r2
    1c68:	00800174 	movhi	r2,5
    1c6c:	10befe04 	addi	r2,r2,-1032
    1c70:	017ffef4 	movhi	r5,65531
    1c74:	2940f304 	addi	r5,r5,972
    1c78:	2f0b883a 	add	r5,r5,fp
    1c7c:	2887883a 	add	r3,r5,r2
    1c80:	00800174 	movhi	r2,5
    1c84:	10bef804 	addi	r2,r2,-1056
    1c88:	01fffef4 	movhi	r7,65531
    1c8c:	39c0f304 	addi	r7,r7,972
    1c90:	3f0f883a 	add	r7,r7,fp
    1c94:	3885883a 	add	r2,r7,r2
    1c98:	11400017 	ldw	r5,0(r2)
    1c9c:	d9400015 	stw	r5,0(sp)
    1ca0:	10800117 	ldw	r2,4(r2)
    1ca4:	d8800115 	stw	r2,4(sp)
    1ca8:	21800017 	ldw	r6,0(r4)
    1cac:	21c00117 	ldw	r7,4(r4)
    1cb0:	19000017 	ldw	r4,0(r3)
    1cb4:	19400117 	ldw	r5,4(r3)
    1cb8:	0003ed00 	call	3ed0 <clickedInArea>
    1cbc:	10803fcc 	andi	r2,r2,255
    1cc0:	10007326 	beq	r2,zero,1e90 <main+0x19d4>
    1cc4:	00fffef4 	movhi	r3,65531
    1cc8:	18c0f504 	addi	r3,r3,980
    1ccc:	1f07883a 	add	r3,r3,fp
    1cd0:	18800017 	ldw	r2,0(r3)
    1cd4:	10006e26 	beq	r2,zero,1e90 <main+0x19d4>
    1cd8:	013ffef4 	movhi	r4,65531
    1cdc:	2100f504 	addi	r4,r4,980
    1ce0:	2709883a 	add	r4,r4,fp
    1ce4:	20000015 	stw	zero,0(r4)
    1ce8:	017ffef4 	movhi	r5,65531
    1cec:	2940f304 	addi	r5,r5,972
    1cf0:	2f0b883a 	add	r5,r5,fp
    1cf4:	28000005 	stb	zero,0(r5)
    1cf8:	00800044 	movi	r2,1
    1cfc:	01fffef4 	movhi	r7,65531
    1d00:	39c0f344 	addi	r7,r7,973
    1d04:	3f0f883a 	add	r7,r7,fp
    1d08:	38800005 	stb	r2,0(r7)
    1d0c:	00bffef4 	movhi	r2,65531
    1d10:	1080f404 	addi	r2,r2,976
    1d14:	1705883a 	add	r2,r2,fp
    1d18:	11000017 	ldw	r4,0(r2)
    1d1c:	0002ac80 	call	2ac8 <dispScore>
    1d20:	013ffef4 	movhi	r4,65531
    1d24:	21011704 	addi	r4,r4,1116
    1d28:	2709883a 	add	r4,r4,fp
    1d2c:	20c00017 	ldw	r3,0(r4)
    1d30:	008000b4 	movhi	r2,2
    1d34:	10962604 	addi	r2,r2,22680
    1d38:	017ffef4 	movhi	r5,65531
    1d3c:	2940f304 	addi	r5,r5,972
    1d40:	2f0b883a 	add	r5,r5,fp
    1d44:	2889883a 	add	r4,r5,r2
    1d48:	01fffef4 	movhi	r7,65531
    1d4c:	39c11904 	addi	r7,r7,1124
    1d50:	e1c5883a 	add	r2,fp,r7
    1d54:	200d883a 	mov	r6,r4
    1d58:	100b883a 	mov	r5,r2
    1d5c:	1809883a 	mov	r4,r3
    1d60:	0002bdc0 	call	2bdc <dissolveEffect>
    1d64:	00fffef4 	movhi	r3,65531
    1d68:	18c11804 	addi	r3,r3,1120
    1d6c:	1f07883a 	add	r3,r3,fp
    1d70:	18800017 	ldw	r2,0(r3)
    1d74:	01400044 	movi	r5,1
    1d78:	1009883a 	mov	r4,r2
    1d7c:	00086c00 	call	86c0 <alt_up_video_dma_screen_clear>
    1d80:	013ffef4 	movhi	r4,65531
    1d84:	21011704 	addi	r4,r4,1116
    1d88:	2709883a 	add	r4,r4,fp
    1d8c:	20800017 	ldw	r2,0(r4)
    1d90:	01800074 	movhi	r6,1
    1d94:	31b6b704 	addi	r6,r6,-9508
    1d98:	01400044 	movi	r5,1
    1d9c:	1009883a 	mov	r4,r2
    1da0:	0003dc40 	call	3dc4 <initSplash>
    1da4:	017ffef4 	movhi	r5,65531
    1da8:	29411704 	addi	r5,r5,1116
    1dac:	2f0b883a 	add	r5,r5,fp
    1db0:	29000017 	ldw	r4,0(r5)
    1db4:	00800174 	movhi	r2,5
    1db8:	10bf0704 	addi	r2,r2,-996
    1dbc:	01fffef4 	movhi	r7,65531
    1dc0:	39c0f304 	addi	r7,r7,972
    1dc4:	3f0f883a 	add	r7,r7,fp
    1dc8:	3885883a 	add	r2,r7,r2
    1dcc:	11400017 	ldw	r5,0(r2)
    1dd0:	00800174 	movhi	r2,5
    1dd4:	10befe04 	addi	r2,r2,-1032
    1dd8:	00fffef4 	movhi	r3,65531
    1ddc:	18c0f304 	addi	r3,r3,972
    1de0:	1f07883a 	add	r3,r3,fp
    1de4:	1885883a 	add	r2,r3,r2
    1de8:	00c00044 	movi	r3,1
    1dec:	d8c00015 	stw	r3,0(sp)
    1df0:	11800017 	ldw	r6,0(r2)
    1df4:	11c00117 	ldw	r7,4(r2)
    1df8:	00034100 	call	3410 <drawCursor>
    1dfc:	00800174 	movhi	r2,5
    1e00:	10bf0904 	addi	r2,r2,-988
    1e04:	013ffef4 	movhi	r4,65531
    1e08:	2100f304 	addi	r4,r4,972
    1e0c:	2709883a 	add	r4,r4,fp
    1e10:	2085883a 	add	r2,r4,r2
    1e14:	100b883a 	mov	r5,r2
    1e18:	01000374 	movhi	r4,13
    1e1c:	21351f04 	addi	r4,r4,-11140
    1e20:	0004d900 	call	4d90 <reset_circles>
    1e24:	017ffef4 	movhi	r5,65531
    1e28:	2940f404 	addi	r5,r5,976
    1e2c:	2f0b883a 	add	r5,r5,fp
    1e30:	28000015 	stw	zero,0(r5)
    1e34:	01fffef4 	movhi	r7,65531
    1e38:	39c0f604 	addi	r7,r7,984
    1e3c:	3f0f883a 	add	r7,r7,fp
    1e40:	38000005 	stb	zero,0(r7)
    1e44:	00bffef4 	movhi	r2,65531
    1e48:	1080f644 	addi	r2,r2,985
    1e4c:	1705883a 	add	r2,r2,fp
    1e50:	10000005 	stb	zero,0(r2)
    1e54:	00fffef4 	movhi	r3,65531
    1e58:	18c0f704 	addi	r3,r3,988
    1e5c:	1f07883a 	add	r3,r3,fp
    1e60:	18000015 	stw	zero,0(r3)
    1e64:	00800044 	movi	r2,1
    1e68:	d0a77515 	stw	r2,-25132(gp)
    1e6c:	013ffef4 	movhi	r4,65531
    1e70:	2100f884 	addi	r4,r4,994
    1e74:	2709883a 	add	r4,r4,fp
    1e78:	20000005 	stb	zero,0(r4)
    1e7c:	017ffef4 	movhi	r5,65531
    1e80:	2940f8c4 	addi	r5,r5,995
    1e84:	2f0b883a 	add	r5,r5,fp
    1e88:	28000005 	stb	zero,0(r5)
    1e8c:	00021506 	br	26e4 <main+0x2228>
    1e90:	00800174 	movhi	r2,5
    1e94:	10befa04 	addi	r2,r2,-1048
    1e98:	01fffef4 	movhi	r7,65531
    1e9c:	39c0f304 	addi	r7,r7,972
    1ea0:	3f0f883a 	add	r7,r7,fp
    1ea4:	3889883a 	add	r4,r7,r2
    1ea8:	00800174 	movhi	r2,5
    1eac:	10befe04 	addi	r2,r2,-1032
    1eb0:	017ffef4 	movhi	r5,65531
    1eb4:	2940f304 	addi	r5,r5,972
    1eb8:	2f0b883a 	add	r5,r5,fp
    1ebc:	2887883a 	add	r3,r5,r2
    1ec0:	00800174 	movhi	r2,5
    1ec4:	10befc04 	addi	r2,r2,-1040
    1ec8:	01fffef4 	movhi	r7,65531
    1ecc:	39c0f304 	addi	r7,r7,972
    1ed0:	3f0f883a 	add	r7,r7,fp
    1ed4:	3885883a 	add	r2,r7,r2
    1ed8:	11400017 	ldw	r5,0(r2)
    1edc:	d9400015 	stw	r5,0(sp)
    1ee0:	10800117 	ldw	r2,4(r2)
    1ee4:	d8800115 	stw	r2,4(sp)
    1ee8:	21800017 	ldw	r6,0(r4)
    1eec:	21c00117 	ldw	r7,4(r4)
    1ef0:	19000017 	ldw	r4,0(r3)
    1ef4:	19400117 	ldw	r5,4(r3)
    1ef8:	0003ed00 	call	3ed0 <clickedInArea>
    1efc:	10803fcc 	andi	r2,r2,255
    1f00:	10003526 	beq	r2,zero,1fd8 <main+0x1b1c>
    1f04:	00fffef4 	movhi	r3,65531
    1f08:	18c0f504 	addi	r3,r3,980
    1f0c:	1f07883a 	add	r3,r3,fp
    1f10:	18800017 	ldw	r2,0(r3)
    1f14:	10800098 	cmpnei	r2,r2,2
    1f18:	10002f1e 	bne	r2,zero,1fd8 <main+0x1b1c>
    1f1c:	013ffef4 	movhi	r4,65531
    1f20:	2100f804 	addi	r4,r4,992
    1f24:	2709883a 	add	r4,r4,fp
    1f28:	20800003 	ldbu	r2,0(r4)
    1f2c:	1080005c 	xori	r2,r2,1
    1f30:	10803fcc 	andi	r2,r2,255
    1f34:	1001eb26 	beq	r2,zero,26e4 <main+0x2228>
    1f38:	017ffef4 	movhi	r5,65531
    1f3c:	2940f884 	addi	r5,r5,994
    1f40:	2f0b883a 	add	r5,r5,fp
    1f44:	28800003 	ldbu	r2,0(r5)
    1f48:	1004c03a 	cmpne	r2,r2,zero
    1f4c:	1080005c 	xori	r2,r2,1
    1f50:	10803fcc 	andi	r2,r2,255
    1f54:	01fffef4 	movhi	r7,65531
    1f58:	39c0f884 	addi	r7,r7,994
    1f5c:	3f0f883a 	add	r7,r7,fp
    1f60:	38800005 	stb	r2,0(r7)
    1f64:	00fffef4 	movhi	r3,65531
    1f68:	18c0f884 	addi	r3,r3,994
    1f6c:	1f07883a 	add	r3,r3,fp
    1f70:	18800003 	ldbu	r2,0(r3)
    1f74:	1080004c 	andi	r2,r2,1
    1f78:	013ffef4 	movhi	r4,65531
    1f7c:	2100f884 	addi	r4,r4,994
    1f80:	2709883a 	add	r4,r4,fp
    1f84:	20800005 	stb	r2,0(r4)
    1f88:	017ffef4 	movhi	r5,65531
    1f8c:	2940f604 	addi	r5,r5,984
    1f90:	2f0b883a 	add	r5,r5,fp
    1f94:	28000005 	stb	zero,0(r5)
    1f98:	01fffef4 	movhi	r7,65531
    1f9c:	39c0f644 	addi	r7,r7,985
    1fa0:	3f0f883a 	add	r7,r7,fp
    1fa4:	38000005 	stb	zero,0(r7)
    1fa8:	00bffef4 	movhi	r2,65531
    1fac:	1080f704 	addi	r2,r2,988
    1fb0:	1705883a 	add	r2,r2,fp
    1fb4:	10000015 	stw	zero,0(r2)
    1fb8:	00800044 	movi	r2,1
    1fbc:	d0a77515 	stw	r2,-25132(gp)
    1fc0:	00800044 	movi	r2,1
    1fc4:	00fffef4 	movhi	r3,65531
    1fc8:	18c0f804 	addi	r3,r3,992
    1fcc:	1f07883a 	add	r3,r3,fp
    1fd0:	18800005 	stb	r2,0(r3)
    1fd4:	0001c306 	br	26e4 <main+0x2228>
    1fd8:	013ffef4 	movhi	r4,65531
    1fdc:	2100f304 	addi	r4,r4,972
    1fe0:	2709883a 	add	r4,r4,fp
    1fe4:	20800003 	ldbu	r2,0(r4)
    1fe8:	1001be26 	beq	r2,zero,26e4 <main+0x2228>
    1fec:	017ffef4 	movhi	r5,65531
    1ff0:	2940f604 	addi	r5,r5,984
    1ff4:	2f0b883a 	add	r5,r5,fp
    1ff8:	28800003 	ldbu	r2,0(r5)
    1ffc:	1080005c 	xori	r2,r2,1
    2000:	10803fcc 	andi	r2,r2,255
    2004:	1001b726 	beq	r2,zero,26e4 <main+0x2228>
    2008:	01fffef4 	movhi	r7,65531
    200c:	39c0f884 	addi	r7,r7,994
    2010:	3f0f883a 	add	r7,r7,fp
    2014:	38800003 	ldbu	r2,0(r7)
    2018:	1080005c 	xori	r2,r2,1
    201c:	10803fcc 	andi	r2,r2,255
    2020:	1001b026 	beq	r2,zero,26e4 <main+0x2228>
    2024:	00bffef4 	movhi	r2,65531
    2028:	1080f844 	addi	r2,r2,993
    202c:	1705883a 	add	r2,r2,fp
    2030:	10000005 	stb	zero,0(r2)
    2034:	00800174 	movhi	r2,5
    2038:	10befe04 	addi	r2,r2,-1032
    203c:	00fffef4 	movhi	r3,65531
    2040:	18c0f304 	addi	r3,r3,972
    2044:	1f07883a 	add	r3,r3,fp
    2048:	1885883a 	add	r2,r3,r2
    204c:	10800017 	ldw	r2,0(r2)
    2050:	013ffef4 	movhi	r4,65531
    2054:	21010604 	addi	r4,r4,1048
    2058:	2709883a 	add	r4,r4,fp
    205c:	20800015 	stw	r2,0(r4)
    2060:	00800174 	movhi	r2,5
    2064:	10befe04 	addi	r2,r2,-1032
    2068:	017ffef4 	movhi	r5,65531
    206c:	2940f304 	addi	r5,r5,972
    2070:	2f0b883a 	add	r5,r5,fp
    2074:	2885883a 	add	r2,r5,r2
    2078:	10800117 	ldw	r2,4(r2)
    207c:	01fffef4 	movhi	r7,65531
    2080:	39c10704 	addi	r7,r7,1052
    2084:	3f0f883a 	add	r7,r7,fp
    2088:	38800015 	stw	r2,0(r7)
    208c:	00fffef4 	movhi	r3,65531
    2090:	18c10604 	addi	r3,r3,1048
    2094:	1f07883a 	add	r3,r3,fp
    2098:	18800017 	ldw	r2,0(r3)
    209c:	0081910e 	bge	zero,r2,26e4 <main+0x2228>
    20a0:	013ffef4 	movhi	r4,65531
    20a4:	21010604 	addi	r4,r4,1048
    20a8:	2709883a 	add	r4,r4,fp
    20ac:	20800017 	ldw	r2,0(r4)
    20b0:	10802d08 	cmpgei	r2,r2,180
    20b4:	10018b1e 	bne	r2,zero,26e4 <main+0x2228>
    20b8:	017ffef4 	movhi	r5,65531
    20bc:	29410704 	addi	r5,r5,1052
    20c0:	2f0b883a 	add	r5,r5,fp
    20c4:	28800017 	ldw	r2,0(r5)
    20c8:	108002d0 	cmplti	r2,r2,11
    20cc:	1001851e 	bne	r2,zero,26e4 <main+0x2228>
    20d0:	01fffef4 	movhi	r7,65531
    20d4:	39c10704 	addi	r7,r7,1052
    20d8:	3f0f883a 	add	r7,r7,fp
    20dc:	38800017 	ldw	r2,0(r7)
    20e0:	10800788 	cmpgei	r2,r2,30
    20e4:	10017f1e 	bne	r2,zero,26e4 <main+0x2228>
    20e8:	00fffef4 	movhi	r3,65531
    20ec:	18c10604 	addi	r3,r3,1048
    20f0:	1f07883a 	add	r3,r3,fp
    20f4:	18800017 	ldw	r2,0(r3)
    20f8:	1007feb2 	custom	250,r3,r2,zero
    20fc:	00800374 	movhi	r2,13
    2100:	10b51204 	addi	r2,r2,-11192
    2104:	10c00015 	stw	r3,0(r2)
    2108:	013ffef4 	movhi	r4,65531
    210c:	21010704 	addi	r4,r4,1052
    2110:	2709883a 	add	r4,r4,fp
    2114:	20800017 	ldw	r2,0(r4)
    2118:	1007feb2 	custom	250,r3,r2,zero
    211c:	00800374 	movhi	r2,13
    2120:	10b51204 	addi	r2,r2,-11192
    2124:	10c00115 	stw	r3,4(r2)
    2128:	017ffef4 	movhi	r5,65531
    212c:	29410604 	addi	r5,r5,1048
    2130:	2f0b883a 	add	r5,r5,fp
    2134:	28800017 	ldw	r2,0(r5)
    2138:	1007feb2 	custom	250,r3,r2,zero
    213c:	00800374 	movhi	r2,13
    2140:	10b51204 	addi	r2,r2,-11192
    2144:	10c00215 	stw	r3,8(r2)
    2148:	01fffef4 	movhi	r7,65531
    214c:	39c10704 	addi	r7,r7,1052
    2150:	3f0f883a 	add	r7,r7,fp
    2154:	38800017 	ldw	r2,0(r7)
    2158:	1007feb2 	custom	250,r3,r2,zero
    215c:	00800374 	movhi	r2,13
    2160:	10b51204 	addi	r2,r2,-11192
    2164:	10c00315 	stw	r3,12(r2)
    2168:	00800374 	movhi	r2,13
    216c:	10b51204 	addi	r2,r2,-11192
    2170:	10000515 	stw	zero,20(r2)
    2174:	00800374 	movhi	r2,13
    2178:	10b51204 	addi	r2,r2,-11192
    217c:	00d04834 	movhi	r3,16672
    2180:	10c00615 	stw	r3,24(r2)
    2184:	00800374 	movhi	r2,13
    2188:	10b51204 	addi	r2,r2,-11192
    218c:	00c00244 	movi	r3,9
    2190:	10c00a15 	stw	r3,40(r2)
    2194:	00800374 	movhi	r2,13
    2198:	10b51204 	addi	r2,r2,-11192
    219c:	10000415 	stw	zero,16(r2)
    21a0:	00800174 	movhi	r2,5
    21a4:	10bf0804 	addi	r2,r2,-992
    21a8:	00fffef4 	movhi	r3,65531
    21ac:	18c0f304 	addi	r3,r3,972
    21b0:	1f07883a 	add	r3,r3,fp
    21b4:	1885883a 	add	r2,r3,r2
    21b8:	10c00017 	ldw	r3,0(r2)
    21bc:	00800374 	movhi	r2,13
    21c0:	10b51204 	addi	r2,r2,-11192
    21c4:	10c00c15 	stw	r3,48(r2)
    21c8:	00800374 	movhi	r2,13
    21cc:	10b51204 	addi	r2,r2,-11192
    21d0:	10000905 	stb	zero,36(r2)
    21d4:	d0a77517 	ldw	r2,-25132(gp)
    21d8:	10800044 	addi	r2,r2,1
    21dc:	d0a77515 	stw	r2,-25132(gp)
    21e0:	00800044 	movi	r2,1
    21e4:	013ffef4 	movhi	r4,65531
    21e8:	2100f604 	addi	r4,r4,984
    21ec:	2709883a 	add	r4,r4,fp
    21f0:	20800005 	stb	r2,0(r4)
    21f4:	00013b06 	br	26e4 <main+0x2228>
    21f8:	d0a78803 	ldbu	r2,-25056(gp)
    21fc:	10803fcc 	andi	r2,r2,255
    2200:	10006d26 	beq	r2,zero,23b8 <main+0x1efc>
    2204:	017ffef4 	movhi	r5,65531
    2208:	2940f604 	addi	r5,r5,984
    220c:	2f0b883a 	add	r5,r5,fp
    2210:	28000005 	stb	zero,0(r5)
    2214:	01fffef4 	movhi	r7,65531
    2218:	39c0f504 	addi	r7,r7,980
    221c:	3f0f883a 	add	r7,r7,fp
    2220:	38800017 	ldw	r2,0(r7)
    2224:	10800058 	cmpnei	r2,r2,1
    2228:	1000131e 	bne	r2,zero,2278 <main+0x1dbc>
    222c:	00800174 	movhi	r2,5
    2230:	10bf0904 	addi	r2,r2,-988
    2234:	00fffef4 	movhi	r3,65531
    2238:	18c0f304 	addi	r3,r3,972
    223c:	1f07883a 	add	r3,r3,fp
    2240:	1885883a 	add	r2,r3,r2
    2244:	100b883a 	mov	r5,r2
    2248:	01000374 	movhi	r4,13
    224c:	21351f04 	addi	r4,r4,-11140
    2250:	0004d900 	call	4d90 <reset_circles>
    2254:	013ffef4 	movhi	r4,65531
    2258:	2100f644 	addi	r4,r4,985
    225c:	2709883a 	add	r4,r4,fp
    2260:	20000005 	stb	zero,0(r4)
    2264:	017ffef4 	movhi	r5,65531
    2268:	2940f704 	addi	r5,r5,988
    226c:	2f0b883a 	add	r5,r5,fp
    2270:	28000015 	stw	zero,0(r5)
    2274:	00001106 	br	22bc <main+0x1e00>
    2278:	01fffef4 	movhi	r7,65531
    227c:	39c0f504 	addi	r7,r7,980
    2280:	3f0f883a 	add	r7,r7,fp
    2284:	38800017 	ldw	r2,0(r7)
    2288:	10800098 	cmpnei	r2,r2,2
    228c:	10000b1e 	bne	r2,zero,22bc <main+0x1e00>
    2290:	01000374 	movhi	r4,13
    2294:	21351f04 	addi	r4,r4,-11140
    2298:	0004e240 	call	4e24 <randomize_position>
    229c:	00bffef4 	movhi	r2,65531
    22a0:	1080f644 	addi	r2,r2,985
    22a4:	1705883a 	add	r2,r2,fp
    22a8:	10000005 	stb	zero,0(r2)
    22ac:	00fffef4 	movhi	r3,65531
    22b0:	18c0f704 	addi	r3,r3,988
    22b4:	1f07883a 	add	r3,r3,fp
    22b8:	18000015 	stw	zero,0(r3)
    22bc:	013ffef4 	movhi	r4,65531
    22c0:	21011804 	addi	r4,r4,1120
    22c4:	2709883a 	add	r4,r4,fp
    22c8:	20c00017 	ldw	r3,0(r4)
    22cc:	00800044 	movi	r2,1
    22d0:	d8800015 	stw	r2,0(sp)
    22d4:	01c00284 	movi	r7,10
    22d8:	01800284 	movi	r6,10
    22dc:	014001b4 	movhi	r5,6
    22e0:	2962bb04 	addi	r5,r5,-29972
    22e4:	1809883a 	mov	r4,r3
    22e8:	000847c0 	call	847c <alt_up_video_dma_draw_string>
    22ec:	00800044 	movi	r2,1
    22f0:	d0a77515 	stw	r2,-25132(gp)
    22f4:	017ffef4 	movhi	r5,65531
    22f8:	2940f844 	addi	r5,r5,993
    22fc:	2f0b883a 	add	r5,r5,fp
    2300:	28800003 	ldbu	r2,0(r5)
    2304:	1080005c 	xori	r2,r2,1
    2308:	10803fcc 	andi	r2,r2,255
    230c:	10000e26 	beq	r2,zero,2348 <main+0x1e8c>
    2310:	01fffef4 	movhi	r7,65531
    2314:	39c0f404 	addi	r7,r7,976
    2318:	3f0f883a 	add	r7,r7,fp
    231c:	38800017 	ldw	r2,0(r7)
    2320:	10800044 	addi	r2,r2,1
    2324:	00fffef4 	movhi	r3,65531
    2328:	18c0f404 	addi	r3,r3,976
    232c:	1f07883a 	add	r3,r3,fp
    2330:	18800015 	stw	r2,0(r3)
    2334:	00800044 	movi	r2,1
    2338:	013ffef4 	movhi	r4,65531
    233c:	2100f844 	addi	r4,r4,993
    2340:	2709883a 	add	r4,r4,fp
    2344:	20800005 	stb	r2,0(r4)
    2348:	017ffef4 	movhi	r5,65531
    234c:	2940f404 	addi	r5,r5,976
    2350:	2f0b883a 	add	r5,r5,fp
    2354:	29000017 	ldw	r4,0(r5)
    2358:	0002ac80 	call	2ac8 <dispScore>
    235c:	01fffef4 	movhi	r7,65531
    2360:	39c11704 	addi	r7,r7,1116
    2364:	3f0f883a 	add	r7,r7,fp
    2368:	39000017 	ldw	r4,0(r7)
    236c:	00800174 	movhi	r2,5
    2370:	10bf0504 	addi	r2,r2,-1004
    2374:	00fffef4 	movhi	r3,65531
    2378:	18c0f304 	addi	r3,r3,972
    237c:	1f07883a 	add	r3,r3,fp
    2380:	1885883a 	add	r2,r3,r2
    2384:	11400017 	ldw	r5,0(r2)
    2388:	00800174 	movhi	r2,5
    238c:	10befe04 	addi	r2,r2,-1032
    2390:	01fffef4 	movhi	r7,65531
    2394:	39c0f304 	addi	r7,r7,972
    2398:	3f0f883a 	add	r7,r7,fp
    239c:	3885883a 	add	r2,r7,r2
    23a0:	00c00044 	movi	r3,1
    23a4:	d8c00015 	stw	r3,0(sp)
    23a8:	11800017 	ldw	r6,0(r2)
    23ac:	11c00117 	ldw	r7,4(r2)
    23b0:	00034100 	call	3410 <drawCursor>
    23b4:	0000cb06 	br	26e4 <main+0x2228>
    23b8:	00fffef4 	movhi	r3,65531
    23bc:	18c0f884 	addi	r3,r3,994
    23c0:	1f07883a 	add	r3,r3,fp
    23c4:	18800003 	ldbu	r2,0(r3)
    23c8:	10008c26 	beq	r2,zero,25fc <main+0x2140>
    23cc:	013ffef4 	movhi	r4,65531
    23d0:	2100f8c4 	addi	r4,r4,995
    23d4:	2709883a 	add	r4,r4,fp
    23d8:	20800003 	ldbu	r2,0(r4)
    23dc:	1080005c 	xori	r2,r2,1
    23e0:	10803fcc 	andi	r2,r2,255
    23e4:	10008526 	beq	r2,zero,25fc <main+0x2140>
    23e8:	017ffef4 	movhi	r5,65531
    23ec:	2940f304 	addi	r5,r5,972
    23f0:	2f0b883a 	add	r5,r5,fp
    23f4:	28800003 	ldbu	r2,0(r5)
    23f8:	10008026 	beq	r2,zero,25fc <main+0x2140>
    23fc:	01fffef4 	movhi	r7,65531
    2400:	39c0f604 	addi	r7,r7,984
    2404:	3f0f883a 	add	r7,r7,fp
    2408:	38800003 	ldbu	r2,0(r7)
    240c:	1080005c 	xori	r2,r2,1
    2410:	10803fcc 	andi	r2,r2,255
    2414:	10007926 	beq	r2,zero,25fc <main+0x2140>
    2418:	00bffef4 	movhi	r2,65531
    241c:	10811804 	addi	r2,r2,1120
    2420:	1705883a 	add	r2,r2,fp
    2424:	10c00017 	ldw	r3,0(r2)
    2428:	00800044 	movi	r2,1
    242c:	d8800015 	stw	r2,0(sp)
    2430:	01c00284 	movi	r7,10
    2434:	01800284 	movi	r6,10
    2438:	014001b4 	movhi	r5,6
    243c:	2962bb04 	addi	r5,r5,-29972
    2440:	1809883a 	mov	r4,r3
    2444:	000847c0 	call	847c <alt_up_video_dma_draw_string>
    2448:	000541c0 	call	541c <rand>
    244c:	00c02d04 	movi	r3,180
    2450:	10c7283a 	div	r3,r2,r3
    2454:	18c02d24 	muli	r3,r3,180
    2458:	10c5c83a 	sub	r2,r2,r3
    245c:	00fffef4 	movhi	r3,65531
    2460:	18c10804 	addi	r3,r3,1056
    2464:	1f07883a 	add	r3,r3,fp
    2468:	18800015 	stw	r2,0(r3)
    246c:	000541c0 	call	541c <rand>
    2470:	00c00544 	movi	r3,21
    2474:	10c7283a 	div	r3,r2,r3
    2478:	18c00564 	muli	r3,r3,21
    247c:	10c5c83a 	sub	r2,r2,r3
    2480:	10800284 	addi	r2,r2,10
    2484:	013ffef4 	movhi	r4,65531
    2488:	21010904 	addi	r4,r4,1060
    248c:	2709883a 	add	r4,r4,fp
    2490:	20800015 	stw	r2,0(r4)
    2494:	000541c0 	call	541c <rand>
    2498:	1007883a 	mov	r3,r2
    249c:	008000c4 	movi	r2,3
    24a0:	1889283a 	div	r4,r3,r2
    24a4:	2005883a 	mov	r2,r4
    24a8:	1085883a 	add	r2,r2,r2
    24ac:	1105883a 	add	r2,r2,r4
    24b0:	1885c83a 	sub	r2,r3,r2
    24b4:	10bfffc4 	addi	r2,r2,-1
    24b8:	017ffef4 	movhi	r5,65531
    24bc:	29410a04 	addi	r5,r5,1064
    24c0:	2f0b883a 	add	r5,r5,fp
    24c4:	28800015 	stw	r2,0(r5)
    24c8:	01fffef4 	movhi	r7,65531
    24cc:	39c10804 	addi	r7,r7,1056
    24d0:	3f0f883a 	add	r7,r7,fp
    24d4:	38800017 	ldw	r2,0(r7)
    24d8:	1007feb2 	custom	250,r3,r2,zero
    24dc:	00800374 	movhi	r2,13
    24e0:	10b51204 	addi	r2,r2,-11192
    24e4:	10c00015 	stw	r3,0(r2)
    24e8:	00fffef4 	movhi	r3,65531
    24ec:	18c10904 	addi	r3,r3,1060
    24f0:	1f07883a 	add	r3,r3,fp
    24f4:	18800017 	ldw	r2,0(r3)
    24f8:	1007feb2 	custom	250,r3,r2,zero
    24fc:	00800374 	movhi	r2,13
    2500:	10b51204 	addi	r2,r2,-11192
    2504:	10c00115 	stw	r3,4(r2)
    2508:	013ffef4 	movhi	r4,65531
    250c:	21010804 	addi	r4,r4,1056
    2510:	2709883a 	add	r4,r4,fp
    2514:	20c00017 	ldw	r3,0(r4)
    2518:	017ffef4 	movhi	r5,65531
    251c:	29410a04 	addi	r5,r5,1064
    2520:	2f0b883a 	add	r5,r5,fp
    2524:	28800017 	ldw	r2,0(r5)
    2528:	1885883a 	add	r2,r3,r2
    252c:	1007feb2 	custom	250,r3,r2,zero
    2530:	00800374 	movhi	r2,13
    2534:	10b51204 	addi	r2,r2,-11192
    2538:	10c00215 	stw	r3,8(r2)
    253c:	01fffef4 	movhi	r7,65531
    2540:	39c10904 	addi	r7,r7,1060
    2544:	3f0f883a 	add	r7,r7,fp
    2548:	38800017 	ldw	r2,0(r7)
    254c:	1007feb2 	custom	250,r3,r2,zero
    2550:	00800374 	movhi	r2,13
    2554:	10b51204 	addi	r2,r2,-11192
    2558:	10c00315 	stw	r3,12(r2)
    255c:	00800374 	movhi	r2,13
    2560:	10b51204 	addi	r2,r2,-11192
    2564:	10000515 	stw	zero,20(r2)
    2568:	00800374 	movhi	r2,13
    256c:	10b51204 	addi	r2,r2,-11192
    2570:	00d04834 	movhi	r3,16672
    2574:	10c00615 	stw	r3,24(r2)
    2578:	00800374 	movhi	r2,13
    257c:	10b51204 	addi	r2,r2,-11192
    2580:	00c00244 	movi	r3,9
    2584:	10c00a15 	stw	r3,40(r2)
    2588:	00800374 	movhi	r2,13
    258c:	10b51204 	addi	r2,r2,-11192
    2590:	10000415 	stw	zero,16(r2)
    2594:	00800174 	movhi	r2,5
    2598:	10bf0804 	addi	r2,r2,-992
    259c:	00fffef4 	movhi	r3,65531
    25a0:	18c0f304 	addi	r3,r3,972
    25a4:	1f07883a 	add	r3,r3,fp
    25a8:	1885883a 	add	r2,r3,r2
    25ac:	10c00017 	ldw	r3,0(r2)
    25b0:	00800374 	movhi	r2,13
    25b4:	10b51204 	addi	r2,r2,-11192
    25b8:	10c00c15 	stw	r3,48(r2)
    25bc:	00800374 	movhi	r2,13
    25c0:	10b51204 	addi	r2,r2,-11192
    25c4:	10000905 	stb	zero,36(r2)
    25c8:	d0a77517 	ldw	r2,-25132(gp)
    25cc:	10800044 	addi	r2,r2,1
    25d0:	d0a77515 	stw	r2,-25132(gp)
    25d4:	00800044 	movi	r2,1
    25d8:	013ffef4 	movhi	r4,65531
    25dc:	2100f604 	addi	r4,r4,984
    25e0:	2709883a 	add	r4,r4,fp
    25e4:	20800005 	stb	r2,0(r4)
    25e8:	017ffef4 	movhi	r5,65531
    25ec:	2940f404 	addi	r5,r5,976
    25f0:	2f0b883a 	add	r5,r5,fp
    25f4:	28000015 	stw	zero,0(r5)
    25f8:	00003a06 	br	26e4 <main+0x2228>
    25fc:	01fffef4 	movhi	r7,65531
    2600:	39c0f8c4 	addi	r7,r7,995
    2604:	3f0f883a 	add	r7,r7,fp
    2608:	38800003 	ldbu	r2,0(r7)
    260c:	10001b26 	beq	r2,zero,267c <main+0x21c0>
    2610:	00fffef4 	movhi	r3,65531
    2614:	18c0f884 	addi	r3,r3,994
    2618:	1f07883a 	add	r3,r3,fp
    261c:	18800003 	ldbu	r2,0(r3)
    2620:	10001626 	beq	r2,zero,267c <main+0x21c0>
    2624:	013ffef4 	movhi	r4,65531
    2628:	2100f604 	addi	r4,r4,984
    262c:	2709883a 	add	r4,r4,fp
    2630:	20000005 	stb	zero,0(r4)
    2634:	01000374 	movhi	r4,13
    2638:	21351f04 	addi	r4,r4,-11140
    263c:	0004e240 	call	4e24 <randomize_position>
    2640:	017ffef4 	movhi	r5,65531
    2644:	2940f644 	addi	r5,r5,985
    2648:	2f0b883a 	add	r5,r5,fp
    264c:	28000005 	stb	zero,0(r5)
    2650:	01fffef4 	movhi	r7,65531
    2654:	39c0f704 	addi	r7,r7,988
    2658:	3f0f883a 	add	r7,r7,fp
    265c:	38000015 	stw	zero,0(r7)
    2660:	00bffef4 	movhi	r2,65531
    2664:	1080f8c4 	addi	r2,r2,995
    2668:	1705883a 	add	r2,r2,fp
    266c:	10000005 	stb	zero,0(r2)
    2670:	00800044 	movi	r2,1
    2674:	d0a77515 	stw	r2,-25132(gp)
    2678:	00001a06 	br	26e4 <main+0x2228>
    267c:	00fffef4 	movhi	r3,65531
    2680:	18c0f804 	addi	r3,r3,992
    2684:	1f07883a 	add	r3,r3,fp
    2688:	18000005 	stb	zero,0(r3)
    268c:	017ffef4 	movhi	r5,65531
    2690:	29411704 	addi	r5,r5,1116
    2694:	2f0b883a 	add	r5,r5,fp
    2698:	29000017 	ldw	r4,0(r5)
    269c:	00800174 	movhi	r2,5
    26a0:	10bf0604 	addi	r2,r2,-1000
    26a4:	01fffef4 	movhi	r7,65531
    26a8:	39c0f304 	addi	r7,r7,972
    26ac:	3f0f883a 	add	r7,r7,fp
    26b0:	3885883a 	add	r2,r7,r2
    26b4:	11400017 	ldw	r5,0(r2)
    26b8:	00800174 	movhi	r2,5
    26bc:	10befe04 	addi	r2,r2,-1032
    26c0:	00fffef4 	movhi	r3,65531
    26c4:	18c0f304 	addi	r3,r3,972
    26c8:	1f07883a 	add	r3,r3,fp
    26cc:	1885883a 	add	r2,r3,r2
    26d0:	00c00044 	movi	r3,1
    26d4:	d8c00015 	stw	r3,0(sp)
    26d8:	11800017 	ldw	r6,0(r2)
    26dc:	11c00117 	ldw	r7,4(r2)
    26e0:	00034100 	call	3410 <drawCursor>
    26e4:	013ffef4 	movhi	r4,65531
    26e8:	2100f304 	addi	r4,r4,972
    26ec:	2709883a 	add	r4,r4,fp
    26f0:	20800003 	ldbu	r2,0(r4)
    26f4:	1000c726 	beq	r2,zero,2a14 <main+0x2558>
    26f8:	017ffef4 	movhi	r5,65531
    26fc:	2940f504 	addi	r5,r5,980
    2700:	2f0b883a 	add	r5,r5,fp
    2704:	28800017 	ldw	r2,0(r5)
    2708:	10800058 	cmpnei	r2,r2,1
    270c:	10000d1e 	bne	r2,zero,2744 <main+0x2288>
    2710:	01fffef4 	movhi	r7,65531
    2714:	39c11804 	addi	r7,r7,1120
    2718:	3f0f883a 	add	r7,r7,fp
    271c:	38c00017 	ldw	r3,0(r7)
    2720:	00800044 	movi	r2,1
    2724:	d8800015 	stw	r2,0(sp)
    2728:	01c00044 	movi	r7,1
    272c:	01800044 	movi	r6,1
    2730:	014001b4 	movhi	r5,6
    2734:	2962bd04 	addi	r5,r5,-29964
    2738:	1809883a 	mov	r4,r3
    273c:	000847c0 	call	847c <alt_up_video_dma_draw_string>
    2740:	00000c06 	br	2774 <main+0x22b8>
    2744:	00bffef4 	movhi	r2,65531
    2748:	10811804 	addi	r2,r2,1120
    274c:	1705883a 	add	r2,r2,fp
    2750:	10c00017 	ldw	r3,0(r2)
    2754:	00800044 	movi	r2,1
    2758:	d8800015 	stw	r2,0(sp)
    275c:	01c00044 	movi	r7,1
    2760:	01800044 	movi	r6,1
    2764:	014001b4 	movhi	r5,6
    2768:	2962c204 	addi	r5,r5,-29944
    276c:	1809883a 	mov	r4,r3
    2770:	000847c0 	call	847c <alt_up_video_dma_draw_string>
    2774:	00fffef4 	movhi	r3,65531
    2778:	18c0f604 	addi	r3,r3,984
    277c:	1f07883a 	add	r3,r3,fp
    2780:	18800003 	ldbu	r2,0(r3)
    2784:	1000a326 	beq	r2,zero,2a14 <main+0x2558>
    2788:	013ffef4 	movhi	r4,65531
    278c:	21011704 	addi	r4,r4,1116
    2790:	2709883a 	add	r4,r4,fp
    2794:	20800017 	ldw	r2,0(r4)
    2798:	100b883a 	mov	r5,r2
    279c:	01fffef4 	movhi	r7,65531
    27a0:	39c10204 	addi	r7,r7,1032
    27a4:	3f0f883a 	add	r7,r7,fp
    27a8:	39000017 	ldw	r4,0(r7)
    27ac:	00049680 	call	4968 <update_all>
    27b0:	00800044 	movi	r2,1
    27b4:	00fffef4 	movhi	r3,65531
    27b8:	18c0f644 	addi	r3,r3,985
    27bc:	1f07883a 	add	r3,r3,fp
    27c0:	18800005 	stb	r2,0(r3)
    27c4:	013ffef4 	movhi	r4,65531
    27c8:	2100f884 	addi	r4,r4,994
    27cc:	2709883a 	add	r4,r4,fp
    27d0:	20800003 	ldbu	r2,0(r4)
    27d4:	10002626 	beq	r2,zero,2870 <main+0x23b4>
    27d8:	017ffef4 	movhi	r5,65531
    27dc:	2940f904 	addi	r5,r5,996
    27e0:	2f0b883a 	add	r5,r5,fp
    27e4:	28000015 	stw	zero,0(r5)
    27e8:	00001a06 	br	2854 <main+0x2398>
    27ec:	00800374 	movhi	r2,13
    27f0:	10b51204 	addi	r2,r2,-11192
    27f4:	01fffef4 	movhi	r7,65531
    27f8:	39c0f904 	addi	r7,r7,996
    27fc:	3f0f883a 	add	r7,r7,fp
    2800:	38c00017 	ldw	r3,0(r7)
    2804:	18c00d24 	muli	r3,r3,52
    2808:	10c5883a 	add	r2,r2,r3
    280c:	10800904 	addi	r2,r2,36
    2810:	10800003 	ldbu	r2,0(r2)
    2814:	1080005c 	xori	r2,r2,1
    2818:	10803fcc 	andi	r2,r2,255
    281c:	10000426 	beq	r2,zero,2830 <main+0x2374>
    2820:	00bffef4 	movhi	r2,65531
    2824:	1080f644 	addi	r2,r2,985
    2828:	1705883a 	add	r2,r2,fp
    282c:	10000005 	stb	zero,0(r2)
    2830:	00fffef4 	movhi	r3,65531
    2834:	18c0f904 	addi	r3,r3,996
    2838:	1f07883a 	add	r3,r3,fp
    283c:	18800017 	ldw	r2,0(r3)
    2840:	10800044 	addi	r2,r2,1
    2844:	013ffef4 	movhi	r4,65531
    2848:	2100f904 	addi	r4,r4,996
    284c:	2709883a 	add	r4,r4,fp
    2850:	20800015 	stw	r2,0(r4)
    2854:	d0a77517 	ldw	r2,-25132(gp)
    2858:	017ffef4 	movhi	r5,65531
    285c:	2940f904 	addi	r5,r5,996
    2860:	2f0b883a 	add	r5,r5,fp
    2864:	28c00017 	ldw	r3,0(r5)
    2868:	18bfe016 	blt	r3,r2,27ec <__alt_mem_VGA_Subsystem_Char_Buf_Subsystem_Onchip_SRAM+0xf70027ec>
    286c:	00002606 	br	2908 <main+0x244c>
    2870:	00800044 	movi	r2,1
    2874:	01fffef4 	movhi	r7,65531
    2878:	39c0fa04 	addi	r7,r7,1000
    287c:	3f0f883a 	add	r7,r7,fp
    2880:	38800015 	stw	r2,0(r7)
    2884:	00001a06 	br	28f0 <main+0x2434>
    2888:	00800374 	movhi	r2,13
    288c:	10b51204 	addi	r2,r2,-11192
    2890:	013ffef4 	movhi	r4,65531
    2894:	2100fa04 	addi	r4,r4,1000
    2898:	2709883a 	add	r4,r4,fp
    289c:	20c00017 	ldw	r3,0(r4)
    28a0:	18c00d24 	muli	r3,r3,52
    28a4:	10c5883a 	add	r2,r2,r3
    28a8:	10800904 	addi	r2,r2,36
    28ac:	10800003 	ldbu	r2,0(r2)
    28b0:	1080005c 	xori	r2,r2,1
    28b4:	10803fcc 	andi	r2,r2,255
    28b8:	10000426 	beq	r2,zero,28cc <main+0x2410>
    28bc:	017ffef4 	movhi	r5,65531
    28c0:	2940f644 	addi	r5,r5,985
    28c4:	2f0b883a 	add	r5,r5,fp
    28c8:	28000005 	stb	zero,0(r5)
    28cc:	01fffef4 	movhi	r7,65531
    28d0:	39c0fa04 	addi	r7,r7,1000
    28d4:	3f0f883a 	add	r7,r7,fp
    28d8:	38800017 	ldw	r2,0(r7)
    28dc:	10800044 	addi	r2,r2,1
    28e0:	00fffef4 	movhi	r3,65531
    28e4:	18c0fa04 	addi	r3,r3,1000
    28e8:	1f07883a 	add	r3,r3,fp
    28ec:	18800015 	stw	r2,0(r3)
    28f0:	d0a77517 	ldw	r2,-25132(gp)
    28f4:	013ffef4 	movhi	r4,65531
    28f8:	2100fa04 	addi	r4,r4,1000
    28fc:	2709883a 	add	r4,r4,fp
    2900:	20c00017 	ldw	r3,0(r4)
    2904:	18bfe016 	blt	r3,r2,2888 <__alt_mem_VGA_Subsystem_Char_Buf_Subsystem_Onchip_SRAM+0xf7002888>
    2908:	017ffef4 	movhi	r5,65531
    290c:	2940f644 	addi	r5,r5,985
    2910:	2f0b883a 	add	r5,r5,fp
    2914:	28800003 	ldbu	r2,0(r5)
    2918:	10003a26 	beq	r2,zero,2a04 <main+0x2548>
    291c:	01fffef4 	movhi	r7,65531
    2920:	39c0f704 	addi	r7,r7,988
    2924:	3f0f883a 	add	r7,r7,fp
    2928:	38800017 	ldw	r2,0(r7)
    292c:	10800150 	cmplti	r2,r2,5
    2930:	10002a1e 	bne	r2,zero,29dc <main+0x2520>
    2934:	00fffef4 	movhi	r3,65531
    2938:	18c0f884 	addi	r3,r3,994
    293c:	1f07883a 	add	r3,r3,fp
    2940:	18800003 	ldbu	r2,0(r3)
    2944:	10000626 	beq	r2,zero,2960 <main+0x24a4>
    2948:	00800044 	movi	r2,1
    294c:	013ffef4 	movhi	r4,65531
    2950:	2100f8c4 	addi	r4,r4,995
    2954:	2709883a 	add	r4,r4,fp
    2958:	20800005 	stb	r2,0(r4)
    295c:	00002d06 	br	2a14 <main+0x2558>
    2960:	01c03c04 	movi	r7,240
    2964:	01803204 	movi	r6,200
    2968:	01404fc4 	movi	r5,319
    296c:	01004604 	movi	r4,280
    2970:	0004b740 	call	4b74 <check_game_status>
    2974:	10803fcc 	andi	r2,r2,255
    2978:	10002626 	beq	r2,zero,2a14 <main+0x2558>
    297c:	017ffef4 	movhi	r5,65531
    2980:	2940f884 	addi	r5,r5,994
    2984:	2f0b883a 	add	r5,r5,fp
    2988:	28800003 	ldbu	r2,0(r5)
    298c:	1080005c 	xori	r2,r2,1
    2990:	10803fcc 	andi	r2,r2,255
    2994:	10001f26 	beq	r2,zero,2a14 <main+0x2558>
    2998:	01fffef4 	movhi	r7,65531
    299c:	39c11804 	addi	r7,r7,1120
    29a0:	3f0f883a 	add	r7,r7,fp
    29a4:	38c00017 	ldw	r3,0(r7)
    29a8:	00800044 	movi	r2,1
    29ac:	d8800015 	stw	r2,0(sp)
    29b0:	01c00284 	movi	r7,10
    29b4:	01800284 	movi	r6,10
    29b8:	014001b4 	movhi	r5,6
    29bc:	2962c704 	addi	r5,r5,-29924
    29c0:	1809883a 	mov	r4,r3
    29c4:	000847c0 	call	847c <alt_up_video_dma_draw_string>
    29c8:	00bffef4 	movhi	r2,65531
    29cc:	1080f404 	addi	r2,r2,976
    29d0:	1705883a 	add	r2,r2,fp
    29d4:	10000015 	stw	zero,0(r2)
    29d8:	00000e06 	br	2a14 <main+0x2558>
    29dc:	00fffef4 	movhi	r3,65531
    29e0:	18c0f704 	addi	r3,r3,988
    29e4:	1f07883a 	add	r3,r3,fp
    29e8:	18800017 	ldw	r2,0(r3)
    29ec:	10800044 	addi	r2,r2,1
    29f0:	013ffef4 	movhi	r4,65531
    29f4:	2100f704 	addi	r4,r4,988
    29f8:	2709883a 	add	r4,r4,fp
    29fc:	20800015 	stw	r2,0(r4)
    2a00:	00000406 	br	2a14 <main+0x2558>
    2a04:	017ffef4 	movhi	r5,65531
    2a08:	2940f704 	addi	r5,r5,988
    2a0c:	2f0b883a 	add	r5,r5,fp
    2a10:	28000015 	stw	zero,0(r5)
    2a14:	01fffef4 	movhi	r7,65531
    2a18:	39c11704 	addi	r7,r7,1116
    2a1c:	3f0f883a 	add	r7,r7,fp
    2a20:	38800017 	ldw	r2,0(r7)
    2a24:	1009883a 	mov	r4,r2
    2a28:	0007b740 	call	7b74 <alt_up_video_dma_ctrl_swap_buffers>
    2a2c:	00394f06 	br	f6c <__alt_mem_VGA_Subsystem_Char_Buf_Subsystem_Onchip_SRAM+0xf7000f6c>
    2a30:	e037883a 	mov	sp,fp
    2a34:	dfc00117 	ldw	ra,4(sp)
    2a38:	df000017 	ldw	fp,0(sp)
    2a3c:	dec00204 	addi	sp,sp,8
    2a40:	f800283a 	ret

00002a44 <clearChaser>:
    2a44:	defffb04 	addi	sp,sp,-20
    2a48:	df000415 	stw	fp,16(sp)
    2a4c:	df000404 	addi	fp,sp,16
    2a50:	00bfc834 	movhi	r2,65312
    2a54:	10800804 	addi	r2,r2,32
    2a58:	e0bffc15 	stw	r2,-16(fp)
    2a5c:	00bfc834 	movhi	r2,65312
    2a60:	10800c04 	addi	r2,r2,48
    2a64:	e0bffd15 	stw	r2,-12(fp)
    2a68:	e03ffe05 	stb	zero,-8(fp)
    2a6c:	e03ffe45 	stb	zero,-7(fp)
    2a70:	e03ffe85 	stb	zero,-6(fp)
    2a74:	e03ffec5 	stb	zero,-5(fp)
    2a78:	e03fff05 	stb	zero,-4(fp)
    2a7c:	e03fff45 	stb	zero,-3(fp)
    2a80:	e03fff85 	stb	zero,-2(fp)
    2a84:	e03fffc5 	stb	zero,-1(fp)
    2a88:	e0bffc17 	ldw	r2,-16(fp)
    2a8c:	10800017 	ldw	r2,0(r2)
    2a90:	10dfffcc 	andi	r3,r2,32767
    2a94:	e0bffe04 	addi	r2,fp,-8
    2a98:	10800017 	ldw	r2,0(r2)
    2a9c:	1886b03a 	or	r3,r3,r2
    2aa0:	e0bffc17 	ldw	r2,-16(fp)
    2aa4:	10c00015 	stw	r3,0(r2)
    2aa8:	e0ffff17 	ldw	r3,-4(fp)
    2aac:	e0bffd17 	ldw	r2,-12(fp)
    2ab0:	10c00015 	stw	r3,0(r2)
    2ab4:	0001883a 	nop
    2ab8:	e037883a 	mov	sp,fp
    2abc:	df000017 	ldw	fp,0(sp)
    2ac0:	dec00104 	addi	sp,sp,4
    2ac4:	f800283a 	ret

00002ac8 <dispScore>:
    2ac8:	defff604 	addi	sp,sp,-40
    2acc:	dfc00915 	stw	ra,36(sp)
    2ad0:	df000815 	stw	fp,32(sp)
    2ad4:	df000804 	addi	fp,sp,32
    2ad8:	e13fff15 	stw	r4,-4(fp)
    2adc:	00bfc834 	movhi	r2,65312
    2ae0:	10800804 	addi	r2,r2,32
    2ae4:	e0bff815 	stw	r2,-32(fp)
    2ae8:	008001b4 	movhi	r2,6
    2aec:	10a2c904 	addi	r2,r2,-29916
    2af0:	e0fff904 	addi	r3,fp,-28
    2af4:	1009883a 	mov	r4,r2
    2af8:	00800404 	movi	r2,16
    2afc:	100d883a 	mov	r6,r2
    2b00:	200b883a 	mov	r5,r4
    2b04:	1809883a 	mov	r4,r3
    2b08:	00052500 	call	5250 <memcpy>
    2b0c:	e03ffd05 	stb	zero,-12(fp)
    2b10:	e03ffd45 	stb	zero,-11(fp)
    2b14:	e03ffd85 	stb	zero,-10(fp)
    2b18:	e03ffdc5 	stb	zero,-9(fp)
    2b1c:	e03ffe05 	stb	zero,-8(fp)
    2b20:	e03ffe45 	stb	zero,-7(fp)
    2b24:	e03ffe85 	stb	zero,-6(fp)
    2b28:	e03ffec5 	stb	zero,-5(fp)
    2b2c:	e0bfff17 	ldw	r2,-4(fp)
    2b30:	10800288 	cmpgei	r2,r2,10
    2b34:	1000081e 	bne	r2,zero,2b58 <dispScore+0x90>
    2b38:	e0fff904 	addi	r3,fp,-28
    2b3c:	e0bfff17 	ldw	r2,-4(fp)
    2b40:	1885883a 	add	r2,r3,r2
    2b44:	10800003 	ldbu	r2,0(r2)
    2b48:	e0bffd05 	stb	r2,-12(fp)
    2b4c:	e0bff903 	ldbu	r2,-28(fp)
    2b50:	e0bffd45 	stb	r2,-11(fp)
    2b54:	00001006 	br	2b98 <dispScore+0xd0>
    2b58:	e0bfff17 	ldw	r2,-4(fp)
    2b5c:	00c00284 	movi	r3,10
    2b60:	10c7283a 	div	r3,r2,r3
    2b64:	18c002a4 	muli	r3,r3,10
    2b68:	10c5c83a 	sub	r2,r2,r3
    2b6c:	e0fff904 	addi	r3,fp,-28
    2b70:	1885883a 	add	r2,r3,r2
    2b74:	10800003 	ldbu	r2,0(r2)
    2b78:	e0bffd05 	stb	r2,-12(fp)
    2b7c:	e0ffff17 	ldw	r3,-4(fp)
    2b80:	00800284 	movi	r2,10
    2b84:	1885283a 	div	r2,r3,r2
    2b88:	e0fff904 	addi	r3,fp,-28
    2b8c:	1885883a 	add	r2,r3,r2
    2b90:	10800003 	ldbu	r2,0(r2)
    2b94:	e0bffd45 	stb	r2,-11(fp)
    2b98:	e0bff817 	ldw	r2,-32(fp)
    2b9c:	10800017 	ldw	r2,0(r2)
    2ba0:	1007883a 	mov	r3,r2
    2ba4:	00a00004 	movi	r2,-32768
    2ba8:	1884703a 	and	r2,r3,r2
    2bac:	e0fffd04 	addi	r3,fp,-12
    2bb0:	18c00017 	ldw	r3,0(r3)
    2bb4:	10c4b03a 	or	r2,r2,r3
    2bb8:	1007883a 	mov	r3,r2
    2bbc:	e0bff817 	ldw	r2,-32(fp)
    2bc0:	10c00015 	stw	r3,0(r2)
    2bc4:	0001883a 	nop
    2bc8:	e037883a 	mov	sp,fp
    2bcc:	dfc00117 	ldw	ra,4(sp)
    2bd0:	df000017 	ldw	fp,0(sp)
    2bd4:	dec00204 	addi	sp,sp,8
    2bd8:	f800283a 	ret

00002bdc <dissolveEffect>:
    2bdc:	defff904 	addi	sp,sp,-28
    2be0:	dfc00615 	stw	ra,24(sp)
    2be4:	df000515 	stw	fp,20(sp)
    2be8:	df000504 	addi	fp,sp,20
    2bec:	e13ffd15 	stw	r4,-12(fp)
    2bf0:	e17ffe15 	stw	r5,-8(fp)
    2bf4:	e1bfff15 	stw	r6,-4(fp)
    2bf8:	01400044 	movi	r5,1
    2bfc:	e13ffd17 	ldw	r4,-12(fp)
    2c00:	00086c00 	call	86c0 <alt_up_video_dma_screen_clear>
    2c04:	e03ffc15 	stw	zero,-16(fp)
    2c08:	00001b06 	br	2c78 <dissolveEffect+0x9c>
    2c0c:	e0bffc17 	ldw	r2,-16(fp)
    2c10:	1085883a 	add	r2,r2,r2
    2c14:	1007883a 	mov	r3,r2
    2c18:	e0bffe17 	ldw	r2,-8(fp)
    2c1c:	10c5883a 	add	r2,r2,r3
    2c20:	1080000b 	ldhu	r2,0(r2)
    2c24:	10ffffcc 	andi	r3,r2,65535
    2c28:	18e0001c 	xori	r3,r3,32768
    2c2c:	18e00004 	addi	r3,r3,-32768
    2c30:	e0bffc17 	ldw	r2,-16(fp)
    2c34:	1085883a 	add	r2,r2,r2
    2c38:	1009883a 	mov	r4,r2
    2c3c:	e0bfff17 	ldw	r2,-4(fp)
    2c40:	1105883a 	add	r2,r2,r4
    2c44:	1080000b 	ldhu	r2,0(r2)
    2c48:	10bfffcc 	andi	r2,r2,65535
    2c4c:	10a0001c 	xori	r2,r2,32768
    2c50:	10a00004 	addi	r2,r2,-32768
    2c54:	d8000015 	stw	zero,0(sp)
    2c58:	100f883a 	mov	r7,r2
    2c5c:	180d883a 	mov	r6,r3
    2c60:	000b883a 	mov	r5,zero
    2c64:	e13ffd17 	ldw	r4,-12(fp)
    2c68:	0007c080 	call	7c08 <alt_up_video_dma_draw>
    2c6c:	e0bffc17 	ldw	r2,-16(fp)
    2c70:	10800044 	addi	r2,r2,1
    2c74:	e0bffc15 	stw	r2,-16(fp)
    2c78:	e0fffc17 	ldw	r3,-16(fp)
    2c7c:	00800074 	movhi	r2,1
    2c80:	108affc4 	addi	r2,r2,11263
    2c84:	10ffe10e 	bge	r2,r3,2c0c <__alt_mem_VGA_Subsystem_Char_Buf_Subsystem_Onchip_SRAM+0xf7002c0c>
    2c88:	0001883a 	nop
    2c8c:	e037883a 	mov	sp,fp
    2c90:	dfc00117 	ldw	ra,4(sp)
    2c94:	df000017 	ldw	fp,0(sp)
    2c98:	dec00204 	addi	sp,sp,8
    2c9c:	f800283a 	ret

00002ca0 <charDissolveEffect>:
    2ca0:	defff804 	addi	sp,sp,-32
    2ca4:	dfc00715 	stw	ra,28(sp)
    2ca8:	df000615 	stw	fp,24(sp)
    2cac:	df000604 	addi	fp,sp,24
    2cb0:	e13ffd15 	stw	r4,-12(fp)
    2cb4:	e17ffe15 	stw	r5,-8(fp)
    2cb8:	e1bfff15 	stw	r6,-4(fp)
    2cbc:	e03ffb15 	stw	zero,-20(fp)
    2cc0:	00002506 	br	2d58 <charDissolveEffect+0xb8>
    2cc4:	e0bffb17 	ldw	r2,-20(fp)
    2cc8:	1085883a 	add	r2,r2,r2
    2ccc:	1007883a 	mov	r3,r2
    2cd0:	e0bffe17 	ldw	r2,-8(fp)
    2cd4:	10c5883a 	add	r2,r2,r3
    2cd8:	1080000b 	ldhu	r2,0(r2)
    2cdc:	10ffffcc 	andi	r3,r2,65535
    2ce0:	18e0001c 	xori	r3,r3,32768
    2ce4:	18e00004 	addi	r3,r3,-32768
    2ce8:	e0bffb17 	ldw	r2,-20(fp)
    2cec:	1085883a 	add	r2,r2,r2
    2cf0:	1009883a 	mov	r4,r2
    2cf4:	e0bfff17 	ldw	r2,-4(fp)
    2cf8:	1105883a 	add	r2,r2,r4
    2cfc:	1080000b 	ldhu	r2,0(r2)
    2d00:	113fffcc 	andi	r4,r2,65535
    2d04:	2120001c 	xori	r4,r4,32768
    2d08:	21200004 	addi	r4,r4,-32768
    2d0c:	00800044 	movi	r2,1
    2d10:	d8800015 	stw	r2,0(sp)
    2d14:	200f883a 	mov	r7,r4
    2d18:	180d883a 	mov	r6,r3
    2d1c:	014001b4 	movhi	r5,6
    2d20:	2962cd04 	addi	r5,r5,-29900
    2d24:	e13ffd17 	ldw	r4,-12(fp)
    2d28:	000847c0 	call	847c <alt_up_video_dma_draw_string>
    2d2c:	e03ffc15 	stw	zero,-16(fp)
    2d30:	00000306 	br	2d40 <charDissolveEffect+0xa0>
    2d34:	e0bffc17 	ldw	r2,-16(fp)
    2d38:	10800044 	addi	r2,r2,1
    2d3c:	e0bffc15 	stw	r2,-16(fp)
    2d40:	e0bffc17 	ldw	r2,-16(fp)
    2d44:	10803210 	cmplti	r2,r2,200
    2d48:	103ffa1e 	bne	r2,zero,2d34 <__alt_mem_VGA_Subsystem_Char_Buf_Subsystem_Onchip_SRAM+0xf7002d34>
    2d4c:	e0bffb17 	ldw	r2,-20(fp)
    2d50:	10800044 	addi	r2,r2,1
    2d54:	e0bffb15 	stw	r2,-20(fp)
    2d58:	e0bffb17 	ldw	r2,-20(fp)
    2d5c:	1084b010 	cmplti	r2,r2,4800
    2d60:	103fd81e 	bne	r2,zero,2cc4 <__alt_mem_VGA_Subsystem_Char_Buf_Subsystem_Onchip_SRAM+0xf7002cc4>
    2d64:	0001883a 	nop
    2d68:	e037883a 	mov	sp,fp
    2d6c:	dfc00117 	ldw	ra,4(sp)
    2d70:	df000017 	ldw	fp,0(sp)
    2d74:	dec00204 	addi	sp,sp,8
    2d78:	f800283a 	ret

00002d7c <drawSplash>:
    2d7c:	defff704 	addi	sp,sp,-36
    2d80:	dfc00815 	stw	ra,32(sp)
    2d84:	df000715 	stw	fp,28(sp)
    2d88:	df000704 	addi	fp,sp,28
    2d8c:	e13ffd15 	stw	r4,-12(fp)
    2d90:	e17ffe15 	stw	r5,-8(fp)
    2d94:	e1bfff15 	stw	r6,-4(fp)
    2d98:	e03ffa15 	stw	zero,-24(fp)
    2d9c:	e03ffb15 	stw	zero,-20(fp)
    2da0:	00002006 	br	2e24 <drawSplash+0xa8>
    2da4:	e03ffc15 	stw	zero,-16(fp)
    2da8:	00001806 	br	2e0c <drawSplash+0x90>
    2dac:	e0bffa17 	ldw	r2,-24(fp)
    2db0:	1085883a 	add	r2,r2,r2
    2db4:	1007883a 	mov	r3,r2
    2db8:	e0bfff17 	ldw	r2,-4(fp)
    2dbc:	10c5883a 	add	r2,r2,r3
    2dc0:	1080000b 	ldhu	r2,0(r2)
    2dc4:	10ffffcc 	andi	r3,r2,65535
    2dc8:	18e0001c 	xori	r3,r3,32768
    2dcc:	18e00004 	addi	r3,r3,-32768
    2dd0:	e13ffc17 	ldw	r4,-16(fp)
    2dd4:	e17ffb17 	ldw	r5,-20(fp)
    2dd8:	e0bffe17 	ldw	r2,-8(fp)
    2ddc:	d8800015 	stw	r2,0(sp)
    2de0:	280f883a 	mov	r7,r5
    2de4:	200d883a 	mov	r6,r4
    2de8:	180b883a 	mov	r5,r3
    2dec:	e13ffd17 	ldw	r4,-12(fp)
    2df0:	0007c080 	call	7c08 <alt_up_video_dma_draw>
    2df4:	e0bffa17 	ldw	r2,-24(fp)
    2df8:	10800044 	addi	r2,r2,1
    2dfc:	e0bffa15 	stw	r2,-24(fp)
    2e00:	e0bffc17 	ldw	r2,-16(fp)
    2e04:	10800044 	addi	r2,r2,1
    2e08:	e0bffc15 	stw	r2,-16(fp)
    2e0c:	e0bffc17 	ldw	r2,-16(fp)
    2e10:	10805010 	cmplti	r2,r2,320
    2e14:	103fe51e 	bne	r2,zero,2dac <__alt_mem_VGA_Subsystem_Char_Buf_Subsystem_Onchip_SRAM+0xf7002dac>
    2e18:	e0bffb17 	ldw	r2,-20(fp)
    2e1c:	10800044 	addi	r2,r2,1
    2e20:	e0bffb15 	stw	r2,-20(fp)
    2e24:	e0bffb17 	ldw	r2,-20(fp)
    2e28:	10803c10 	cmplti	r2,r2,240
    2e2c:	103fdd1e 	bne	r2,zero,2da4 <__alt_mem_VGA_Subsystem_Char_Buf_Subsystem_Onchip_SRAM+0xf7002da4>
    2e30:	0001883a 	nop
    2e34:	e037883a 	mov	sp,fp
    2e38:	dfc00117 	ldw	ra,4(sp)
    2e3c:	df000017 	ldw	fp,0(sp)
    2e40:	dec00204 	addi	sp,sp,8
    2e44:	f800283a 	ret

00002e48 <binRandS>:
    2e48:	defff704 	addi	sp,sp,-36
    2e4c:	dfc00815 	stw	ra,32(sp)
    2e50:	df000715 	stw	fp,28(sp)
    2e54:	df000704 	addi	fp,sp,28
    2e58:	e13ffe15 	stw	r4,-8(fp)
    2e5c:	e17fff15 	stw	r5,-4(fp)
    2e60:	e03ffa15 	stw	zero,-24(fp)
    2e64:	00001f06 	br	2ee4 <binRandS+0x9c>
    2e68:	e03ff915 	stw	zero,-28(fp)
    2e6c:	00001706 	br	2ecc <binRandS+0x84>
    2e70:	e0bffa17 	ldw	r2,-24(fp)
    2e74:	10c05024 	muli	r3,r2,320
    2e78:	e0bff917 	ldw	r2,-28(fp)
    2e7c:	1885883a 	add	r2,r3,r2
    2e80:	1085883a 	add	r2,r2,r2
    2e84:	1007883a 	mov	r3,r2
    2e88:	e0bffe17 	ldw	r2,-8(fp)
    2e8c:	10c5883a 	add	r2,r2,r3
    2e90:	e0fff917 	ldw	r3,-28(fp)
    2e94:	10c0000d 	sth	r3,0(r2)
    2e98:	e0bffa17 	ldw	r2,-24(fp)
    2e9c:	10c05024 	muli	r3,r2,320
    2ea0:	e0bff917 	ldw	r2,-28(fp)
    2ea4:	1885883a 	add	r2,r3,r2
    2ea8:	1085883a 	add	r2,r2,r2
    2eac:	1007883a 	mov	r3,r2
    2eb0:	e0bfff17 	ldw	r2,-4(fp)
    2eb4:	10c5883a 	add	r2,r2,r3
    2eb8:	e0fffa17 	ldw	r3,-24(fp)
    2ebc:	10c0000d 	sth	r3,0(r2)
    2ec0:	e0bff917 	ldw	r2,-28(fp)
    2ec4:	10800044 	addi	r2,r2,1
    2ec8:	e0bff915 	stw	r2,-28(fp)
    2ecc:	e0bff917 	ldw	r2,-28(fp)
    2ed0:	10805010 	cmplti	r2,r2,320
    2ed4:	103fe61e 	bne	r2,zero,2e70 <__alt_mem_VGA_Subsystem_Char_Buf_Subsystem_Onchip_SRAM+0xf7002e70>
    2ed8:	e0bffa17 	ldw	r2,-24(fp)
    2edc:	10800044 	addi	r2,r2,1
    2ee0:	e0bffa15 	stw	r2,-24(fp)
    2ee4:	e0bffa17 	ldw	r2,-24(fp)
    2ee8:	10803c10 	cmplti	r2,r2,240
    2eec:	103fde1e 	bne	r2,zero,2e68 <__alt_mem_VGA_Subsystem_Char_Buf_Subsystem_Onchip_SRAM+0xf7002e68>
    2ef0:	e03ffb15 	stw	zero,-20(fp)
    2ef4:	00004906 	br	301c <binRandS+0x1d4>
    2ef8:	000541c0 	call	541c <rand>
    2efc:	1007883a 	mov	r3,r2
    2f00:	00800074 	movhi	r2,1
    2f04:	108b0004 	addi	r2,r2,11264
    2f08:	e13ffb17 	ldw	r4,-20(fp)
    2f0c:	1105c83a 	sub	r2,r2,r4
    2f10:	1889283a 	div	r4,r3,r2
    2f14:	2085383a 	mul	r2,r4,r2
    2f18:	1887c83a 	sub	r3,r3,r2
    2f1c:	e0bffb17 	ldw	r2,-20(fp)
    2f20:	1885883a 	add	r2,r3,r2
    2f24:	e0bffc15 	stw	r2,-16(fp)
    2f28:	e0bffb17 	ldw	r2,-20(fp)
    2f2c:	1085883a 	add	r2,r2,r2
    2f30:	1007883a 	mov	r3,r2
    2f34:	e0bffe17 	ldw	r2,-8(fp)
    2f38:	10c5883a 	add	r2,r2,r3
    2f3c:	1080000b 	ldhu	r2,0(r2)
    2f40:	10bfffcc 	andi	r2,r2,65535
    2f44:	10a0001c 	xori	r2,r2,32768
    2f48:	10a00004 	addi	r2,r2,-32768
    2f4c:	e0bffd15 	stw	r2,-12(fp)
    2f50:	e0bffb17 	ldw	r2,-20(fp)
    2f54:	1085883a 	add	r2,r2,r2
    2f58:	1007883a 	mov	r3,r2
    2f5c:	e0bffe17 	ldw	r2,-8(fp)
    2f60:	10c7883a 	add	r3,r2,r3
    2f64:	e0bffc17 	ldw	r2,-16(fp)
    2f68:	1085883a 	add	r2,r2,r2
    2f6c:	1009883a 	mov	r4,r2
    2f70:	e0bffe17 	ldw	r2,-8(fp)
    2f74:	1105883a 	add	r2,r2,r4
    2f78:	1080000b 	ldhu	r2,0(r2)
    2f7c:	1880000d 	sth	r2,0(r3)
    2f80:	e0bffc17 	ldw	r2,-16(fp)
    2f84:	1085883a 	add	r2,r2,r2
    2f88:	1007883a 	mov	r3,r2
    2f8c:	e0bffe17 	ldw	r2,-8(fp)
    2f90:	10c5883a 	add	r2,r2,r3
    2f94:	e0fffd17 	ldw	r3,-12(fp)
    2f98:	10c0000d 	sth	r3,0(r2)
    2f9c:	e0bffb17 	ldw	r2,-20(fp)
    2fa0:	1085883a 	add	r2,r2,r2
    2fa4:	1007883a 	mov	r3,r2
    2fa8:	e0bfff17 	ldw	r2,-4(fp)
    2fac:	10c5883a 	add	r2,r2,r3
    2fb0:	1080000b 	ldhu	r2,0(r2)
    2fb4:	10bfffcc 	andi	r2,r2,65535
    2fb8:	10a0001c 	xori	r2,r2,32768
    2fbc:	10a00004 	addi	r2,r2,-32768
    2fc0:	e0bffd15 	stw	r2,-12(fp)
    2fc4:	e0bffb17 	ldw	r2,-20(fp)
    2fc8:	1085883a 	add	r2,r2,r2
    2fcc:	1007883a 	mov	r3,r2
    2fd0:	e0bfff17 	ldw	r2,-4(fp)
    2fd4:	10c7883a 	add	r3,r2,r3
    2fd8:	e0bffc17 	ldw	r2,-16(fp)
    2fdc:	1085883a 	add	r2,r2,r2
    2fe0:	1009883a 	mov	r4,r2
    2fe4:	e0bfff17 	ldw	r2,-4(fp)
    2fe8:	1105883a 	add	r2,r2,r4
    2fec:	1080000b 	ldhu	r2,0(r2)
    2ff0:	1880000d 	sth	r2,0(r3)
    2ff4:	e0bffc17 	ldw	r2,-16(fp)
    2ff8:	1085883a 	add	r2,r2,r2
    2ffc:	1007883a 	mov	r3,r2
    3000:	e0bfff17 	ldw	r2,-4(fp)
    3004:	10c5883a 	add	r2,r2,r3
    3008:	e0fffd17 	ldw	r3,-12(fp)
    300c:	10c0000d 	sth	r3,0(r2)
    3010:	e0bffb17 	ldw	r2,-20(fp)
    3014:	10800044 	addi	r2,r2,1
    3018:	e0bffb15 	stw	r2,-20(fp)
    301c:	e0fffb17 	ldw	r3,-20(fp)
    3020:	00800074 	movhi	r2,1
    3024:	108affc4 	addi	r2,r2,11263
    3028:	10ffb30e 	bge	r2,r3,2ef8 <__alt_mem_VGA_Subsystem_Char_Buf_Subsystem_Onchip_SRAM+0xf7002ef8>
    302c:	0001883a 	nop
    3030:	e037883a 	mov	sp,fp
    3034:	dfc00117 	ldw	ra,4(sp)
    3038:	df000017 	ldw	fp,0(sp)
    303c:	dec00204 	addi	sp,sp,8
    3040:	f800283a 	ret

00003044 <charRandS>:
    3044:	defff704 	addi	sp,sp,-36
    3048:	dfc00815 	stw	ra,32(sp)
    304c:	df000715 	stw	fp,28(sp)
    3050:	df000704 	addi	fp,sp,28
    3054:	e13ffe15 	stw	r4,-8(fp)
    3058:	e17fff15 	stw	r5,-4(fp)
    305c:	e03ffa15 	stw	zero,-24(fp)
    3060:	00001f06 	br	30e0 <charRandS+0x9c>
    3064:	e03ff915 	stw	zero,-28(fp)
    3068:	00001706 	br	30c8 <charRandS+0x84>
    306c:	e0bffa17 	ldw	r2,-24(fp)
    3070:	10c01424 	muli	r3,r2,80
    3074:	e0bff917 	ldw	r2,-28(fp)
    3078:	1885883a 	add	r2,r3,r2
    307c:	1085883a 	add	r2,r2,r2
    3080:	1007883a 	mov	r3,r2
    3084:	e0bffe17 	ldw	r2,-8(fp)
    3088:	10c5883a 	add	r2,r2,r3
    308c:	e0fff917 	ldw	r3,-28(fp)
    3090:	10c0000d 	sth	r3,0(r2)
    3094:	e0bffa17 	ldw	r2,-24(fp)
    3098:	10c01424 	muli	r3,r2,80
    309c:	e0bff917 	ldw	r2,-28(fp)
    30a0:	1885883a 	add	r2,r3,r2
    30a4:	1085883a 	add	r2,r2,r2
    30a8:	1007883a 	mov	r3,r2
    30ac:	e0bfff17 	ldw	r2,-4(fp)
    30b0:	10c5883a 	add	r2,r2,r3
    30b4:	e0fffa17 	ldw	r3,-24(fp)
    30b8:	10c0000d 	sth	r3,0(r2)
    30bc:	e0bff917 	ldw	r2,-28(fp)
    30c0:	10800044 	addi	r2,r2,1
    30c4:	e0bff915 	stw	r2,-28(fp)
    30c8:	e0bff917 	ldw	r2,-28(fp)
    30cc:	10801410 	cmplti	r2,r2,80
    30d0:	103fe61e 	bne	r2,zero,306c <__alt_mem_VGA_Subsystem_Char_Buf_Subsystem_Onchip_SRAM+0xf700306c>
    30d4:	e0bffa17 	ldw	r2,-24(fp)
    30d8:	10800044 	addi	r2,r2,1
    30dc:	e0bffa15 	stw	r2,-24(fp)
    30e0:	e0bffa17 	ldw	r2,-24(fp)
    30e4:	10800f10 	cmplti	r2,r2,60
    30e8:	103fde1e 	bne	r2,zero,3064 <__alt_mem_VGA_Subsystem_Char_Buf_Subsystem_Onchip_SRAM+0xf7003064>
    30ec:	e03ffb15 	stw	zero,-20(fp)
    30f0:	00004806 	br	3214 <charRandS+0x1d0>
    30f4:	000541c0 	call	541c <rand>
    30f8:	1007883a 	mov	r3,r2
    30fc:	0104b004 	movi	r4,4800
    3100:	e0bffb17 	ldw	r2,-20(fp)
    3104:	2085c83a 	sub	r2,r4,r2
    3108:	1889283a 	div	r4,r3,r2
    310c:	2085383a 	mul	r2,r4,r2
    3110:	1887c83a 	sub	r3,r3,r2
    3114:	e0bffb17 	ldw	r2,-20(fp)
    3118:	1885883a 	add	r2,r3,r2
    311c:	e0bffc15 	stw	r2,-16(fp)
    3120:	e0bffb17 	ldw	r2,-20(fp)
    3124:	1085883a 	add	r2,r2,r2
    3128:	1007883a 	mov	r3,r2
    312c:	e0bffe17 	ldw	r2,-8(fp)
    3130:	10c5883a 	add	r2,r2,r3
    3134:	1080000b 	ldhu	r2,0(r2)
    3138:	10bfffcc 	andi	r2,r2,65535
    313c:	10a0001c 	xori	r2,r2,32768
    3140:	10a00004 	addi	r2,r2,-32768
    3144:	e0bffd15 	stw	r2,-12(fp)
    3148:	e0bffb17 	ldw	r2,-20(fp)
    314c:	1085883a 	add	r2,r2,r2
    3150:	1007883a 	mov	r3,r2
    3154:	e0bffe17 	ldw	r2,-8(fp)
    3158:	10c7883a 	add	r3,r2,r3
    315c:	e0bffc17 	ldw	r2,-16(fp)
    3160:	1085883a 	add	r2,r2,r2
    3164:	1009883a 	mov	r4,r2
    3168:	e0bffe17 	ldw	r2,-8(fp)
    316c:	1105883a 	add	r2,r2,r4
    3170:	1080000b 	ldhu	r2,0(r2)
    3174:	1880000d 	sth	r2,0(r3)
    3178:	e0bffc17 	ldw	r2,-16(fp)
    317c:	1085883a 	add	r2,r2,r2
    3180:	1007883a 	mov	r3,r2
    3184:	e0bffe17 	ldw	r2,-8(fp)
    3188:	10c5883a 	add	r2,r2,r3
    318c:	e0fffd17 	ldw	r3,-12(fp)
    3190:	10c0000d 	sth	r3,0(r2)
    3194:	e0bffb17 	ldw	r2,-20(fp)
    3198:	1085883a 	add	r2,r2,r2
    319c:	1007883a 	mov	r3,r2
    31a0:	e0bfff17 	ldw	r2,-4(fp)
    31a4:	10c5883a 	add	r2,r2,r3
    31a8:	1080000b 	ldhu	r2,0(r2)
    31ac:	10bfffcc 	andi	r2,r2,65535
    31b0:	10a0001c 	xori	r2,r2,32768
    31b4:	10a00004 	addi	r2,r2,-32768
    31b8:	e0bffd15 	stw	r2,-12(fp)
    31bc:	e0bffb17 	ldw	r2,-20(fp)
    31c0:	1085883a 	add	r2,r2,r2
    31c4:	1007883a 	mov	r3,r2
    31c8:	e0bfff17 	ldw	r2,-4(fp)
    31cc:	10c7883a 	add	r3,r2,r3
    31d0:	e0bffc17 	ldw	r2,-16(fp)
    31d4:	1085883a 	add	r2,r2,r2
    31d8:	1009883a 	mov	r4,r2
    31dc:	e0bfff17 	ldw	r2,-4(fp)
    31e0:	1105883a 	add	r2,r2,r4
    31e4:	1080000b 	ldhu	r2,0(r2)
    31e8:	1880000d 	sth	r2,0(r3)
    31ec:	e0bffc17 	ldw	r2,-16(fp)
    31f0:	1085883a 	add	r2,r2,r2
    31f4:	1007883a 	mov	r3,r2
    31f8:	e0bfff17 	ldw	r2,-4(fp)
    31fc:	10c5883a 	add	r2,r2,r3
    3200:	e0fffd17 	ldw	r3,-12(fp)
    3204:	10c0000d 	sth	r3,0(r2)
    3208:	e0bffb17 	ldw	r2,-20(fp)
    320c:	10800044 	addi	r2,r2,1
    3210:	e0bffb15 	stw	r2,-20(fp)
    3214:	e0bffb17 	ldw	r2,-20(fp)
    3218:	1084b010 	cmplti	r2,r2,4800
    321c:	103fb51e 	bne	r2,zero,30f4 <__alt_mem_VGA_Subsystem_Char_Buf_Subsystem_Onchip_SRAM+0xf70030f4>
    3220:	0001883a 	nop
    3224:	e037883a 	mov	sp,fp
    3228:	dfc00117 	ldw	ra,4(sp)
    322c:	df000017 	ldw	fp,0(sp)
    3230:	dec00204 	addi	sp,sp,8
    3234:	f800283a 	ret

00003238 <fadeBGM>:
    3238:	defff604 	addi	sp,sp,-40
    323c:	dfc00915 	stw	ra,36(sp)
    3240:	df000815 	stw	fp,32(sp)
    3244:	df000804 	addi	fp,sp,32
    3248:	e13fff15 	stw	r4,-4(fp)
    324c:	d0a00217 	ldw	r2,-32760(gp)
    3250:	1005feb2 	custom	250,r2,r2,zero
    3254:	00cfe034 	movhi	r3,16256
    3258:	1885fff2 	custom	255,r2,r3,r2
    325c:	e0bffc15 	stw	r2,-16(fp)
    3260:	008fe034 	movhi	r2,16256
    3264:	e0bff815 	stw	r2,-32(fp)
    3268:	e03ffe15 	stw	zero,-8(fp)
    326c:	e03ff915 	stw	zero,-28(fp)
    3270:	00004c06 	br	33a4 <fadeBGM+0x16c>
    3274:	e0fff917 	ldw	r3,-28(fp)
    3278:	00817704 	movi	r2,1500
    327c:	1885283a 	div	r2,r3,r2
    3280:	d0a77a15 	stw	r2,-25112(gp)
    3284:	00bfc834 	movhi	r2,65312
    3288:	108c1004 	addi	r2,r2,12352
    328c:	e0bffd15 	stw	r2,-12(fp)
    3290:	e0bffd17 	ldw	r2,-12(fp)
    3294:	10800117 	ldw	r2,4(r2)
    3298:	e0bffa15 	stw	r2,-24(fp)
    329c:	e0bffa17 	ldw	r2,-24(fp)
    32a0:	10803fec 	andhi	r2,r2,255
    32a4:	10801850 	cmplti	r2,r2,97
    32a8:	1000331e 	bne	r2,zero,3378 <fadeBGM+0x140>
    32ac:	00002a06 	br	3358 <fadeBGM+0x120>
    32b0:	d0a78717 	ldw	r2,-25060(gp)
    32b4:	10c00017 	ldw	r3,0(r2)
    32b8:	008001b4 	movhi	r2,6
    32bc:	10a3dc04 	addi	r2,r2,-28816
    32c0:	18c7883a 	add	r3,r3,r3
    32c4:	18c7883a 	add	r3,r3,r3
    32c8:	10c5883a 	add	r2,r2,r3
    32cc:	10800017 	ldw	r2,0(r2)
    32d0:	1007feb2 	custom	250,r3,r2,zero
    32d4:	e0bff817 	ldw	r2,-32(fp)
    32d8:	1885ff32 	custom	252,r2,r3,r2
    32dc:	1005fe72 	custom	249,r2,r2,zero
    32e0:	e0bffe15 	stw	r2,-8(fp)
    32e4:	e0bffe04 	addi	r2,fp,-8
    32e8:	01c00044 	movi	r7,1
    32ec:	01800044 	movi	r6,1
    32f0:	100b883a 	mov	r5,r2
    32f4:	e13fff17 	ldw	r4,-4(fp)
    32f8:	000726c0 	call	726c <alt_up_audio_write_fifo>
    32fc:	e0bffe04 	addi	r2,fp,-8
    3300:	000f883a 	mov	r7,zero
    3304:	01800044 	movi	r6,1
    3308:	100b883a 	mov	r5,r2
    330c:	e13fff17 	ldw	r4,-4(fp)
    3310:	000726c0 	call	726c <alt_up_audio_write_fifo>
    3314:	e0fff817 	ldw	r3,-32(fp)
    3318:	e0bffc17 	ldw	r2,-16(fp)
    331c:	1885ffb2 	custom	254,r2,r3,r2
    3320:	e0bff815 	stw	r2,-32(fp)
    3324:	d0a78717 	ldw	r2,-25060(gp)
    3328:	10c00017 	ldw	r3,0(r2)
    332c:	18c00044 	addi	r3,r3,1
    3330:	10c00015 	stw	r3,0(r2)
    3334:	d0a78717 	ldw	r2,-25060(gp)
    3338:	10c00017 	ldw	r3,0(r2)
    333c:	d0a00217 	ldw	r2,-32760(gp)
    3340:	18800216 	blt	r3,r2,334c <fadeBGM+0x114>
    3344:	d0a78717 	ldw	r2,-25060(gp)
    3348:	10000015 	stw	zero,0(r2)
    334c:	e0bffd17 	ldw	r2,-12(fp)
    3350:	10800117 	ldw	r2,4(r2)
    3354:	e0bffa15 	stw	r2,-24(fp)
    3358:	e0bffa17 	ldw	r2,-24(fp)
    335c:	10803fec 	andhi	r2,r2,255
    3360:	10000d26 	beq	r2,zero,3398 <fadeBGM+0x160>
    3364:	d0a78717 	ldw	r2,-25060(gp)
    3368:	10800017 	ldw	r2,0(r2)
    336c:	d0e00217 	ldw	r3,-32760(gp)
    3370:	18bfcf0e 	bge	r3,r2,32b0 <__alt_mem_VGA_Subsystem_Char_Buf_Subsystem_Onchip_SRAM+0xf70032b0>
    3374:	00000806 	br	3398 <fadeBGM+0x160>
    3378:	e03ffb15 	stw	zero,-20(fp)
    337c:	00000306 	br	338c <fadeBGM+0x154>
    3380:	e0bffb17 	ldw	r2,-20(fp)
    3384:	10800044 	addi	r2,r2,1
    3388:	e0bffb15 	stw	r2,-20(fp)
    338c:	e0bffb17 	ldw	r2,-20(fp)
    3390:	1089c410 	cmplti	r2,r2,10000
    3394:	103ffa1e 	bne	r2,zero,3380 <__alt_mem_VGA_Subsystem_Char_Buf_Subsystem_Onchip_SRAM+0xf7003380>
    3398:	e0bff917 	ldw	r2,-28(fp)
    339c:	10800044 	addi	r2,r2,1
    33a0:	e0bff915 	stw	r2,-28(fp)
    33a4:	d0e00217 	ldw	r3,-32760(gp)
    33a8:	008006c4 	movi	r2,27
    33ac:	1887283a 	div	r3,r3,r2
    33b0:	e0bff917 	ldw	r2,-28(fp)
    33b4:	18bfaf0e 	bge	r3,r2,3274 <__alt_mem_VGA_Subsystem_Char_Buf_Subsystem_Onchip_SRAM+0xf7003274>
    33b8:	0001883a 	nop
    33bc:	e037883a 	mov	sp,fp
    33c0:	dfc00117 	ldw	ra,4(sp)
    33c4:	df000017 	ldw	fp,0(sp)
    33c8:	dec00204 	addi	sp,sp,8
    33cc:	f800283a 	ret

000033d0 <copyPoint>:
    33d0:	defffc04 	addi	sp,sp,-16
    33d4:	dfc00315 	stw	ra,12(sp)
    33d8:	df000215 	stw	fp,8(sp)
    33dc:	df000204 	addi	fp,sp,8
    33e0:	e13ffe15 	stw	r4,-8(fp)
    33e4:	e17fff15 	stw	r5,-4(fp)
    33e8:	01800204 	movi	r6,8
    33ec:	e17ffe17 	ldw	r5,-8(fp)
    33f0:	e13fff17 	ldw	r4,-4(fp)
    33f4:	00052500 	call	5250 <memcpy>
    33f8:	0001883a 	nop
    33fc:	e037883a 	mov	sp,fp
    3400:	dfc00117 	ldw	ra,4(sp)
    3404:	df000017 	ldw	fp,0(sp)
    3408:	dec00204 	addi	sp,sp,8
    340c:	f800283a 	ret

00003410 <drawCursor>:
    3410:	defff604 	addi	sp,sp,-40
    3414:	dfc00915 	stw	ra,36(sp)
    3418:	df000815 	stw	fp,32(sp)
    341c:	df000804 	addi	fp,sp,32
    3420:	e13ffc15 	stw	r4,-16(fp)
    3424:	e17ffd15 	stw	r5,-12(fp)
    3428:	e1bffe15 	stw	r6,-8(fp)
    342c:	e1ffff15 	stw	r7,-4(fp)
    3430:	e0fffd17 	ldw	r3,-12(fp)
    3434:	e0bffe17 	ldw	r2,-8(fp)
    3438:	100d883a 	mov	r6,r2
    343c:	e0bfff17 	ldw	r2,-4(fp)
    3440:	100f883a 	mov	r7,r2
    3444:	e0bffe17 	ldw	r2,-8(fp)
    3448:	10800084 	addi	r2,r2,2
    344c:	1009883a 	mov	r4,r2
    3450:	e0bfff17 	ldw	r2,-4(fp)
    3454:	10800084 	addi	r2,r2,2
    3458:	100b883a 	mov	r5,r2
    345c:	00800044 	movi	r2,1
    3460:	d8800315 	stw	r2,12(sp)
    3464:	e0800217 	ldw	r2,8(fp)
    3468:	d8800215 	stw	r2,8(sp)
    346c:	d9400115 	stw	r5,4(sp)
    3470:	d9000015 	stw	r4,0(sp)
    3474:	180b883a 	mov	r5,r3
    3478:	e13ffc17 	ldw	r4,-16(fp)
    347c:	0007ec40 	call	7ec4 <alt_up_video_dma_draw_box>
    3480:	0001883a 	nop
    3484:	e037883a 	mov	sp,fp
    3488:	dfc00117 	ldw	ra,4(sp)
    348c:	df000017 	ldw	fp,0(sp)
    3490:	dec00204 	addi	sp,sp,8
    3494:	f800283a 	ret

00003498 <restoreSplash>:
    3498:	defff304 	addi	sp,sp,-52
    349c:	dfc00c15 	stw	ra,48(sp)
    34a0:	df000b15 	stw	fp,44(sp)
    34a4:	df000b04 	addi	fp,sp,44
    34a8:	e13ffc15 	stw	r4,-16(fp)
    34ac:	e17ffd15 	stw	r5,-12(fp)
    34b0:	e1bffe15 	stw	r6,-8(fp)
    34b4:	e1ffff15 	stw	r7,-4(fp)
    34b8:	e0bffe17 	ldw	r2,-8(fp)
    34bc:	10bfffc4 	addi	r2,r2,-1
    34c0:	e0bff615 	stw	r2,-40(fp)
    34c4:	e0bffe17 	ldw	r2,-8(fp)
    34c8:	108000c4 	addi	r2,r2,3
    34cc:	e0bff715 	stw	r2,-36(fp)
    34d0:	e0bffd17 	ldw	r2,-12(fp)
    34d4:	10bfffc4 	addi	r2,r2,-1
    34d8:	e0bff815 	stw	r2,-32(fp)
    34dc:	e0bffd17 	ldw	r2,-12(fp)
    34e0:	108000c4 	addi	r2,r2,3
    34e4:	e0bff915 	stw	r2,-28(fp)
    34e8:	e0bffe17 	ldw	r2,-8(fp)
    34ec:	10000626 	beq	r2,zero,3508 <restoreSplash+0x70>
    34f0:	e0bffe17 	ldw	r2,-8(fp)
    34f4:	1007883a 	mov	r3,r2
    34f8:	e0bffc17 	ldw	r2,-16(fp)
    34fc:	10801217 	ldw	r2,72(r2)
    3500:	10bfff44 	addi	r2,r2,-3
    3504:	1880061e 	bne	r3,r2,3520 <restoreSplash+0x88>
    3508:	e0bff617 	ldw	r2,-40(fp)
    350c:	10800044 	addi	r2,r2,1
    3510:	e0bff615 	stw	r2,-40(fp)
    3514:	e0bff717 	ldw	r2,-36(fp)
    3518:	10bfffc4 	addi	r2,r2,-1
    351c:	e0bff715 	stw	r2,-36(fp)
    3520:	e0bffd17 	ldw	r2,-12(fp)
    3524:	10000626 	beq	r2,zero,3540 <restoreSplash+0xa8>
    3528:	e0bffd17 	ldw	r2,-12(fp)
    352c:	1007883a 	mov	r3,r2
    3530:	e0bffc17 	ldw	r2,-16(fp)
    3534:	10801117 	ldw	r2,68(r2)
    3538:	10bfff44 	addi	r2,r2,-3
    353c:	1880061e 	bne	r3,r2,3558 <restoreSplash+0xc0>
    3540:	e0bff817 	ldw	r2,-32(fp)
    3544:	10800044 	addi	r2,r2,1
    3548:	e0bff815 	stw	r2,-32(fp)
    354c:	e0bff917 	ldw	r2,-28(fp)
    3550:	10bfffc4 	addi	r2,r2,-1
    3554:	e0bff915 	stw	r2,-28(fp)
    3558:	e0bff617 	ldw	r2,-40(fp)
    355c:	e0bffa15 	stw	r2,-24(fp)
    3560:	00002106 	br	35e8 <restoreSplash+0x150>
    3564:	e0bff817 	ldw	r2,-32(fp)
    3568:	e0bffb15 	stw	r2,-20(fp)
    356c:	00001806 	br	35d0 <restoreSplash+0x138>
    3570:	e0bffa17 	ldw	r2,-24(fp)
    3574:	10c05024 	muli	r3,r2,320
    3578:	e0bffb17 	ldw	r2,-20(fp)
    357c:	1885883a 	add	r2,r3,r2
    3580:	1085883a 	add	r2,r2,r2
    3584:	1007883a 	mov	r3,r2
    3588:	e0bfff17 	ldw	r2,-4(fp)
    358c:	10c5883a 	add	r2,r2,r3
    3590:	1080000b 	ldhu	r2,0(r2)
    3594:	10ffffcc 	andi	r3,r2,65535
    3598:	18e0001c 	xori	r3,r3,32768
    359c:	18e00004 	addi	r3,r3,-32768
    35a0:	e13ffb17 	ldw	r4,-20(fp)
    35a4:	e17ffa17 	ldw	r5,-24(fp)
    35a8:	e0800217 	ldw	r2,8(fp)
    35ac:	d8800015 	stw	r2,0(sp)
    35b0:	280f883a 	mov	r7,r5
    35b4:	200d883a 	mov	r6,r4
    35b8:	180b883a 	mov	r5,r3
    35bc:	e13ffc17 	ldw	r4,-16(fp)
    35c0:	0007c080 	call	7c08 <alt_up_video_dma_draw>
    35c4:	e0bffb17 	ldw	r2,-20(fp)
    35c8:	10800044 	addi	r2,r2,1
    35cc:	e0bffb15 	stw	r2,-20(fp)
    35d0:	e0bffb17 	ldw	r2,-20(fp)
    35d4:	e0fff917 	ldw	r3,-28(fp)
    35d8:	18bfe50e 	bge	r3,r2,3570 <__alt_mem_VGA_Subsystem_Char_Buf_Subsystem_Onchip_SRAM+0xf7003570>
    35dc:	e0bffa17 	ldw	r2,-24(fp)
    35e0:	10800044 	addi	r2,r2,1
    35e4:	e0bffa15 	stw	r2,-24(fp)
    35e8:	e0bffa17 	ldw	r2,-24(fp)
    35ec:	e0fff717 	ldw	r3,-36(fp)
    35f0:	18bfdc0e 	bge	r3,r2,3564 <__alt_mem_VGA_Subsystem_Char_Buf_Subsystem_Onchip_SRAM+0xf7003564>
    35f4:	0001883a 	nop
    35f8:	e037883a 	mov	sp,fp
    35fc:	dfc00117 	ldw	ra,4(sp)
    3600:	df000017 	ldw	fp,0(sp)
    3604:	dec00204 	addi	sp,sp,8
    3608:	f800283a 	ret

0000360c <moveMouse>:
    360c:	defffa04 	addi	sp,sp,-24
    3610:	dfc00515 	stw	ra,20(sp)
    3614:	df000415 	stw	fp,16(sp)
    3618:	df000404 	addi	fp,sp,16
    361c:	e13ffc15 	stw	r4,-16(fp)
    3620:	e17ffd15 	stw	r5,-12(fp)
    3624:	e1bffe15 	stw	r6,-8(fp)
    3628:	e1ffff15 	stw	r7,-4(fp)
    362c:	e0bffe17 	ldw	r2,-8(fp)
    3630:	10c00017 	ldw	r3,0(r2)
    3634:	d0a7888b 	ldhu	r2,-25054(gp)
    3638:	10bfffcc 	andi	r2,r2,65535
    363c:	10a0001c 	xori	r2,r2,32768
    3640:	10a00004 	addi	r2,r2,-32768
    3644:	1885883a 	add	r2,r3,r2
    3648:	10000c16 	blt	r2,zero,367c <moveMouse+0x70>
    364c:	e0bffe17 	ldw	r2,-8(fp)
    3650:	10c00017 	ldw	r3,0(r2)
    3654:	d0a7888b 	ldhu	r2,-25054(gp)
    3658:	10bfffcc 	andi	r2,r2,65535
    365c:	10a0001c 	xori	r2,r2,32768
    3660:	10a00004 	addi	r2,r2,-32768
    3664:	1885883a 	add	r2,r3,r2
    3668:	1007883a 	mov	r3,r2
    366c:	e0bffd17 	ldw	r2,-12(fp)
    3670:	10801117 	ldw	r2,68(r2)
    3674:	10bfff44 	addi	r2,r2,-3
    3678:	10c0122e 	bgeu	r2,r3,36c4 <moveMouse+0xb8>
    367c:	e0bffe17 	ldw	r2,-8(fp)
    3680:	10c00017 	ldw	r3,0(r2)
    3684:	d0a7888b 	ldhu	r2,-25054(gp)
    3688:	10bfffcc 	andi	r2,r2,65535
    368c:	10a0001c 	xori	r2,r2,32768
    3690:	10a00004 	addi	r2,r2,-32768
    3694:	1885883a 	add	r2,r3,r2
    3698:	1000030e 	bge	r2,zero,36a8 <moveMouse+0x9c>
    369c:	e0bffe17 	ldw	r2,-8(fp)
    36a0:	10000015 	stw	zero,0(r2)
    36a4:	00001006 	br	36e8 <moveMouse+0xdc>
    36a8:	e0bffd17 	ldw	r2,-12(fp)
    36ac:	10801117 	ldw	r2,68(r2)
    36b0:	10bfff44 	addi	r2,r2,-3
    36b4:	1007883a 	mov	r3,r2
    36b8:	e0bffe17 	ldw	r2,-8(fp)
    36bc:	10c00015 	stw	r3,0(r2)
    36c0:	00000906 	br	36e8 <moveMouse+0xdc>
    36c4:	e0bfff17 	ldw	r2,-4(fp)
    36c8:	10c00017 	ldw	r3,0(r2)
    36cc:	d0a7888b 	ldhu	r2,-25054(gp)
    36d0:	10bfffcc 	andi	r2,r2,65535
    36d4:	10a0001c 	xori	r2,r2,32768
    36d8:	10a00004 	addi	r2,r2,-32768
    36dc:	1887883a 	add	r3,r3,r2
    36e0:	e0bffe17 	ldw	r2,-8(fp)
    36e4:	10c00015 	stw	r3,0(r2)
    36e8:	e0bffe17 	ldw	r2,-8(fp)
    36ec:	10c00117 	ldw	r3,4(r2)
    36f0:	d0a77f0b 	ldhu	r2,-25092(gp)
    36f4:	10bfffcc 	andi	r2,r2,65535
    36f8:	10a0001c 	xori	r2,r2,32768
    36fc:	10a00004 	addi	r2,r2,-32768
    3700:	1885883a 	add	r2,r3,r2
    3704:	10000c16 	blt	r2,zero,3738 <moveMouse+0x12c>
    3708:	e0bffe17 	ldw	r2,-8(fp)
    370c:	10c00117 	ldw	r3,4(r2)
    3710:	d0a77f0b 	ldhu	r2,-25092(gp)
    3714:	10bfffcc 	andi	r2,r2,65535
    3718:	10a0001c 	xori	r2,r2,32768
    371c:	10a00004 	addi	r2,r2,-32768
    3720:	1885883a 	add	r2,r3,r2
    3724:	1007883a 	mov	r3,r2
    3728:	e0bffd17 	ldw	r2,-12(fp)
    372c:	10801217 	ldw	r2,72(r2)
    3730:	10bfff44 	addi	r2,r2,-3
    3734:	10c0122e 	bgeu	r2,r3,3780 <moveMouse+0x174>
    3738:	e0bffe17 	ldw	r2,-8(fp)
    373c:	10c00117 	ldw	r3,4(r2)
    3740:	d0a77f0b 	ldhu	r2,-25092(gp)
    3744:	10bfffcc 	andi	r2,r2,65535
    3748:	10a0001c 	xori	r2,r2,32768
    374c:	10a00004 	addi	r2,r2,-32768
    3750:	1885883a 	add	r2,r3,r2
    3754:	1000030e 	bge	r2,zero,3764 <moveMouse+0x158>
    3758:	e0bffe17 	ldw	r2,-8(fp)
    375c:	10000115 	stw	zero,4(r2)
    3760:	00001006 	br	37a4 <moveMouse+0x198>
    3764:	e0bffd17 	ldw	r2,-12(fp)
    3768:	10801217 	ldw	r2,72(r2)
    376c:	10bfff44 	addi	r2,r2,-3
    3770:	1007883a 	mov	r3,r2
    3774:	e0bffe17 	ldw	r2,-8(fp)
    3778:	10c00115 	stw	r3,4(r2)
    377c:	00000906 	br	37a4 <moveMouse+0x198>
    3780:	e0bfff17 	ldw	r2,-4(fp)
    3784:	10c00117 	ldw	r3,4(r2)
    3788:	d0a77f0b 	ldhu	r2,-25092(gp)
    378c:	10bfffcc 	andi	r2,r2,65535
    3790:	10a0001c 	xori	r2,r2,32768
    3794:	10a00004 	addi	r2,r2,-32768
    3798:	1887883a 	add	r3,r3,r2
    379c:	e0bffe17 	ldw	r2,-8(fp)
    37a0:	10c00115 	stw	r3,4(r2)
    37a4:	e1400217 	ldw	r5,8(fp)
    37a8:	e13fff17 	ldw	r4,-4(fp)
    37ac:	00033d00 	call	33d0 <copyPoint>
    37b0:	e17fff17 	ldw	r5,-4(fp)
    37b4:	e13ffe17 	ldw	r4,-8(fp)
    37b8:	00033d00 	call	33d0 <copyPoint>
    37bc:	e13ffc17 	ldw	r4,-16(fp)
    37c0:	00079240 	call	7924 <alt_up_ps2_clear_fifo>
    37c4:	0001883a 	nop
    37c8:	e037883a 	mov	sp,fp
    37cc:	dfc00117 	ldw	ra,4(sp)
    37d0:	df000017 	ldw	fp,0(sp)
    37d4:	dec00204 	addi	sp,sp,8
    37d8:	f800283a 	ret

000037dc <openPS2Device>:
    37dc:	defffd04 	addi	sp,sp,-12
    37e0:	dfc00215 	stw	ra,8(sp)
    37e4:	df000115 	stw	fp,4(sp)
    37e8:	df000104 	addi	fp,sp,4
    37ec:	e13fff15 	stw	r4,-4(fp)
    37f0:	010001b4 	movhi	r4,6
    37f4:	2122ce04 	addi	r4,r4,-29896
    37f8:	0007aa00 	call	7aa0 <alt_up_ps2_open_dev>
    37fc:	1007883a 	mov	r3,r2
    3800:	e0bfff17 	ldw	r2,-4(fp)
    3804:	10c00015 	stw	r3,0(r2)
    3808:	e0bfff17 	ldw	r2,-4(fp)
    380c:	10800017 	ldw	r2,0(r2)
    3810:	1000051e 	bne	r2,zero,3828 <openPS2Device+0x4c>
    3814:	010001b4 	movhi	r4,6
    3818:	2122d204 	addi	r4,r4,-29880
    381c:	00057c40 	call	57c4 <alt_printf>
    3820:	00bfffc4 	movi	r2,-1
    3824:	00001c06 	br	3898 <openPS2Device+0xbc>
    3828:	010001b4 	movhi	r4,6
    382c:	2122db04 	addi	r4,r4,-29844
    3830:	00057c40 	call	57c4 <alt_printf>
    3834:	e0bfff17 	ldw	r2,-4(fp)
    3838:	10800017 	ldw	r2,0(r2)
    383c:	d0a77c15 	stw	r2,-25104(gp)
    3840:	d0a77c17 	ldw	r2,-25104(gp)
    3844:	01403fc4 	movi	r5,255
    3848:	1009883a 	mov	r4,r2
    384c:	00076d80 	call	76d8 <alt_up_ps2_write_data_byte>
    3850:	e0bfff17 	ldw	r2,-4(fp)
    3854:	10800017 	ldw	r2,0(r2)
    3858:	01403fc4 	movi	r5,255
    385c:	1009883a 	mov	r4,r2
    3860:	00076d80 	call	76d8 <alt_up_ps2_write_data_byte>
    3864:	d0a77c17 	ldw	r2,-25104(gp)
    3868:	01403d04 	movi	r5,244
    386c:	1009883a 	mov	r4,r2
    3870:	00076d80 	call	76d8 <alt_up_ps2_write_data_byte>
    3874:	e0bfff17 	ldw	r2,-4(fp)
    3878:	10800017 	ldw	r2,0(r2)
    387c:	1009883a 	mov	r4,r2
    3880:	000761c0 	call	761c <alt_up_ps2_enable_read_interrupt>
    3884:	e0bfff17 	ldw	r2,-4(fp)
    3888:	10800017 	ldw	r2,0(r2)
    388c:	1009883a 	mov	r4,r2
    3890:	00079240 	call	7924 <alt_up_ps2_clear_fifo>
    3894:	0005883a 	mov	r2,zero
    3898:	e037883a 	mov	sp,fp
    389c:	dfc00117 	ldw	ra,4(sp)
    38a0:	df000017 	ldw	fp,0(sp)
    38a4:	dec00204 	addi	sp,sp,8
    38a8:	f800283a 	ret

000038ac <openAudioDevice>:
    38ac:	defffd04 	addi	sp,sp,-12
    38b0:	dfc00215 	stw	ra,8(sp)
    38b4:	df000115 	stw	fp,4(sp)
    38b8:	df000104 	addi	fp,sp,4
    38bc:	e13fff15 	stw	r4,-4(fp)
    38c0:	010001b4 	movhi	r4,6
    38c4:	2122e004 	addi	r4,r4,-29824
    38c8:	0006c840 	call	6c84 <alt_up_audio_open_dev>
    38cc:	1007883a 	mov	r3,r2
    38d0:	e0bfff17 	ldw	r2,-4(fp)
    38d4:	10c00015 	stw	r3,0(r2)
    38d8:	e0bfff17 	ldw	r2,-4(fp)
    38dc:	10800017 	ldw	r2,0(r2)
    38e0:	1000051e 	bne	r2,zero,38f8 <openAudioDevice+0x4c>
    38e4:	010001b4 	movhi	r4,6
    38e8:	2122e704 	addi	r4,r4,-29796
    38ec:	00057c40 	call	57c4 <alt_printf>
    38f0:	00bfffc4 	movi	r2,-1
    38f4:	00000a06 	br	3920 <openAudioDevice+0x74>
    38f8:	010001b4 	movhi	r4,6
    38fc:	2122f104 	addi	r4,r4,-29756
    3900:	00057c40 	call	57c4 <alt_printf>
    3904:	e0bfff17 	ldw	r2,-4(fp)
    3908:	10800017 	ldw	r2,0(r2)
    390c:	d0a77d15 	stw	r2,-25100(gp)
    3910:	d0a77d17 	ldw	r2,-25100(gp)
    3914:	1009883a 	mov	r4,r2
    3918:	0006e980 	call	6e98 <alt_up_audio_reset_audio_core>
    391c:	0005883a 	mov	r2,zero
    3920:	e037883a 	mov	sp,fp
    3924:	dfc00117 	ldw	ra,4(sp)
    3928:	df000017 	ldw	fp,0(sp)
    392c:	dec00204 	addi	sp,sp,8
    3930:	f800283a 	ret

00003934 <resampleColours>:
    3934:	defffb04 	addi	sp,sp,-20
    3938:	df000415 	stw	fp,16(sp)
    393c:	df000404 	addi	fp,sp,16
    3940:	e13ffc15 	stw	r4,-16(fp)
    3944:	e17ffd15 	stw	r5,-12(fp)
    3948:	e1bffe15 	stw	r6,-8(fp)
    394c:	e1ffff15 	stw	r7,-4(fp)
    3950:	e0bffc17 	ldw	r2,-16(fp)
    3954:	10801017 	ldw	r2,64(r2)
    3958:	10800058 	cmpnei	r2,r2,1
    395c:	1000511e 	bne	r2,zero,3aa4 <resampleColours+0x170>
    3960:	e0bffd17 	ldw	r2,-12(fp)
    3964:	10800017 	ldw	r2,0(r2)
    3968:	1005d43a 	srai	r2,r2,16
    396c:	10c0380c 	andi	r3,r2,224
    3970:	e0bffd17 	ldw	r2,-12(fp)
    3974:	10800017 	ldw	r2,0(r2)
    3978:	1005d2fa 	srai	r2,r2,11
    397c:	1080070c 	andi	r2,r2,28
    3980:	1886b03a 	or	r3,r3,r2
    3984:	e0bffd17 	ldw	r2,-12(fp)
    3988:	10800017 	ldw	r2,0(r2)
    398c:	1005d1ba 	srai	r2,r2,6
    3990:	108000cc 	andi	r2,r2,3
    3994:	1886b03a 	or	r3,r3,r2
    3998:	e0bffd17 	ldw	r2,-12(fp)
    399c:	10c00015 	stw	r3,0(r2)
    39a0:	e0bffe17 	ldw	r2,-8(fp)
    39a4:	10800017 	ldw	r2,0(r2)
    39a8:	1005d43a 	srai	r2,r2,16
    39ac:	10c0380c 	andi	r3,r2,224
    39b0:	e0bffe17 	ldw	r2,-8(fp)
    39b4:	10800017 	ldw	r2,0(r2)
    39b8:	1005d2fa 	srai	r2,r2,11
    39bc:	1080070c 	andi	r2,r2,28
    39c0:	1886b03a 	or	r3,r3,r2
    39c4:	e0bffe17 	ldw	r2,-8(fp)
    39c8:	10800017 	ldw	r2,0(r2)
    39cc:	1005d1ba 	srai	r2,r2,6
    39d0:	108000cc 	andi	r2,r2,3
    39d4:	1886b03a 	or	r3,r3,r2
    39d8:	e0bffe17 	ldw	r2,-8(fp)
    39dc:	10c00015 	stw	r3,0(r2)
    39e0:	e0bfff17 	ldw	r2,-4(fp)
    39e4:	10800017 	ldw	r2,0(r2)
    39e8:	1005d43a 	srai	r2,r2,16
    39ec:	10c0380c 	andi	r3,r2,224
    39f0:	e0bfff17 	ldw	r2,-4(fp)
    39f4:	10800017 	ldw	r2,0(r2)
    39f8:	1005d2fa 	srai	r2,r2,11
    39fc:	1080070c 	andi	r2,r2,28
    3a00:	1886b03a 	or	r3,r3,r2
    3a04:	e0bfff17 	ldw	r2,-4(fp)
    3a08:	10800017 	ldw	r2,0(r2)
    3a0c:	1005d1ba 	srai	r2,r2,6
    3a10:	108000cc 	andi	r2,r2,3
    3a14:	1886b03a 	or	r3,r3,r2
    3a18:	e0bfff17 	ldw	r2,-4(fp)
    3a1c:	10c00015 	stw	r3,0(r2)
    3a20:	e0800117 	ldw	r2,4(fp)
    3a24:	10800017 	ldw	r2,0(r2)
    3a28:	1005d43a 	srai	r2,r2,16
    3a2c:	10c0380c 	andi	r3,r2,224
    3a30:	e0800117 	ldw	r2,4(fp)
    3a34:	10800017 	ldw	r2,0(r2)
    3a38:	1005d2fa 	srai	r2,r2,11
    3a3c:	1080070c 	andi	r2,r2,28
    3a40:	1886b03a 	or	r3,r3,r2
    3a44:	e0800117 	ldw	r2,4(fp)
    3a48:	10800017 	ldw	r2,0(r2)
    3a4c:	1005d1ba 	srai	r2,r2,6
    3a50:	108000cc 	andi	r2,r2,3
    3a54:	1886b03a 	or	r3,r3,r2
    3a58:	e0800117 	ldw	r2,4(fp)
    3a5c:	10c00015 	stw	r3,0(r2)
    3a60:	e0800217 	ldw	r2,8(fp)
    3a64:	10800017 	ldw	r2,0(r2)
    3a68:	1005d43a 	srai	r2,r2,16
    3a6c:	10c0380c 	andi	r3,r2,224
    3a70:	e0800217 	ldw	r2,8(fp)
    3a74:	10800017 	ldw	r2,0(r2)
    3a78:	1005d2fa 	srai	r2,r2,11
    3a7c:	1080070c 	andi	r2,r2,28
    3a80:	1886b03a 	or	r3,r3,r2
    3a84:	e0800217 	ldw	r2,8(fp)
    3a88:	10800017 	ldw	r2,0(r2)
    3a8c:	1005d1ba 	srai	r2,r2,6
    3a90:	108000cc 	andi	r2,r2,3
    3a94:	1886b03a 	or	r3,r3,r2
    3a98:	e0800217 	ldw	r2,8(fp)
    3a9c:	10c00015 	stw	r3,0(r2)
    3aa0:	00005406 	br	3bf4 <resampleColours+0x2c0>
    3aa4:	e0bffc17 	ldw	r2,-16(fp)
    3aa8:	10801017 	ldw	r2,64(r2)
    3aac:	10800098 	cmpnei	r2,r2,2
    3ab0:	1000501e 	bne	r2,zero,3bf4 <resampleColours+0x2c0>
    3ab4:	e0bffd17 	ldw	r2,-12(fp)
    3ab8:	10800017 	ldw	r2,0(r2)
    3abc:	1005d23a 	srai	r2,r2,8
    3ac0:	10fe000c 	andi	r3,r2,63488
    3ac4:	e0bffd17 	ldw	r2,-12(fp)
    3ac8:	10800017 	ldw	r2,0(r2)
    3acc:	1005d17a 	srai	r2,r2,5
    3ad0:	1081f80c 	andi	r2,r2,2016
    3ad4:	1886b03a 	or	r3,r3,r2
    3ad8:	e0bffd17 	ldw	r2,-12(fp)
    3adc:	10800017 	ldw	r2,0(r2)
    3ae0:	1005d0fa 	srai	r2,r2,3
    3ae4:	108007cc 	andi	r2,r2,31
    3ae8:	1886b03a 	or	r3,r3,r2
    3aec:	e0bffd17 	ldw	r2,-12(fp)
    3af0:	10c00015 	stw	r3,0(r2)
    3af4:	e0bffe17 	ldw	r2,-8(fp)
    3af8:	10800017 	ldw	r2,0(r2)
    3afc:	1005d23a 	srai	r2,r2,8
    3b00:	10fe000c 	andi	r3,r2,63488
    3b04:	e0bffe17 	ldw	r2,-8(fp)
    3b08:	10800017 	ldw	r2,0(r2)
    3b0c:	1005d17a 	srai	r2,r2,5
    3b10:	1081f80c 	andi	r2,r2,2016
    3b14:	1886b03a 	or	r3,r3,r2
    3b18:	e0bffe17 	ldw	r2,-8(fp)
    3b1c:	10800017 	ldw	r2,0(r2)
    3b20:	1005d0fa 	srai	r2,r2,3
    3b24:	108007cc 	andi	r2,r2,31
    3b28:	1886b03a 	or	r3,r3,r2
    3b2c:	e0bffe17 	ldw	r2,-8(fp)
    3b30:	10c00015 	stw	r3,0(r2)
    3b34:	e0bfff17 	ldw	r2,-4(fp)
    3b38:	10800017 	ldw	r2,0(r2)
    3b3c:	1005d23a 	srai	r2,r2,8
    3b40:	10fe000c 	andi	r3,r2,63488
    3b44:	e0bfff17 	ldw	r2,-4(fp)
    3b48:	10800017 	ldw	r2,0(r2)
    3b4c:	1005d17a 	srai	r2,r2,5
    3b50:	1081f80c 	andi	r2,r2,2016
    3b54:	1886b03a 	or	r3,r3,r2
    3b58:	e0bfff17 	ldw	r2,-4(fp)
    3b5c:	10800017 	ldw	r2,0(r2)
    3b60:	1005d0fa 	srai	r2,r2,3
    3b64:	108007cc 	andi	r2,r2,31
    3b68:	1886b03a 	or	r3,r3,r2
    3b6c:	e0bfff17 	ldw	r2,-4(fp)
    3b70:	10c00015 	stw	r3,0(r2)
    3b74:	e0800117 	ldw	r2,4(fp)
    3b78:	10800017 	ldw	r2,0(r2)
    3b7c:	1005d23a 	srai	r2,r2,8
    3b80:	10fe000c 	andi	r3,r2,63488
    3b84:	e0800117 	ldw	r2,4(fp)
    3b88:	10800017 	ldw	r2,0(r2)
    3b8c:	1005d17a 	srai	r2,r2,5
    3b90:	1081f80c 	andi	r2,r2,2016
    3b94:	1886b03a 	or	r3,r3,r2
    3b98:	e0800117 	ldw	r2,4(fp)
    3b9c:	10800017 	ldw	r2,0(r2)
    3ba0:	1005d0fa 	srai	r2,r2,3
    3ba4:	108007cc 	andi	r2,r2,31
    3ba8:	1886b03a 	or	r3,r3,r2
    3bac:	e0800117 	ldw	r2,4(fp)
    3bb0:	10c00015 	stw	r3,0(r2)
    3bb4:	e0800217 	ldw	r2,8(fp)
    3bb8:	10800017 	ldw	r2,0(r2)
    3bbc:	1005d23a 	srai	r2,r2,8
    3bc0:	10fe000c 	andi	r3,r2,63488
    3bc4:	e0800217 	ldw	r2,8(fp)
    3bc8:	10800017 	ldw	r2,0(r2)
    3bcc:	1005d17a 	srai	r2,r2,5
    3bd0:	1081f80c 	andi	r2,r2,2016
    3bd4:	1886b03a 	or	r3,r3,r2
    3bd8:	e0800217 	ldw	r2,8(fp)
    3bdc:	10800017 	ldw	r2,0(r2)
    3be0:	1005d0fa 	srai	r2,r2,3
    3be4:	108007cc 	andi	r2,r2,31
    3be8:	1886b03a 	or	r3,r3,r2
    3bec:	e0800217 	ldw	r2,8(fp)
    3bf0:	10c00015 	stw	r3,0(r2)
    3bf4:	0001883a 	nop
    3bf8:	e037883a 	mov	sp,fp
    3bfc:	df000017 	ldw	fp,0(sp)
    3c00:	dec00104 	addi	sp,sp,4
    3c04:	f800283a 	ret

00003c08 <openPixelDMA>:
    3c08:	defffd04 	addi	sp,sp,-12
    3c0c:	dfc00215 	stw	ra,8(sp)
    3c10:	df000115 	stw	fp,4(sp)
    3c14:	df000104 	addi	fp,sp,4
    3c18:	e13fff15 	stw	r4,-4(fp)
    3c1c:	010001b4 	movhi	r4,6
    3c20:	2122f704 	addi	r4,r4,-29732
    3c24:	0007adc0 	call	7adc <alt_up_video_dma_open_dev>
    3c28:	1007883a 	mov	r3,r2
    3c2c:	e0bfff17 	ldw	r2,-4(fp)
    3c30:	10c00015 	stw	r3,0(r2)
    3c34:	e0bfff17 	ldw	r2,-4(fp)
    3c38:	10800017 	ldw	r2,0(r2)
    3c3c:	1000051e 	bne	r2,zero,3c54 <openPixelDMA+0x4c>
    3c40:	010001b4 	movhi	r4,6
    3c44:	21230004 	addi	r4,r4,-29696
    3c48:	00057c40 	call	57c4 <alt_printf>
    3c4c:	00bfffc4 	movi	r2,-1
    3c50:	00000406 	br	3c64 <openPixelDMA+0x5c>
    3c54:	010001b4 	movhi	r4,6
    3c58:	21230d04 	addi	r4,r4,-29644
    3c5c:	00057c40 	call	57c4 <alt_printf>
    3c60:	0005883a 	mov	r2,zero
    3c64:	e037883a 	mov	sp,fp
    3c68:	dfc00117 	ldw	ra,4(sp)
    3c6c:	df000017 	ldw	fp,0(sp)
    3c70:	dec00204 	addi	sp,sp,8
    3c74:	f800283a 	ret

00003c78 <openCharDMA>:
    3c78:	defffd04 	addi	sp,sp,-12
    3c7c:	dfc00215 	stw	ra,8(sp)
    3c80:	df000115 	stw	fp,4(sp)
    3c84:	df000104 	addi	fp,sp,4
    3c88:	e13fff15 	stw	r4,-4(fp)
    3c8c:	010001b4 	movhi	r4,6
    3c90:	21231604 	addi	r4,r4,-29608
    3c94:	0007adc0 	call	7adc <alt_up_video_dma_open_dev>
    3c98:	1007883a 	mov	r3,r2
    3c9c:	e0bfff17 	ldw	r2,-4(fp)
    3ca0:	10c00015 	stw	r3,0(r2)
    3ca4:	e0bfff17 	ldw	r2,-4(fp)
    3ca8:	10800017 	ldw	r2,0(r2)
    3cac:	1000051e 	bne	r2,zero,3cc4 <openCharDMA+0x4c>
    3cb0:	010001b4 	movhi	r4,6
    3cb4:	21232304 	addi	r4,r4,-29556
    3cb8:	00057c40 	call	57c4 <alt_printf>
    3cbc:	00bfffc4 	movi	r2,-1
    3cc0:	00000406 	br	3cd4 <openCharDMA+0x5c>
    3cc4:	010001b4 	movhi	r4,6
    3cc8:	21233304 	addi	r4,r4,-29492
    3ccc:	00057c40 	call	57c4 <alt_printf>
    3cd0:	0005883a 	mov	r2,zero
    3cd4:	e037883a 	mov	sp,fp
    3cd8:	dfc00117 	ldw	ra,4(sp)
    3cdc:	df000017 	ldw	fp,0(sp)
    3ce0:	dec00204 	addi	sp,sp,8
    3ce4:	f800283a 	ret

00003ce8 <assignPixelBuffers>:
    3ce8:	defffd04 	addi	sp,sp,-12
    3cec:	dfc00215 	stw	ra,8(sp)
    3cf0:	df000115 	stw	fp,4(sp)
    3cf4:	df000104 	addi	fp,sp,4
    3cf8:	e13fff15 	stw	r4,-4(fp)
    3cfc:	01420034 	movhi	r5,2048
    3d00:	e13fff17 	ldw	r4,-4(fp)
    3d04:	0007b180 	call	7b18 <alt_up_video_dma_ctrl_set_bb_addr>
    3d08:	01400044 	movi	r5,1
    3d0c:	e13fff17 	ldw	r4,-4(fp)
    3d10:	00086c00 	call	86c0 <alt_up_video_dma_screen_clear>
    3d14:	e13fff17 	ldw	r4,-4(fp)
    3d18:	0007b740 	call	7b74 <alt_up_video_dma_ctrl_swap_buffers>
    3d1c:	0001883a 	nop
    3d20:	e13fff17 	ldw	r4,-4(fp)
    3d24:	0007bd40 	call	7bd4 <alt_up_video_dma_ctrl_check_swap_status>
    3d28:	103ffd1e 	bne	r2,zero,3d20 <__alt_mem_VGA_Subsystem_Char_Buf_Subsystem_Onchip_SRAM+0xf7003d20>
    3d2c:	01420834 	movhi	r5,2080
    3d30:	e13fff17 	ldw	r4,-4(fp)
    3d34:	0007b180 	call	7b18 <alt_up_video_dma_ctrl_set_bb_addr>
    3d38:	0001883a 	nop
    3d3c:	e037883a 	mov	sp,fp
    3d40:	dfc00117 	ldw	ra,4(sp)
    3d44:	df000017 	ldw	fp,0(sp)
    3d48:	dec00204 	addi	sp,sp,8
    3d4c:	f800283a 	ret

00003d50 <assignCharBuffers>:
    3d50:	defffd04 	addi	sp,sp,-12
    3d54:	dfc00215 	stw	ra,8(sp)
    3d58:	df000115 	stw	fp,4(sp)
    3d5c:	df000104 	addi	fp,sp,4
    3d60:	e13fff15 	stw	r4,-4(fp)
    3d64:	01400044 	movi	r5,1
    3d68:	e13fff17 	ldw	r4,-4(fp)
    3d6c:	00086c00 	call	86c0 <alt_up_video_dma_screen_clear>
    3d70:	01424034 	movhi	r5,2304
    3d74:	e13fff17 	ldw	r4,-4(fp)
    3d78:	0007b180 	call	7b18 <alt_up_video_dma_ctrl_set_bb_addr>
    3d7c:	e13fff17 	ldw	r4,-4(fp)
    3d80:	0007b740 	call	7b74 <alt_up_video_dma_ctrl_swap_buffers>
    3d84:	0001883a 	nop
    3d88:	e13fff17 	ldw	r4,-4(fp)
    3d8c:	0007bd40 	call	7bd4 <alt_up_video_dma_ctrl_check_swap_status>
    3d90:	103ffd1e 	bne	r2,zero,3d88 <__alt_mem_VGA_Subsystem_Char_Buf_Subsystem_Onchip_SRAM+0xf7003d88>
    3d94:	01424034 	movhi	r5,2304
    3d98:	e13fff17 	ldw	r4,-4(fp)
    3d9c:	0007b180 	call	7b18 <alt_up_video_dma_ctrl_set_bb_addr>
    3da0:	01400044 	movi	r5,1
    3da4:	e13fff17 	ldw	r4,-4(fp)
    3da8:	00086c00 	call	86c0 <alt_up_video_dma_screen_clear>
    3dac:	0001883a 	nop
    3db0:	e037883a 	mov	sp,fp
    3db4:	dfc00117 	ldw	ra,4(sp)
    3db8:	df000017 	ldw	fp,0(sp)
    3dbc:	dec00204 	addi	sp,sp,8
    3dc0:	f800283a 	ret

00003dc4 <initSplash>:
    3dc4:	defffb04 	addi	sp,sp,-20
    3dc8:	dfc00415 	stw	ra,16(sp)
    3dcc:	df000315 	stw	fp,12(sp)
    3dd0:	df000304 	addi	fp,sp,12
    3dd4:	e13ffd15 	stw	r4,-12(fp)
    3dd8:	e17ffe15 	stw	r5,-8(fp)
    3ddc:	e1bfff15 	stw	r6,-4(fp)
    3de0:	e1bfff17 	ldw	r6,-4(fp)
    3de4:	e17ffe17 	ldw	r5,-8(fp)
    3de8:	e13ffd17 	ldw	r4,-12(fp)
    3dec:	0002d7c0 	call	2d7c <drawSplash>
    3df0:	e13ffd17 	ldw	r4,-12(fp)
    3df4:	0007b740 	call	7b74 <alt_up_video_dma_ctrl_swap_buffers>
    3df8:	0001883a 	nop
    3dfc:	e13ffd17 	ldw	r4,-12(fp)
    3e00:	0007bd40 	call	7bd4 <alt_up_video_dma_ctrl_check_swap_status>
    3e04:	103ffd1e 	bne	r2,zero,3dfc <__alt_mem_VGA_Subsystem_Char_Buf_Subsystem_Onchip_SRAM+0xf7003dfc>
    3e08:	e1bfff17 	ldw	r6,-4(fp)
    3e0c:	e17ffe17 	ldw	r5,-8(fp)
    3e10:	e13ffd17 	ldw	r4,-12(fp)
    3e14:	0002d7c0 	call	2d7c <drawSplash>
    3e18:	0001883a 	nop
    3e1c:	e037883a 	mov	sp,fp
    3e20:	dfc00117 	ldw	ra,4(sp)
    3e24:	df000017 	ldw	fp,0(sp)
    3e28:	dec00204 	addi	sp,sp,8
    3e2c:	f800283a 	ret

00003e30 <initMouse>:
    3e30:	defff904 	addi	sp,sp,-28
    3e34:	dfc00615 	stw	ra,24(sp)
    3e38:	df000515 	stw	fp,20(sp)
    3e3c:	df000504 	addi	fp,sp,20
    3e40:	e13ffc15 	stw	r4,-16(fp)
    3e44:	e17ffd15 	stw	r5,-12(fp)
    3e48:	e1bffe15 	stw	r6,-8(fp)
    3e4c:	e1ffff15 	stw	r7,-4(fp)
    3e50:	e0bffc17 	ldw	r2,-16(fp)
    3e54:	10801117 	ldw	r2,68(r2)
    3e58:	1004d07a 	srli	r2,r2,1
    3e5c:	1007883a 	mov	r3,r2
    3e60:	e0bffe17 	ldw	r2,-8(fp)
    3e64:	10c00015 	stw	r3,0(r2)
    3e68:	e0bffc17 	ldw	r2,-16(fp)
    3e6c:	10801217 	ldw	r2,72(r2)
    3e70:	1004d07a 	srli	r2,r2,1
    3e74:	1007883a 	mov	r3,r2
    3e78:	e0bffe17 	ldw	r2,-8(fp)
    3e7c:	10c00115 	stw	r3,4(r2)
    3e80:	e0bffe17 	ldw	r2,-8(fp)
    3e84:	e0c00317 	ldw	r3,12(fp)
    3e88:	d8c00015 	stw	r3,0(sp)
    3e8c:	11800017 	ldw	r6,0(r2)
    3e90:	11c00117 	ldw	r7,4(r2)
    3e94:	e17ffd17 	ldw	r5,-12(fp)
    3e98:	e13ffc17 	ldw	r4,-16(fp)
    3e9c:	00034100 	call	3410 <drawCursor>
    3ea0:	e17fff17 	ldw	r5,-4(fp)
    3ea4:	e13ffe17 	ldw	r4,-8(fp)
    3ea8:	00033d00 	call	33d0 <copyPoint>
    3eac:	e1400217 	ldw	r5,8(fp)
    3eb0:	e13ffe17 	ldw	r4,-8(fp)
    3eb4:	00033d00 	call	33d0 <copyPoint>
    3eb8:	0001883a 	nop
    3ebc:	e037883a 	mov	sp,fp
    3ec0:	dfc00117 	ldw	ra,4(sp)
    3ec4:	df000017 	ldw	fp,0(sp)
    3ec8:	dec00204 	addi	sp,sp,8
    3ecc:	f800283a 	ret

00003ed0 <clickedInArea>:
    3ed0:	defffb04 	addi	sp,sp,-20
    3ed4:	df000415 	stw	fp,16(sp)
    3ed8:	df000404 	addi	fp,sp,16
    3edc:	e13ffc15 	stw	r4,-16(fp)
    3ee0:	e17ffd15 	stw	r5,-12(fp)
    3ee4:	e1bffe15 	stw	r6,-8(fp)
    3ee8:	e1ffff15 	stw	r7,-4(fp)
    3eec:	e0fffc17 	ldw	r3,-16(fp)
    3ef0:	e0bffe17 	ldw	r2,-8(fp)
    3ef4:	18800b16 	blt	r3,r2,3f24 <clickedInArea+0x54>
    3ef8:	e0bffc17 	ldw	r2,-16(fp)
    3efc:	e0c00117 	ldw	r3,4(fp)
    3f00:	18800816 	blt	r3,r2,3f24 <clickedInArea+0x54>
    3f04:	e0fffd17 	ldw	r3,-12(fp)
    3f08:	e0bfff17 	ldw	r2,-4(fp)
    3f0c:	18800516 	blt	r3,r2,3f24 <clickedInArea+0x54>
    3f10:	e0bffd17 	ldw	r2,-12(fp)
    3f14:	e0c00217 	ldw	r3,8(fp)
    3f18:	18800216 	blt	r3,r2,3f24 <clickedInArea+0x54>
    3f1c:	00800044 	movi	r2,1
    3f20:	00000106 	br	3f28 <clickedInArea+0x58>
    3f24:	0005883a 	mov	r2,zero
    3f28:	e037883a 	mov	sp,fp
    3f2c:	df000017 	ldw	fp,0(sp)
    3f30:	dec00104 	addi	sp,sp,4
    3f34:	f800283a 	ret

00003f38 <displayInstructionsScreen>:
    3f38:	defffa04 	addi	sp,sp,-24
    3f3c:	dfc00515 	stw	ra,20(sp)
    3f40:	df000415 	stw	fp,16(sp)
    3f44:	df000404 	addi	fp,sp,16
    3f48:	e13ffe15 	stw	r4,-8(fp)
    3f4c:	e17fff15 	stw	r5,-4(fp)
    3f50:	01400044 	movi	r5,1
    3f54:	e13ffe17 	ldw	r4,-8(fp)
    3f58:	00086c00 	call	86c0 <alt_up_video_dma_screen_clear>
    3f5c:	e13ffe17 	ldw	r4,-8(fp)
    3f60:	0007b740 	call	7b74 <alt_up_video_dma_ctrl_swap_buffers>
    3f64:	0001883a 	nop
    3f68:	e13ffe17 	ldw	r4,-8(fp)
    3f6c:	0007bd40 	call	7bd4 <alt_up_video_dma_ctrl_check_swap_status>
    3f70:	103ffd1e 	bne	r2,zero,3f68 <__alt_mem_VGA_Subsystem_Char_Buf_Subsystem_Onchip_SRAM+0xf7003f68>
    3f74:	01400044 	movi	r5,1
    3f78:	e13ffe17 	ldw	r4,-8(fp)
    3f7c:	00086c00 	call	86c0 <alt_up_video_dma_screen_clear>
    3f80:	e03ffd15 	stw	zero,-12(fp)
    3f84:	00800044 	movi	r2,1
    3f88:	d8800015 	stw	r2,0(sp)
    3f8c:	000f883a 	mov	r7,zero
    3f90:	000d883a 	mov	r6,zero
    3f94:	014001b4 	movhi	r5,6
    3f98:	29634004 	addi	r5,r5,-29440
    3f9c:	e13fff17 	ldw	r4,-4(fp)
    3fa0:	000847c0 	call	847c <alt_up_video_dma_draw_string>
    3fa4:	00800044 	movi	r2,1
    3fa8:	d8800015 	stw	r2,0(sp)
    3fac:	01c000c4 	movi	r7,3
    3fb0:	000d883a 	mov	r6,zero
    3fb4:	014001b4 	movhi	r5,6
    3fb8:	29634404 	addi	r5,r5,-29424
    3fbc:	e13fff17 	ldw	r4,-4(fp)
    3fc0:	000847c0 	call	847c <alt_up_video_dma_draw_string>
    3fc4:	00800044 	movi	r2,1
    3fc8:	d8800015 	stw	r2,0(sp)
    3fcc:	01c00184 	movi	r7,6
    3fd0:	000d883a 	mov	r6,zero
    3fd4:	014001b4 	movhi	r5,6
    3fd8:	29634b04 	addi	r5,r5,-29396
    3fdc:	e13fff17 	ldw	r4,-4(fp)
    3fe0:	000847c0 	call	847c <alt_up_video_dma_draw_string>
    3fe4:	00800044 	movi	r2,1
    3fe8:	d8800015 	stw	r2,0(sp)
    3fec:	01c00244 	movi	r7,9
    3ff0:	000d883a 	mov	r6,zero
    3ff4:	014001b4 	movhi	r5,6
    3ff8:	29634e04 	addi	r5,r5,-29384
    3ffc:	e13fff17 	ldw	r4,-4(fp)
    4000:	000847c0 	call	847c <alt_up_video_dma_draw_string>
    4004:	00800044 	movi	r2,1
    4008:	d8800015 	stw	r2,0(sp)
    400c:	01c00304 	movi	r7,12
    4010:	000d883a 	mov	r6,zero
    4014:	014001b4 	movhi	r5,6
    4018:	29635e04 	addi	r5,r5,-29320
    401c:	e13fff17 	ldw	r4,-4(fp)
    4020:	000847c0 	call	847c <alt_up_video_dma_draw_string>
    4024:	00800044 	movi	r2,1
    4028:	d8800015 	stw	r2,0(sp)
    402c:	01c003c4 	movi	r7,15
    4030:	000d883a 	mov	r6,zero
    4034:	014001b4 	movhi	r5,6
    4038:	29636d04 	addi	r5,r5,-29260
    403c:	e13fff17 	ldw	r4,-4(fp)
    4040:	000847c0 	call	847c <alt_up_video_dma_draw_string>
    4044:	00800044 	movi	r2,1
    4048:	d8800015 	stw	r2,0(sp)
    404c:	01c00484 	movi	r7,18
    4050:	000d883a 	mov	r6,zero
    4054:	014001b4 	movhi	r5,6
    4058:	29637304 	addi	r5,r5,-29236
    405c:	e13fff17 	ldw	r4,-4(fp)
    4060:	000847c0 	call	847c <alt_up_video_dma_draw_string>
    4064:	00800044 	movi	r2,1
    4068:	d8800015 	stw	r2,0(sp)
    406c:	01c00544 	movi	r7,21
    4070:	000d883a 	mov	r6,zero
    4074:	014001b4 	movhi	r5,6
    4078:	29638504 	addi	r5,r5,-29164
    407c:	e13fff17 	ldw	r4,-4(fp)
    4080:	000847c0 	call	847c <alt_up_video_dma_draw_string>
    4084:	00800044 	movi	r2,1
    4088:	d8800015 	stw	r2,0(sp)
    408c:	01c00604 	movi	r7,24
    4090:	000d883a 	mov	r6,zero
    4094:	014001b4 	movhi	r5,6
    4098:	29638b04 	addi	r5,r5,-29140
    409c:	e13fff17 	ldw	r4,-4(fp)
    40a0:	000847c0 	call	847c <alt_up_video_dma_draw_string>
    40a4:	00800044 	movi	r2,1
    40a8:	d8800015 	stw	r2,0(sp)
    40ac:	01c006c4 	movi	r7,27
    40b0:	000d883a 	mov	r6,zero
    40b4:	014001b4 	movhi	r5,6
    40b8:	29639a04 	addi	r5,r5,-29080
    40bc:	e13fff17 	ldw	r4,-4(fp)
    40c0:	000847c0 	call	847c <alt_up_video_dma_draw_string>
    40c4:	00800044 	movi	r2,1
    40c8:	d8800015 	stw	r2,0(sp)
    40cc:	01c00784 	movi	r7,30
    40d0:	000d883a 	mov	r6,zero
    40d4:	014001b4 	movhi	r5,6
    40d8:	2963a904 	addi	r5,r5,-29020
    40dc:	e13fff17 	ldw	r4,-4(fp)
    40e0:	000847c0 	call	847c <alt_up_video_dma_draw_string>
    40e4:	00800044 	movi	r2,1
    40e8:	d8800015 	stw	r2,0(sp)
    40ec:	01c00844 	movi	r7,33
    40f0:	000d883a 	mov	r6,zero
    40f4:	014001b4 	movhi	r5,6
    40f8:	2963bb04 	addi	r5,r5,-28948
    40fc:	e13fff17 	ldw	r4,-4(fp)
    4100:	000847c0 	call	847c <alt_up_video_dma_draw_string>
    4104:	00800044 	movi	r2,1
    4108:	d8800015 	stw	r2,0(sp)
    410c:	01c00904 	movi	r7,36
    4110:	000d883a 	mov	r6,zero
    4114:	014001b4 	movhi	r5,6
    4118:	2963cd04 	addi	r5,r5,-28876
    411c:	e13fff17 	ldw	r4,-4(fp)
    4120:	000847c0 	call	847c <alt_up_video_dma_draw_string>
    4124:	00800044 	movi	r2,1
    4128:	d8800015 	stw	r2,0(sp)
    412c:	01c009c4 	movi	r7,39
    4130:	000d883a 	mov	r6,zero
    4134:	014001b4 	movhi	r5,6
    4138:	2963d904 	addi	r5,r5,-28828
    413c:	e13fff17 	ldw	r4,-4(fp)
    4140:	000847c0 	call	847c <alt_up_video_dma_draw_string>
    4144:	0001883a 	nop
    4148:	e037883a 	mov	sp,fp
    414c:	dfc00117 	ldw	ra,4(sp)
    4150:	df000017 	ldw	fp,0(sp)
    4154:	dec00204 	addi	sp,sp,8
    4158:	f800283a 	ret

0000415c <resolve_collisions_dynamic>:
    415c:	defff304 	addi	sp,sp,-52
    4160:	dfc00c15 	stw	ra,48(sp)
    4164:	df000b15 	stw	fp,44(sp)
    4168:	df000b04 	addi	fp,sp,44
    416c:	e03ff50d 	sth	zero,-44(fp)
    4170:	00008706 	br	4390 <resolve_collisions_dynamic+0x234>
    4174:	e0bff50f 	ldh	r2,-44(fp)
    4178:	10c00d24 	muli	r3,r2,52
    417c:	00800374 	movhi	r2,13
    4180:	10b51204 	addi	r2,r2,-11192
    4184:	1885883a 	add	r2,r3,r2
    4188:	e0bff615 	stw	r2,-40(fp)
    418c:	e0bff50b 	ldhu	r2,-44(fp)
    4190:	10800044 	addi	r2,r2,1
    4194:	e0bff58d 	sth	r2,-42(fp)
    4198:	00007706 	br	4378 <resolve_collisions_dynamic+0x21c>
    419c:	e0bff58f 	ldh	r2,-42(fp)
    41a0:	10c00d24 	muli	r3,r2,52
    41a4:	00800374 	movhi	r2,13
    41a8:	10b51204 	addi	r2,r2,-11192
    41ac:	1885883a 	add	r2,r3,r2
    41b0:	e0bff715 	stw	r2,-36(fp)
    41b4:	e0bff617 	ldw	r2,-40(fp)
    41b8:	10c00017 	ldw	r3,0(r2)
    41bc:	e13ff717 	ldw	r4,-36(fp)
    41c0:	20800017 	ldw	r2,0(r4)
    41c4:	1885ffb2 	custom	254,r2,r3,r2
    41c8:	e0bff815 	stw	r2,-32(fp)
    41cc:	e0bff617 	ldw	r2,-40(fp)
    41d0:	10c00117 	ldw	r3,4(r2)
    41d4:	e13ff717 	ldw	r4,-36(fp)
    41d8:	20800117 	ldw	r2,4(r4)
    41dc:	1885ffb2 	custom	254,r2,r3,r2
    41e0:	e0bff915 	stw	r2,-28(fp)
    41e4:	e0fff817 	ldw	r3,-32(fp)
    41e8:	e0bff817 	ldw	r2,-32(fp)
    41ec:	1887ff32 	custom	252,r3,r3,r2
    41f0:	e13ff917 	ldw	r4,-28(fp)
    41f4:	e0bff917 	ldw	r2,-28(fp)
    41f8:	2085ff32 	custom	252,r2,r4,r2
    41fc:	1885ff72 	custom	253,r2,r3,r2
    4200:	e0bffa15 	stw	r2,-24(fp)
    4204:	e0bff617 	ldw	r2,-40(fp)
    4208:	10c00a17 	ldw	r3,40(r2)
    420c:	e0bff717 	ldw	r2,-36(fp)
    4210:	10800a17 	ldw	r2,40(r2)
    4214:	1885883a 	add	r2,r3,r2
    4218:	e0bffb15 	stw	r2,-20(fp)
    421c:	e0fffb17 	ldw	r3,-20(fp)
    4220:	e0bffb17 	ldw	r2,-20(fp)
    4224:	1885383a 	mul	r2,r3,r2
    4228:	1007feb2 	custom	250,r3,r2,zero
    422c:	e0bffa17 	ldw	r2,-24(fp)
    4230:	1885f932 	custom	228,r2,r3,r2
    4234:	10004d26 	beq	r2,zero,436c <resolve_collisions_dynamic+0x210>
    4238:	e0bffa17 	ldw	r2,-24(fp)
    423c:	1005fef2 	custom	251,r2,r2,zero
    4240:	e0bffc15 	stw	r2,-16(fp)
    4244:	e0fff817 	ldw	r3,-32(fp)
    4248:	e0bffc17 	ldw	r2,-16(fp)
    424c:	1885fff2 	custom	255,r2,r3,r2
    4250:	e0bffd15 	stw	r2,-12(fp)
    4254:	e0fff917 	ldw	r3,-28(fp)
    4258:	e0bffc17 	ldw	r2,-16(fp)
    425c:	1885fff2 	custom	255,r2,r3,r2
    4260:	e0bffe15 	stw	r2,-8(fp)
    4264:	e0bffb17 	ldw	r2,-20(fp)
    4268:	1005feb2 	custom	250,r2,r2,zero
    426c:	e0fffc17 	ldw	r3,-16(fp)
    4270:	1885ffb2 	custom	254,r2,r3,r2
    4274:	e0bfff15 	stw	r2,-4(fp)
    4278:	e0bff617 	ldw	r2,-40(fp)
    427c:	10c00017 	ldw	r3,0(r2)
    4280:	e13ffd17 	ldw	r4,-12(fp)
    4284:	008fc034 	movhi	r2,16128
    4288:	2089ff32 	custom	252,r4,r4,r2
    428c:	e0bfff17 	ldw	r2,-4(fp)
    4290:	2085ff32 	custom	252,r2,r4,r2
    4294:	1887ffb2 	custom	254,r3,r3,r2
    4298:	e0bff617 	ldw	r2,-40(fp)
    429c:	10c00015 	stw	r3,0(r2)
    42a0:	e0bff617 	ldw	r2,-40(fp)
    42a4:	10c00117 	ldw	r3,4(r2)
    42a8:	e13ffe17 	ldw	r4,-8(fp)
    42ac:	008fc034 	movhi	r2,16128
    42b0:	2089ff32 	custom	252,r4,r4,r2
    42b4:	e0bfff17 	ldw	r2,-4(fp)
    42b8:	2085ff32 	custom	252,r2,r4,r2
    42bc:	1887ffb2 	custom	254,r3,r3,r2
    42c0:	e0bff617 	ldw	r2,-40(fp)
    42c4:	10c00115 	stw	r3,4(r2)
    42c8:	e0bff717 	ldw	r2,-36(fp)
    42cc:	10c00017 	ldw	r3,0(r2)
    42d0:	e13ffd17 	ldw	r4,-12(fp)
    42d4:	008fc034 	movhi	r2,16128
    42d8:	2089ff32 	custom	252,r4,r4,r2
    42dc:	e0bfff17 	ldw	r2,-4(fp)
    42e0:	2085ff32 	custom	252,r2,r4,r2
    42e4:	1887ff72 	custom	253,r3,r3,r2
    42e8:	e0bff717 	ldw	r2,-36(fp)
    42ec:	10c00015 	stw	r3,0(r2)
    42f0:	e0bff717 	ldw	r2,-36(fp)
    42f4:	10c00117 	ldw	r3,4(r2)
    42f8:	e13ffe17 	ldw	r4,-8(fp)
    42fc:	008fc034 	movhi	r2,16128
    4300:	2089ff32 	custom	252,r4,r4,r2
    4304:	e0bfff17 	ldw	r2,-4(fp)
    4308:	2085ff32 	custom	252,r2,r4,r2
    430c:	1887ff72 	custom	253,r3,r3,r2
    4310:	e0bff717 	ldw	r2,-36(fp)
    4314:	10c00115 	stw	r3,4(r2)
    4318:	e0bffd17 	ldw	r2,-12(fp)
    431c:	0007883a 	mov	r3,zero
    4320:	10c5f972 	custom	229,r2,r2,r3
    4324:	10000926 	beq	r2,zero,434c <resolve_collisions_dynamic+0x1f0>
    4328:	e1bff617 	ldw	r6,-40(fp)
    432c:	000b883a 	mov	r5,zero
    4330:	01104434 	movhi	r4,16656
    4334:	000479c0 	call	479c <accelerate_dynamic>
    4338:	e1bff717 	ldw	r6,-36(fp)
    433c:	000b883a 	mov	r5,zero
    4340:	01304434 	movhi	r4,49424
    4344:	000479c0 	call	479c <accelerate_dynamic>
    4348:	00000806 	br	436c <resolve_collisions_dynamic+0x210>
    434c:	e1bff617 	ldw	r6,-40(fp)
    4350:	000b883a 	mov	r5,zero
    4354:	01304434 	movhi	r4,49424
    4358:	000479c0 	call	479c <accelerate_dynamic>
    435c:	e1bff717 	ldw	r6,-36(fp)
    4360:	000b883a 	mov	r5,zero
    4364:	01104434 	movhi	r4,16656
    4368:	000479c0 	call	479c <accelerate_dynamic>
    436c:	e0bff58b 	ldhu	r2,-42(fp)
    4370:	10800044 	addi	r2,r2,1
    4374:	e0bff58d 	sth	r2,-42(fp)
    4378:	e0fff58f 	ldh	r3,-42(fp)
    437c:	d0a77517 	ldw	r2,-25132(gp)
    4380:	18bf8616 	blt	r3,r2,419c <__alt_mem_VGA_Subsystem_Char_Buf_Subsystem_Onchip_SRAM+0xf700419c>
    4384:	e0bff50b 	ldhu	r2,-44(fp)
    4388:	10800044 	addi	r2,r2,1
    438c:	e0bff50d 	sth	r2,-44(fp)
    4390:	e0fff50f 	ldh	r3,-44(fp)
    4394:	d0a77517 	ldw	r2,-25132(gp)
    4398:	18bf7616 	blt	r3,r2,4174 <__alt_mem_VGA_Subsystem_Char_Buf_Subsystem_Onchip_SRAM+0xf7004174>
    439c:	0001883a 	nop
    43a0:	e037883a 	mov	sp,fp
    43a4:	dfc00117 	ldw	ra,4(sp)
    43a8:	df000017 	ldw	fp,0(sp)
    43ac:	dec00204 	addi	sp,sp,8
    43b0:	f800283a 	ret

000043b4 <update_gravity>:
    43b4:	defffd04 	addi	sp,sp,-12
    43b8:	df000215 	stw	fp,8(sp)
    43bc:	df000204 	addi	fp,sp,8
    43c0:	e03ffe0d 	sth	zero,-8(fp)
    43c4:	00000e06 	br	4400 <update_gravity+0x4c>
    43c8:	e0bffe0f 	ldh	r2,-8(fp)
    43cc:	10c00d24 	muli	r3,r2,52
    43d0:	00800374 	movhi	r2,13
    43d4:	10b51204 	addi	r2,r2,-11192
    43d8:	1885883a 	add	r2,r3,r2
    43dc:	e0bfff15 	stw	r2,-4(fp)
    43e0:	e0bfff17 	ldw	r2,-4(fp)
    43e4:	10000515 	stw	zero,20(r2)
    43e8:	e0bfff17 	ldw	r2,-4(fp)
    43ec:	00d04834 	movhi	r3,16672
    43f0:	10c00615 	stw	r3,24(r2)
    43f4:	e0bffe0b 	ldhu	r2,-8(fp)
    43f8:	10800044 	addi	r2,r2,1
    43fc:	e0bffe0d 	sth	r2,-8(fp)
    4400:	e0fffe0f 	ldh	r3,-8(fp)
    4404:	d0a77517 	ldw	r2,-25132(gp)
    4408:	18bfef16 	blt	r3,r2,43c8 <__alt_mem_VGA_Subsystem_Char_Buf_Subsystem_Onchip_SRAM+0xf70043c8>
    440c:	0001883a 	nop
    4410:	e037883a 	mov	sp,fp
    4414:	df000017 	ldw	fp,0(sp)
    4418:	dec00104 	addi	sp,sp,4
    441c:	f800283a 	ret

00004420 <check_bounds>:
    4420:	defff804 	addi	sp,sp,-32
    4424:	dfc00715 	stw	ra,28(sp)
    4428:	df000615 	stw	fp,24(sp)
    442c:	df000604 	addi	fp,sp,24
    4430:	e13ffc15 	stw	r4,-16(fp)
    4434:	e17ffd15 	stw	r5,-12(fp)
    4438:	e1bffe15 	stw	r6,-8(fp)
    443c:	e1ffff15 	stw	r7,-4(fp)
    4440:	e03ffa0d 	sth	zero,-24(fp)
    4444:	00007d06 	br	463c <check_bounds+0x21c>
    4448:	e0bffa0f 	ldh	r2,-24(fp)
    444c:	10c00d24 	muli	r3,r2,52
    4450:	00800374 	movhi	r2,13
    4454:	10b51204 	addi	r2,r2,-11192
    4458:	1885883a 	add	r2,r3,r2
    445c:	e0bffb15 	stw	r2,-20(fp)
    4460:	e0bffb17 	ldw	r2,-20(fp)
    4464:	10c00017 	ldw	r3,0(r2)
    4468:	e0bffb17 	ldw	r2,-20(fp)
    446c:	10800a17 	ldw	r2,40(r2)
    4470:	e13ffd17 	ldw	r4,-12(fp)
    4474:	2085c83a 	sub	r2,r4,r2
    4478:	1005feb2 	custom	250,r2,r2,zero
    447c:	1885f972 	custom	229,r2,r3,r2
    4480:	10001926 	beq	r2,zero,44e8 <check_bounds+0xc8>
    4484:	e0bffb17 	ldw	r2,-20(fp)
    4488:	10c00017 	ldw	r3,0(r2)
    448c:	e0bffb17 	ldw	r2,-20(fp)
    4490:	10c00215 	stw	r3,8(r2)
    4494:	e0bffb17 	ldw	r2,-20(fp)
    4498:	10800a17 	ldw	r2,40(r2)
    449c:	e0fffd17 	ldw	r3,-12(fp)
    44a0:	1885c83a 	sub	r2,r3,r2
    44a4:	1007feb2 	custom	250,r3,r2,zero
    44a8:	e0bffb17 	ldw	r2,-20(fp)
    44ac:	10c00015 	stw	r3,0(r2)
    44b0:	e0bffb17 	ldw	r2,-20(fp)
    44b4:	10000515 	stw	zero,20(r2)
    44b8:	e1bffb17 	ldw	r6,-20(fp)
    44bc:	000b883a 	mov	r5,zero
    44c0:	01104434 	movhi	r4,16656
    44c4:	000479c0 	call	479c <accelerate_dynamic>
    44c8:	e0bffb17 	ldw	r2,-20(fp)
    44cc:	10c00517 	ldw	r3,20(r2)
    44d0:	e0bffb17 	ldw	r2,-20(fp)
    44d4:	10c00415 	stw	r3,16(r2)
    44d8:	e0bffb17 	ldw	r2,-20(fp)
    44dc:	00c00044 	movi	r3,1
    44e0:	10c00b05 	stb	r3,44(r2)
    44e4:	00002106 	br	456c <check_bounds+0x14c>
    44e8:	e0bffb17 	ldw	r2,-20(fp)
    44ec:	10c00017 	ldw	r3,0(r2)
    44f0:	e0bffb17 	ldw	r2,-20(fp)
    44f4:	11000a17 	ldw	r4,40(r2)
    44f8:	e0bffc17 	ldw	r2,-16(fp)
    44fc:	2085883a 	add	r2,r4,r2
    4500:	1005feb2 	custom	250,r2,r2,zero
    4504:	1885f9f2 	custom	231,r2,r3,r2
    4508:	10001826 	beq	r2,zero,456c <check_bounds+0x14c>
    450c:	e0bffb17 	ldw	r2,-20(fp)
    4510:	10c00017 	ldw	r3,0(r2)
    4514:	e0bffb17 	ldw	r2,-20(fp)
    4518:	10c00215 	stw	r3,8(r2)
    451c:	e0bffb17 	ldw	r2,-20(fp)
    4520:	10c00a17 	ldw	r3,40(r2)
    4524:	e0bffc17 	ldw	r2,-16(fp)
    4528:	1885883a 	add	r2,r3,r2
    452c:	1007feb2 	custom	250,r3,r2,zero
    4530:	e0bffb17 	ldw	r2,-20(fp)
    4534:	10c00015 	stw	r3,0(r2)
    4538:	e0bffb17 	ldw	r2,-20(fp)
    453c:	10000515 	stw	zero,20(r2)
    4540:	e1bffb17 	ldw	r6,-20(fp)
    4544:	000b883a 	mov	r5,zero
    4548:	01304434 	movhi	r4,49424
    454c:	000479c0 	call	479c <accelerate_dynamic>
    4550:	e0bffb17 	ldw	r2,-20(fp)
    4554:	10c00517 	ldw	r3,20(r2)
    4558:	e0bffb17 	ldw	r2,-20(fp)
    455c:	10c00415 	stw	r3,16(r2)
    4560:	e0bffb17 	ldw	r2,-20(fp)
    4564:	00c00044 	movi	r3,1
    4568:	10c00b05 	stb	r3,44(r2)
    456c:	e0bffb17 	ldw	r2,-20(fp)
    4570:	10c00117 	ldw	r3,4(r2)
    4574:	e0bffb17 	ldw	r2,-20(fp)
    4578:	10800a17 	ldw	r2,40(r2)
    457c:	e13fff17 	ldw	r4,-4(fp)
    4580:	2085c83a 	sub	r2,r4,r2
    4584:	1005feb2 	custom	250,r2,r2,zero
    4588:	1885f972 	custom	229,r2,r3,r2
    458c:	10001026 	beq	r2,zero,45d0 <check_bounds+0x1b0>
    4590:	e0bffb17 	ldw	r2,-20(fp)
    4594:	10c00317 	ldw	r3,12(r2)
    4598:	e0bffb17 	ldw	r2,-20(fp)
    459c:	10c00115 	stw	r3,4(r2)
    45a0:	e0bffb17 	ldw	r2,-20(fp)
    45a4:	10800a17 	ldw	r2,40(r2)
    45a8:	e0ffff17 	ldw	r3,-4(fp)
    45ac:	1885c83a 	sub	r2,r3,r2
    45b0:	1007feb2 	custom	250,r3,r2,zero
    45b4:	e0bffb17 	ldw	r2,-20(fp)
    45b8:	10c00315 	stw	r3,12(r2)
    45bc:	e1bffb17 	ldw	r6,-20(fp)
    45c0:	01700034 	movhi	r5,49152
    45c4:	0009883a 	mov	r4,zero
    45c8:	000479c0 	call	479c <accelerate_dynamic>
    45cc:	00001806 	br	4630 <check_bounds+0x210>
    45d0:	e0bffb17 	ldw	r2,-20(fp)
    45d4:	10c00117 	ldw	r3,4(r2)
    45d8:	e0bffb17 	ldw	r2,-20(fp)
    45dc:	11000a17 	ldw	r4,40(r2)
    45e0:	e0bffe17 	ldw	r2,-8(fp)
    45e4:	2085883a 	add	r2,r4,r2
    45e8:	1005feb2 	custom	250,r2,r2,zero
    45ec:	1885f9f2 	custom	231,r2,r3,r2
    45f0:	10000f26 	beq	r2,zero,4630 <check_bounds+0x210>
    45f4:	e0bffb17 	ldw	r2,-20(fp)
    45f8:	10c00317 	ldw	r3,12(r2)
    45fc:	e0bffb17 	ldw	r2,-20(fp)
    4600:	10c00115 	stw	r3,4(r2)
    4604:	e0bffb17 	ldw	r2,-20(fp)
    4608:	10c00a17 	ldw	r3,40(r2)
    460c:	e0bffe17 	ldw	r2,-8(fp)
    4610:	1885883a 	add	r2,r3,r2
    4614:	1007feb2 	custom	250,r3,r2,zero
    4618:	e0bffb17 	ldw	r2,-20(fp)
    461c:	10c00315 	stw	r3,12(r2)
    4620:	e1bffb17 	ldw	r6,-20(fp)
    4624:	01700034 	movhi	r5,49152
    4628:	0009883a 	mov	r4,zero
    462c:	000479c0 	call	479c <accelerate_dynamic>
    4630:	e0bffa0b 	ldhu	r2,-24(fp)
    4634:	10800044 	addi	r2,r2,1
    4638:	e0bffa0d 	sth	r2,-24(fp)
    463c:	e0fffa0f 	ldh	r3,-24(fp)
    4640:	d0a77517 	ldw	r2,-25132(gp)
    4644:	18bf8016 	blt	r3,r2,4448 <__alt_mem_VGA_Subsystem_Char_Buf_Subsystem_Onchip_SRAM+0xf7004448>
    4648:	0001883a 	nop
    464c:	e037883a 	mov	sp,fp
    4650:	dfc00117 	ldw	ra,4(sp)
    4654:	df000017 	ldw	fp,0(sp)
    4658:	dec00204 	addi	sp,sp,8
    465c:	f800283a 	ret

00004660 <update_dynamic>:
    4660:	defffb04 	addi	sp,sp,-20
    4664:	df000415 	stw	fp,16(sp)
    4668:	df000404 	addi	fp,sp,16
    466c:	e13ffe15 	stw	r4,-8(fp)
    4670:	e17fff15 	stw	r5,-4(fp)
    4674:	e0bfff17 	ldw	r2,-4(fp)
    4678:	10c00017 	ldw	r3,0(r2)
    467c:	e13fff17 	ldw	r4,-4(fp)
    4680:	20800217 	ldw	r2,8(r4)
    4684:	1885ffb2 	custom	254,r2,r3,r2
    4688:	e0bffc15 	stw	r2,-16(fp)
    468c:	e0bfff17 	ldw	r2,-4(fp)
    4690:	10c00117 	ldw	r3,4(r2)
    4694:	e13fff17 	ldw	r4,-4(fp)
    4698:	20800317 	ldw	r2,12(r4)
    469c:	1885ffb2 	custom	254,r2,r3,r2
    46a0:	e0bffd15 	stw	r2,-12(fp)
    46a4:	e0bfff17 	ldw	r2,-4(fp)
    46a8:	10c00017 	ldw	r3,0(r2)
    46ac:	e0bfff17 	ldw	r2,-4(fp)
    46b0:	10c00215 	stw	r3,8(r2)
    46b4:	e0bfff17 	ldw	r2,-4(fp)
    46b8:	10c00117 	ldw	r3,4(r2)
    46bc:	e0bfff17 	ldw	r2,-4(fp)
    46c0:	10c00315 	stw	r3,12(r2)
    46c4:	e0bfff17 	ldw	r2,-4(fp)
    46c8:	10c00017 	ldw	r3,0(r2)
    46cc:	e0bffc17 	ldw	r2,-16(fp)
    46d0:	1887ff72 	custom	253,r3,r3,r2
    46d4:	e0bfff17 	ldw	r2,-4(fp)
    46d8:	11000517 	ldw	r4,20(r2)
    46dc:	e17ffe17 	ldw	r5,-8(fp)
    46e0:	e0bffe17 	ldw	r2,-8(fp)
    46e4:	2885ff32 	custom	252,r2,r5,r2
    46e8:	2085ff32 	custom	252,r2,r4,r2
    46ec:	1887ff72 	custom	253,r3,r3,r2
    46f0:	e0bfff17 	ldw	r2,-4(fp)
    46f4:	10c00015 	stw	r3,0(r2)
    46f8:	e0bfff17 	ldw	r2,-4(fp)
    46fc:	10c00117 	ldw	r3,4(r2)
    4700:	e0bffd17 	ldw	r2,-12(fp)
    4704:	1887ff72 	custom	253,r3,r3,r2
    4708:	e0bfff17 	ldw	r2,-4(fp)
    470c:	11000617 	ldw	r4,24(r2)
    4710:	e17ffe17 	ldw	r5,-8(fp)
    4714:	e0bffe17 	ldw	r2,-8(fp)
    4718:	2885ff32 	custom	252,r2,r5,r2
    471c:	2085ff32 	custom	252,r2,r4,r2
    4720:	1887ff72 	custom	253,r3,r3,r2
    4724:	e0bfff17 	ldw	r2,-4(fp)
    4728:	10c00115 	stw	r3,4(r2)
    472c:	e0bfff17 	ldw	r2,-4(fp)
    4730:	10c00017 	ldw	r3,0(r2)
    4734:	e13fff17 	ldw	r4,-4(fp)
    4738:	20800217 	ldw	r2,8(r4)
    473c:	1887ffb2 	custom	254,r3,r3,r2
    4740:	e0bffc17 	ldw	r2,-16(fp)
    4744:	1885ff32 	custom	252,r2,r3,r2
    4748:	0007883a 	mov	r3,zero
    474c:	10c5f9f2 	custom	231,r2,r2,r3
    4750:	1000011e 	bne	r2,zero,4758 <update_dynamic+0xf8>
    4754:	00000c06 	br	4788 <update_dynamic+0x128>
    4758:	e0bfff17 	ldw	r2,-4(fp)
    475c:	10800b03 	ldbu	r2,44(r2)
    4760:	10803fcc 	andi	r2,r2,255
    4764:	10000826 	beq	r2,zero,4788 <update_dynamic+0x128>
    4768:	e0bfff17 	ldw	r2,-4(fp)
    476c:	10c00217 	ldw	r3,8(r2)
    4770:	e0bfff17 	ldw	r2,-4(fp)
    4774:	10c00015 	stw	r3,0(r2)
    4778:	e0bfff17 	ldw	r2,-4(fp)
    477c:	10000515 	stw	zero,20(r2)
    4780:	e0bfff17 	ldw	r2,-4(fp)
    4784:	10000415 	stw	zero,16(r2)
    4788:	0001883a 	nop
    478c:	e037883a 	mov	sp,fp
    4790:	df000017 	ldw	fp,0(sp)
    4794:	dec00104 	addi	sp,sp,4
    4798:	f800283a 	ret

0000479c <accelerate_dynamic>:
    479c:	defffc04 	addi	sp,sp,-16
    47a0:	df000315 	stw	fp,12(sp)
    47a4:	df000304 	addi	fp,sp,12
    47a8:	e13ffd15 	stw	r4,-12(fp)
    47ac:	e17ffe15 	stw	r5,-8(fp)
    47b0:	e1bfff15 	stw	r6,-4(fp)
    47b4:	e0bfff17 	ldw	r2,-4(fp)
    47b8:	10c00517 	ldw	r3,20(r2)
    47bc:	e0bffd17 	ldw	r2,-12(fp)
    47c0:	1887ff72 	custom	253,r3,r3,r2
    47c4:	e0bfff17 	ldw	r2,-4(fp)
    47c8:	10c00515 	stw	r3,20(r2)
    47cc:	e0bfff17 	ldw	r2,-4(fp)
    47d0:	10c00617 	ldw	r3,24(r2)
    47d4:	e0bffe17 	ldw	r2,-8(fp)
    47d8:	1887ff72 	custom	253,r3,r3,r2
    47dc:	e0bfff17 	ldw	r2,-4(fp)
    47e0:	10c00615 	stw	r3,24(r2)
    47e4:	0001883a 	nop
    47e8:	e037883a 	mov	sp,fp
    47ec:	df000017 	ldw	fp,0(sp)
    47f0:	dec00104 	addi	sp,sp,4
    47f4:	f800283a 	ret

000047f8 <set_new_velocity_dynamic>:
    47f8:	defffb04 	addi	sp,sp,-20
    47fc:	df000415 	stw	fp,16(sp)
    4800:	df000404 	addi	fp,sp,16
    4804:	e13ffc15 	stw	r4,-16(fp)
    4808:	e17ffd15 	stw	r5,-12(fp)
    480c:	e1bffe15 	stw	r6,-8(fp)
    4810:	e1ffff15 	stw	r7,-4(fp)
    4814:	e0bfff17 	ldw	r2,-4(fp)
    4818:	10c00017 	ldw	r3,0(r2)
    481c:	e13ffc17 	ldw	r4,-16(fp)
    4820:	e0bffe17 	ldw	r2,-8(fp)
    4824:	2085ff32 	custom	252,r2,r4,r2
    4828:	1887ffb2 	custom	254,r3,r3,r2
    482c:	e0bfff17 	ldw	r2,-4(fp)
    4830:	10c00215 	stw	r3,8(r2)
    4834:	e0bfff17 	ldw	r2,-4(fp)
    4838:	10c00117 	ldw	r3,4(r2)
    483c:	e13ffd17 	ldw	r4,-12(fp)
    4840:	e0bffe17 	ldw	r2,-8(fp)
    4844:	2085ff32 	custom	252,r2,r4,r2
    4848:	1887ffb2 	custom	254,r3,r3,r2
    484c:	e0bfff17 	ldw	r2,-4(fp)
    4850:	10c00315 	stw	r3,12(r2)
    4854:	0001883a 	nop
    4858:	e037883a 	mov	sp,fp
    485c:	df000017 	ldw	fp,0(sp)
    4860:	dec00104 	addi	sp,sp,4
    4864:	f800283a 	ret

00004868 <add_velocity_dynamic>:
    4868:	defffb04 	addi	sp,sp,-20
    486c:	df000415 	stw	fp,16(sp)
    4870:	df000404 	addi	fp,sp,16
    4874:	e13ffc15 	stw	r4,-16(fp)
    4878:	e17ffd15 	stw	r5,-12(fp)
    487c:	e1bffe15 	stw	r6,-8(fp)
    4880:	e1ffff15 	stw	r7,-4(fp)
    4884:	e0bfff17 	ldw	r2,-4(fp)
    4888:	10c00217 	ldw	r3,8(r2)
    488c:	e13ffc17 	ldw	r4,-16(fp)
    4890:	e0bffe17 	ldw	r2,-8(fp)
    4894:	2085ff32 	custom	252,r2,r4,r2
    4898:	1887ffb2 	custom	254,r3,r3,r2
    489c:	e0bfff17 	ldw	r2,-4(fp)
    48a0:	10c00215 	stw	r3,8(r2)
    48a4:	e0bfff17 	ldw	r2,-4(fp)
    48a8:	10c00317 	ldw	r3,12(r2)
    48ac:	e13ffd17 	ldw	r4,-12(fp)
    48b0:	e0bffe17 	ldw	r2,-8(fp)
    48b4:	2085ff32 	custom	252,r2,r4,r2
    48b8:	1887ffb2 	custom	254,r3,r3,r2
    48bc:	e0bfff17 	ldw	r2,-4(fp)
    48c0:	10c00315 	stw	r3,12(r2)
    48c4:	0001883a 	nop
    48c8:	e037883a 	mov	sp,fp
    48cc:	df000017 	ldw	fp,0(sp)
    48d0:	dec00104 	addi	sp,sp,4
    48d4:	f800283a 	ret

000048d8 <get_vel_x>:
    48d8:	defffd04 	addi	sp,sp,-12
    48dc:	df000215 	stw	fp,8(sp)
    48e0:	df000204 	addi	fp,sp,8
    48e4:	e13ffe15 	stw	r4,-8(fp)
    48e8:	e17fff15 	stw	r5,-4(fp)
    48ec:	e0bfff17 	ldw	r2,-4(fp)
    48f0:	10c00017 	ldw	r3,0(r2)
    48f4:	e13fff17 	ldw	r4,-4(fp)
    48f8:	20800217 	ldw	r2,8(r4)
    48fc:	1887ffb2 	custom	254,r3,r3,r2
    4900:	e0bffe17 	ldw	r2,-8(fp)
    4904:	1885fff2 	custom	255,r2,r3,r2
    4908:	1007883a 	mov	r3,r2
    490c:	1805883a 	mov	r2,r3
    4910:	e037883a 	mov	sp,fp
    4914:	df000017 	ldw	fp,0(sp)
    4918:	dec00104 	addi	sp,sp,4
    491c:	f800283a 	ret

00004920 <get_vel_y>:
    4920:	defffd04 	addi	sp,sp,-12
    4924:	df000215 	stw	fp,8(sp)
    4928:	df000204 	addi	fp,sp,8
    492c:	e13ffe15 	stw	r4,-8(fp)
    4930:	e17fff15 	stw	r5,-4(fp)
    4934:	e0bfff17 	ldw	r2,-4(fp)
    4938:	10c00117 	ldw	r3,4(r2)
    493c:	e13fff17 	ldw	r4,-4(fp)
    4940:	20800317 	ldw	r2,12(r4)
    4944:	1887ffb2 	custom	254,r3,r3,r2
    4948:	e0bffe17 	ldw	r2,-8(fp)
    494c:	1885fff2 	custom	255,r2,r3,r2
    4950:	1007883a 	mov	r3,r2
    4954:	1805883a 	mov	r2,r3
    4958:	e037883a 	mov	sp,fp
    495c:	df000017 	ldw	fp,0(sp)
    4960:	dec00104 	addi	sp,sp,4
    4964:	f800283a 	ret

00004968 <update_all>:
    4968:	defff704 	addi	sp,sp,-36
    496c:	dfc00815 	stw	ra,32(sp)
    4970:	df000715 	stw	fp,28(sp)
    4974:	df000704 	addi	fp,sp,28
    4978:	e13ffe15 	stw	r4,-8(fp)
    497c:	e17fff15 	stw	r5,-4(fp)
    4980:	00043b40 	call	43b4 <update_gravity>
    4984:	000415c0 	call	415c <resolve_collisions_dynamic>
    4988:	01c03c04 	movi	r7,240
    498c:	000d883a 	mov	r6,zero
    4990:	01405004 	movi	r5,320
    4994:	0009883a 	mov	r4,zero
    4998:	00044200 	call	4420 <check_bounds>
    499c:	0004cc00 	call	4cc0 <capture_ball>
    49a0:	e03ffc15 	stw	zero,-16(fp)
    49a4:	00003d06 	br	4a9c <update_all+0x134>
    49a8:	e0bffc17 	ldw	r2,-16(fp)
    49ac:	10c00d24 	muli	r3,r2,52
    49b0:	00800374 	movhi	r2,13
    49b4:	10b51204 	addi	r2,r2,-11192
    49b8:	1885883a 	add	r2,r3,r2
    49bc:	e0bffd15 	stw	r2,-12(fp)
    49c0:	e0fffd17 	ldw	r3,-12(fp)
    49c4:	18800417 	ldw	r2,16(r3)
    49c8:	0007883a 	mov	r3,zero
    49cc:	10c5f8f2 	custom	227,r2,r2,r3
    49d0:	1000061e 	bne	r2,zero,49ec <update_all+0x84>
    49d4:	e0bffd17 	ldw	r2,-12(fp)
    49d8:	10c00417 	ldw	r3,16(r2)
    49dc:	e1bffd17 	ldw	r6,-12(fp)
    49e0:	000b883a 	mov	r5,zero
    49e4:	1809883a 	mov	r4,r3
    49e8:	000479c0 	call	479c <accelerate_dynamic>
    49ec:	e17ffd17 	ldw	r5,-12(fp)
    49f0:	e13ffe17 	ldw	r4,-8(fp)
    49f4:	00046600 	call	4660 <update_dynamic>
    49f8:	e0bffd17 	ldw	r2,-12(fp)
    49fc:	10800c17 	ldw	r2,48(r2)
    4a00:	100b883a 	mov	r5,r2
    4a04:	e0fffd17 	ldw	r3,-12(fp)
    4a08:	18800017 	ldw	r2,0(r3)
    4a0c:	00d3c034 	movhi	r3,20224
    4a10:	10c7f932 	custom	228,r3,r2,r3
    4a14:	1800021e 	bne	r3,zero,4a20 <update_all+0xb8>
    4a18:	1005fe72 	custom	249,r2,r2,zero
    4a1c:	00000406 	br	4a30 <update_all+0xc8>
    4a20:	00d3c034 	movhi	r3,20224
    4a24:	10c5ffb2 	custom	254,r2,r2,r3
    4a28:	1005fe72 	custom	249,r2,r2,zero
    4a2c:	10a0003c 	xorhi	r2,r2,32768
    4a30:	e13ffd17 	ldw	r4,-12(fp)
    4a34:	20c00117 	ldw	r3,4(r4)
    4a38:	0113c034 	movhi	r4,20224
    4a3c:	1909f932 	custom	228,r4,r3,r4
    4a40:	2000021e 	bne	r4,zero,4a4c <update_all+0xe4>
    4a44:	1807fe72 	custom	249,r3,r3,zero
    4a48:	00000406 	br	4a5c <update_all+0xf4>
    4a4c:	0113c034 	movhi	r4,20224
    4a50:	1907ffb2 	custom	254,r3,r3,r4
    4a54:	1807fe72 	custom	249,r3,r3,zero
    4a58:	18e0003c 	xorhi	r3,r3,32768
    4a5c:	01000044 	movi	r4,1
    4a60:	d9000215 	stw	r4,8(sp)
    4a64:	01000374 	movhi	r4,13
    4a68:	21261f04 	addi	r4,r4,-26500
    4a6c:	d9000115 	stw	r4,4(sp)
    4a70:	01000244 	movi	r4,9
    4a74:	d9000015 	stw	r4,0(sp)
    4a78:	180f883a 	mov	r7,r3
    4a7c:	100d883a 	mov	r6,r2
    4a80:	e13fff17 	ldw	r4,-4(fp)
    4a84:	00087780 	call	8778 <alt_up_video_dma_draw_circle>
    4a88:	e13ffc17 	ldw	r4,-16(fp)
    4a8c:	0004ac00 	call	4ac0 <check_stopped>
    4a90:	e0bffc17 	ldw	r2,-16(fp)
    4a94:	10800044 	addi	r2,r2,1
    4a98:	e0bffc15 	stw	r2,-16(fp)
    4a9c:	d0a77517 	ldw	r2,-25132(gp)
    4aa0:	e0fffc17 	ldw	r3,-16(fp)
    4aa4:	18bfc016 	blt	r3,r2,49a8 <__alt_mem_VGA_Subsystem_Char_Buf_Subsystem_Onchip_SRAM+0xf70049a8>
    4aa8:	0001883a 	nop
    4aac:	e037883a 	mov	sp,fp
    4ab0:	dfc00117 	ldw	ra,4(sp)
    4ab4:	df000017 	ldw	fp,0(sp)
    4ab8:	dec00204 	addi	sp,sp,8
    4abc:	f800283a 	ret

00004ac0 <check_stopped>:
    4ac0:	defffd04 	addi	sp,sp,-12
    4ac4:	df000215 	stw	fp,8(sp)
    4ac8:	df000204 	addi	fp,sp,8
    4acc:	e13fff15 	stw	r4,-4(fp)
    4ad0:	e0bfff17 	ldw	r2,-4(fp)
    4ad4:	10c00d24 	muli	r3,r2,52
    4ad8:	00800374 	movhi	r2,13
    4adc:	10b51204 	addi	r2,r2,-11192
    4ae0:	1885883a 	add	r2,r3,r2
    4ae4:	e0bffe15 	stw	r2,-8(fp)
    4ae8:	e0bffe17 	ldw	r2,-8(fp)
    4aec:	10c00017 	ldw	r3,0(r2)
    4af0:	e13ffe17 	ldw	r4,-8(fp)
    4af4:	20800217 	ldw	r2,8(r4)
    4af8:	1885ffb2 	custom	254,r2,r3,r2
    4afc:	1005f832 	custom	224,r2,r2,zero
    4b00:	1005fe72 	custom	249,r2,r2,zero
    4b04:	1000141e 	bne	r2,zero,4b58 <check_stopped+0x98>
    4b08:	e0bffe17 	ldw	r2,-8(fp)
    4b0c:	10c00117 	ldw	r3,4(r2)
    4b10:	e13ffe17 	ldw	r4,-8(fp)
    4b14:	20800317 	ldw	r2,12(r4)
    4b18:	1885ffb2 	custom	254,r2,r3,r2
    4b1c:	1005f832 	custom	224,r2,r2,zero
    4b20:	1005fe72 	custom	249,r2,r2,zero
    4b24:	10000c1e 	bne	r2,zero,4b58 <check_stopped+0x98>
    4b28:	e0bffe17 	ldw	r2,-8(fp)
    4b2c:	10c00017 	ldw	r3,0(r2)
    4b30:	e0bffe17 	ldw	r2,-8(fp)
    4b34:	10c00815 	stw	r3,32(r2)
    4b38:	e0bffe17 	ldw	r2,-8(fp)
    4b3c:	10c00117 	ldw	r3,4(r2)
    4b40:	e0bffe17 	ldw	r2,-8(fp)
    4b44:	10c00715 	stw	r3,28(r2)
    4b48:	e0bffe17 	ldw	r2,-8(fp)
    4b4c:	00c00044 	movi	r3,1
    4b50:	10c00905 	stb	r3,36(r2)
    4b54:	00000206 	br	4b60 <check_stopped+0xa0>
    4b58:	e0bffe17 	ldw	r2,-8(fp)
    4b5c:	10000905 	stb	zero,36(r2)
    4b60:	0001883a 	nop
    4b64:	e037883a 	mov	sp,fp
    4b68:	df000017 	ldw	fp,0(sp)
    4b6c:	dec00104 	addi	sp,sp,4
    4b70:	f800283a 	ret

00004b74 <check_game_status>:
    4b74:	deffeb04 	addi	sp,sp,-84
    4b78:	df001415 	stw	fp,80(sp)
    4b7c:	df001404 	addi	fp,sp,80
    4b80:	e13ffc15 	stw	r4,-16(fp)
    4b84:	e17ffd15 	stw	r5,-12(fp)
    4b88:	e1bffe15 	stw	r6,-8(fp)
    4b8c:	e1ffff15 	stw	r7,-4(fp)
    4b90:	00800044 	movi	r2,1
    4b94:	e0bfec05 	stb	r2,-80(fp)
    4b98:	00800044 	movi	r2,1
    4b9c:	e0bfed15 	stw	r2,-76(fp)
    4ba0:	00003f06 	br	4ca0 <check_game_status+0x12c>
    4ba4:	00800374 	movhi	r2,13
    4ba8:	10b51204 	addi	r2,r2,-11192
    4bac:	e0ffed17 	ldw	r3,-76(fp)
    4bb0:	18c00d24 	muli	r3,r3,52
    4bb4:	10c5883a 	add	r2,r2,r3
    4bb8:	10c00017 	ldw	r3,0(r2)
    4bbc:	e0ffef15 	stw	r3,-68(fp)
    4bc0:	10c00117 	ldw	r3,4(r2)
    4bc4:	e0fff015 	stw	r3,-64(fp)
    4bc8:	10c00217 	ldw	r3,8(r2)
    4bcc:	e0fff115 	stw	r3,-60(fp)
    4bd0:	10c00317 	ldw	r3,12(r2)
    4bd4:	e0fff215 	stw	r3,-56(fp)
    4bd8:	10c00417 	ldw	r3,16(r2)
    4bdc:	e0fff315 	stw	r3,-52(fp)
    4be0:	10c00517 	ldw	r3,20(r2)
    4be4:	e0fff415 	stw	r3,-48(fp)
    4be8:	10c00617 	ldw	r3,24(r2)
    4bec:	e0fff515 	stw	r3,-44(fp)
    4bf0:	10c00717 	ldw	r3,28(r2)
    4bf4:	e0fff615 	stw	r3,-40(fp)
    4bf8:	10c00817 	ldw	r3,32(r2)
    4bfc:	e0fff715 	stw	r3,-36(fp)
    4c00:	10c00917 	ldw	r3,36(r2)
    4c04:	e0fff815 	stw	r3,-32(fp)
    4c08:	10c00a17 	ldw	r3,40(r2)
    4c0c:	e0fff915 	stw	r3,-28(fp)
    4c10:	10c00b17 	ldw	r3,44(r2)
    4c14:	e0fffa15 	stw	r3,-24(fp)
    4c18:	10800c17 	ldw	r2,48(r2)
    4c1c:	e0bffb15 	stw	r2,-20(fp)
    4c20:	e0fff717 	ldw	r3,-36(fp)
    4c24:	e0bffc17 	ldw	r2,-16(fp)
    4c28:	1005feb2 	custom	250,r2,r2,zero
    4c2c:	1885f972 	custom	229,r2,r3,r2
    4c30:	10001226 	beq	r2,zero,4c7c <check_game_status+0x108>
    4c34:	e0fff717 	ldw	r3,-36(fp)
    4c38:	e0bffd17 	ldw	r2,-12(fp)
    4c3c:	1005feb2 	custom	250,r2,r2,zero
    4c40:	1885f9f2 	custom	231,r2,r3,r2
    4c44:	10000d26 	beq	r2,zero,4c7c <check_game_status+0x108>
    4c48:	e0fff617 	ldw	r3,-40(fp)
    4c4c:	e0bffe17 	ldw	r2,-8(fp)
    4c50:	1005feb2 	custom	250,r2,r2,zero
    4c54:	1885f972 	custom	229,r2,r3,r2
    4c58:	10000826 	beq	r2,zero,4c7c <check_game_status+0x108>
    4c5c:	e0fff617 	ldw	r3,-40(fp)
    4c60:	e0bfff17 	ldw	r2,-4(fp)
    4c64:	1005feb2 	custom	250,r2,r2,zero
    4c68:	1885f9f2 	custom	231,r2,r3,r2
    4c6c:	10000326 	beq	r2,zero,4c7c <check_game_status+0x108>
    4c70:	00800044 	movi	r2,1
    4c74:	e0bfee05 	stb	r2,-72(fp)
    4c78:	00000106 	br	4c80 <check_game_status+0x10c>
    4c7c:	e03fee05 	stb	zero,-72(fp)
    4c80:	e0ffec03 	ldbu	r3,-80(fp)
    4c84:	e0bfee03 	ldbu	r2,-72(fp)
    4c88:	1884703a 	and	r2,r3,r2
    4c8c:	1004c03a 	cmpne	r2,r2,zero
    4c90:	e0bfec05 	stb	r2,-80(fp)
    4c94:	e0bfed17 	ldw	r2,-76(fp)
    4c98:	10800044 	addi	r2,r2,1
    4c9c:	e0bfed15 	stw	r2,-76(fp)
    4ca0:	d0a77517 	ldw	r2,-25132(gp)
    4ca4:	e0ffed17 	ldw	r3,-76(fp)
    4ca8:	18bfbe16 	blt	r3,r2,4ba4 <__alt_mem_VGA_Subsystem_Char_Buf_Subsystem_Onchip_SRAM+0xf7004ba4>
    4cac:	e0bfec03 	ldbu	r2,-80(fp)
    4cb0:	e037883a 	mov	sp,fp
    4cb4:	df000017 	ldw	fp,0(sp)
    4cb8:	dec00104 	addi	sp,sp,4
    4cbc:	f800283a 	ret

00004cc0 <capture_ball>:
    4cc0:	defffd04 	addi	sp,sp,-12
    4cc4:	df000215 	stw	fp,8(sp)
    4cc8:	df000204 	addi	fp,sp,8
    4ccc:	00800044 	movi	r2,1
    4cd0:	e0bffe15 	stw	r2,-8(fp)
    4cd4:	00002606 	br	4d70 <capture_ball+0xb0>
    4cd8:	e0bffe17 	ldw	r2,-8(fp)
    4cdc:	10c00d24 	muli	r3,r2,52
    4ce0:	00800374 	movhi	r2,13
    4ce4:	10b51204 	addi	r2,r2,-11192
    4ce8:	1885883a 	add	r2,r3,r2
    4cec:	e0bfff15 	stw	r2,-4(fp)
    4cf0:	e0bfff17 	ldw	r2,-4(fp)
    4cf4:	10c00017 	ldw	r3,0(r2)
    4cf8:	0090e334 	movhi	r2,17292
    4cfc:	1885f972 	custom	229,r2,r3,r2
    4d00:	10001826 	beq	r2,zero,4d64 <capture_ball+0xa4>
    4d04:	e0bfff17 	ldw	r2,-4(fp)
    4d08:	10c00017 	ldw	r3,0(r2)
    4d0c:	0090e834 	movhi	r2,17312
    4d10:	10a00004 	addi	r2,r2,-32768
    4d14:	1885f9f2 	custom	231,r2,r3,r2
    4d18:	10001226 	beq	r2,zero,4d64 <capture_ball+0xa4>
    4d1c:	e0bfff17 	ldw	r2,-4(fp)
    4d20:	10c00117 	ldw	r3,4(r2)
    4d24:	0090d234 	movhi	r2,17224
    4d28:	1885f972 	custom	229,r2,r3,r2
    4d2c:	10000d26 	beq	r2,zero,4d64 <capture_ball+0xa4>
    4d30:	e0bfff17 	ldw	r2,-4(fp)
    4d34:	10c00117 	ldw	r3,4(r2)
    4d38:	0090dc34 	movhi	r2,17264
    4d3c:	1885f9f2 	custom	231,r2,r3,r2
    4d40:	10000826 	beq	r2,zero,4d64 <capture_ball+0xa4>
    4d44:	e0bfff17 	ldw	r2,-4(fp)
    4d48:	10c00017 	ldw	r3,0(r2)
    4d4c:	e0bfff17 	ldw	r2,-4(fp)
    4d50:	10c00215 	stw	r3,8(r2)
    4d54:	e0bfff17 	ldw	r2,-4(fp)
    4d58:	10000515 	stw	zero,20(r2)
    4d5c:	e0bfff17 	ldw	r2,-4(fp)
    4d60:	10000415 	stw	zero,16(r2)
    4d64:	e0bffe17 	ldw	r2,-8(fp)
    4d68:	10800044 	addi	r2,r2,1
    4d6c:	e0bffe15 	stw	r2,-8(fp)
    4d70:	d0a77517 	ldw	r2,-25132(gp)
    4d74:	e0fffe17 	ldw	r3,-8(fp)
    4d78:	18bfd716 	blt	r3,r2,4cd8 <__alt_mem_VGA_Subsystem_Char_Buf_Subsystem_Onchip_SRAM+0xf7004cd8>
    4d7c:	0001883a 	nop
    4d80:	e037883a 	mov	sp,fp
    4d84:	df000017 	ldw	fp,0(sp)
    4d88:	dec00104 	addi	sp,sp,4
    4d8c:	f800283a 	ret

00004d90 <reset_circles>:
    4d90:	defffd04 	addi	sp,sp,-12
    4d94:	df000215 	stw	fp,8(sp)
    4d98:	df000204 	addi	fp,sp,8
    4d9c:	e13ffe15 	stw	r4,-8(fp)
    4da0:	e17fff15 	stw	r5,-4(fp)
    4da4:	e0bfff17 	ldw	r2,-4(fp)
    4da8:	10c00017 	ldw	r3,0(r2)
    4dac:	e0bffe17 	ldw	r2,-8(fp)
    4db0:	10c00015 	stw	r3,0(r2)
    4db4:	e0bfff17 	ldw	r2,-4(fp)
    4db8:	10c00117 	ldw	r3,4(r2)
    4dbc:	e0bffe17 	ldw	r2,-8(fp)
    4dc0:	10c00215 	stw	r3,8(r2)
    4dc4:	e0bfff17 	ldw	r2,-4(fp)
    4dc8:	10c00217 	ldw	r3,8(r2)
    4dcc:	e0bffe17 	ldw	r2,-8(fp)
    4dd0:	10c00115 	stw	r3,4(r2)
    4dd4:	e0bfff17 	ldw	r2,-4(fp)
    4dd8:	10c00317 	ldw	r3,12(r2)
    4ddc:	e0bffe17 	ldw	r2,-8(fp)
    4de0:	10c00315 	stw	r3,12(r2)
    4de4:	e0bffe17 	ldw	r2,-8(fp)
    4de8:	10000905 	stb	zero,36(r2)
    4dec:	e0bffe17 	ldw	r2,-8(fp)
    4df0:	10000b05 	stb	zero,44(r2)
    4df4:	e0bffe17 	ldw	r2,-8(fp)
    4df8:	10000415 	stw	zero,16(r2)
    4dfc:	e0bffe17 	ldw	r2,-8(fp)
    4e00:	10000515 	stw	zero,20(r2)
    4e04:	e0bffe17 	ldw	r2,-8(fp)
    4e08:	00d04834 	movhi	r3,16672
    4e0c:	10c00615 	stw	r3,24(r2)
    4e10:	0001883a 	nop
    4e14:	e037883a 	mov	sp,fp
    4e18:	df000017 	ldw	fp,0(sp)
    4e1c:	dec00104 	addi	sp,sp,4
    4e20:	f800283a 	ret

00004e24 <randomize_position>:
    4e24:	defffb04 	addi	sp,sp,-20
    4e28:	dfc00415 	stw	ra,16(sp)
    4e2c:	df000315 	stw	fp,12(sp)
    4e30:	df000304 	addi	fp,sp,12
    4e34:	e13fff15 	stw	r4,-4(fp)
    4e38:	000541c0 	call	541c <rand>
    4e3c:	00c02d04 	movi	r3,180
    4e40:	10c7283a 	div	r3,r2,r3
    4e44:	18c02d24 	muli	r3,r3,180
    4e48:	10c5c83a 	sub	r2,r2,r3
    4e4c:	e0bffd15 	stw	r2,-12(fp)
    4e50:	e0bffd17 	ldw	r2,-12(fp)
    4e54:	1007feb2 	custom	250,r3,r2,zero
    4e58:	e0bfff17 	ldw	r2,-4(fp)
    4e5c:	10c00015 	stw	r3,0(r2)
    4e60:	e0bffd17 	ldw	r2,-12(fp)
    4e64:	1007feb2 	custom	250,r3,r2,zero
    4e68:	e0bfff17 	ldw	r2,-4(fp)
    4e6c:	10c00215 	stw	r3,8(r2)
    4e70:	000541c0 	call	541c <rand>
    4e74:	1007883a 	mov	r3,r2
    4e78:	e0bfff17 	ldw	r2,-4(fp)
    4e7c:	10800a17 	ldw	r2,40(r2)
    4e80:	01003204 	movi	r4,200
    4e84:	2085c83a 	sub	r2,r4,r2
    4e88:	1889283a 	div	r4,r3,r2
    4e8c:	2085383a 	mul	r2,r4,r2
    4e90:	1885c83a 	sub	r2,r3,r2
    4e94:	10800a04 	addi	r2,r2,40
    4e98:	e0bffe15 	stw	r2,-8(fp)
    4e9c:	e0bffe17 	ldw	r2,-8(fp)
    4ea0:	1007feb2 	custom	250,r3,r2,zero
    4ea4:	e0bfff17 	ldw	r2,-4(fp)
    4ea8:	10c00115 	stw	r3,4(r2)
    4eac:	e0bffe17 	ldw	r2,-8(fp)
    4eb0:	1007feb2 	custom	250,r3,r2,zero
    4eb4:	e0bfff17 	ldw	r2,-4(fp)
    4eb8:	10c00315 	stw	r3,12(r2)
    4ebc:	0001883a 	nop
    4ec0:	e037883a 	mov	sp,fp
    4ec4:	dfc00117 	ldw	ra,4(sp)
    4ec8:	df000017 	ldw	fp,0(sp)
    4ecc:	dec00204 	addi	sp,sp,8
    4ed0:	f800283a 	ret

00004ed4 <audio_ISR>:
    4ed4:	defffa04 	addi	sp,sp,-24
    4ed8:	dfc00515 	stw	ra,20(sp)
    4edc:	df000415 	stw	fp,16(sp)
    4ee0:	df000404 	addi	fp,sp,16
    4ee4:	e13ffe15 	stw	r4,-8(fp)
    4ee8:	e17fff15 	stw	r5,-4(fp)
    4eec:	e0bffe17 	ldw	r2,-8(fp)
    4ef0:	10800117 	ldw	r2,4(r2)
    4ef4:	1009883a 	mov	r4,r2
    4ef8:	0006e580 	call	6e58 <alt_up_audio_write_interrupt_pending>
    4efc:	10003a26 	beq	r2,zero,4fe8 <audio_ISR+0x114>
    4f00:	00bfc834 	movhi	r2,65312
    4f04:	108c1004 	addi	r2,r2,12352
    4f08:	e0bffd15 	stw	r2,-12(fp)
    4f0c:	e0bffd17 	ldw	r2,-12(fp)
    4f10:	10800117 	ldw	r2,4(r2)
    4f14:	e0bffc15 	stw	r2,-16(fp)
    4f18:	e0bffc17 	ldw	r2,-16(fp)
    4f1c:	10803fec 	andhi	r2,r2,255
    4f20:	10801850 	cmplti	r2,r2,97
    4f24:	1000301e 	bne	r2,zero,4fe8 <audio_ISR+0x114>
    4f28:	00002706 	br	4fc8 <audio_ISR+0xf4>
    4f2c:	e0bffe17 	ldw	r2,-8(fp)
    4f30:	11000117 	ldw	r4,4(r2)
    4f34:	d0a78717 	ldw	r2,-25060(gp)
    4f38:	10800017 	ldw	r2,0(r2)
    4f3c:	1085883a 	add	r2,r2,r2
    4f40:	1087883a 	add	r3,r2,r2
    4f44:	008001b4 	movhi	r2,6
    4f48:	10a3dc04 	addi	r2,r2,-28816
    4f4c:	1885883a 	add	r2,r3,r2
    4f50:	01c00044 	movi	r7,1
    4f54:	01800044 	movi	r6,1
    4f58:	100b883a 	mov	r5,r2
    4f5c:	000726c0 	call	726c <alt_up_audio_write_fifo>
    4f60:	e0bffe17 	ldw	r2,-8(fp)
    4f64:	11000117 	ldw	r4,4(r2)
    4f68:	d0a78717 	ldw	r2,-25060(gp)
    4f6c:	10800017 	ldw	r2,0(r2)
    4f70:	1085883a 	add	r2,r2,r2
    4f74:	1087883a 	add	r3,r2,r2
    4f78:	008001b4 	movhi	r2,6
    4f7c:	10a3dc04 	addi	r2,r2,-28816
    4f80:	1885883a 	add	r2,r3,r2
    4f84:	000f883a 	mov	r7,zero
    4f88:	01800044 	movi	r6,1
    4f8c:	100b883a 	mov	r5,r2
    4f90:	000726c0 	call	726c <alt_up_audio_write_fifo>
    4f94:	d0a78717 	ldw	r2,-25060(gp)
    4f98:	10c00017 	ldw	r3,0(r2)
    4f9c:	18c00044 	addi	r3,r3,1
    4fa0:	10c00015 	stw	r3,0(r2)
    4fa4:	d0a78717 	ldw	r2,-25060(gp)
    4fa8:	10c00017 	ldw	r3,0(r2)
    4fac:	d0a00217 	ldw	r2,-32760(gp)
    4fb0:	18800216 	blt	r3,r2,4fbc <audio_ISR+0xe8>
    4fb4:	d0a78717 	ldw	r2,-25060(gp)
    4fb8:	10000015 	stw	zero,0(r2)
    4fbc:	e0bffd17 	ldw	r2,-12(fp)
    4fc0:	10800117 	ldw	r2,4(r2)
    4fc4:	e0bffc15 	stw	r2,-16(fp)
    4fc8:	e0bffc17 	ldw	r2,-16(fp)
    4fcc:	10803fec 	andhi	r2,r2,255
    4fd0:	10000526 	beq	r2,zero,4fe8 <audio_ISR+0x114>
    4fd4:	d0a78717 	ldw	r2,-25060(gp)
    4fd8:	10800017 	ldw	r2,0(r2)
    4fdc:	d0e00217 	ldw	r3,-32760(gp)
    4fe0:	18bfd20e 	bge	r3,r2,4f2c <__alt_mem_VGA_Subsystem_Char_Buf_Subsystem_Onchip_SRAM+0xf7004f2c>
    4fe4:	0001883a 	nop
    4fe8:	0001883a 	nop
    4fec:	e037883a 	mov	sp,fp
    4ff0:	dfc00117 	ldw	ra,4(sp)
    4ff4:	df000017 	ldw	fp,0(sp)
    4ff8:	dec00204 	addi	sp,sp,8
    4ffc:	f800283a 	ret

00005000 <interval_timer_ISR>:
    5000:	deffe104 	addi	sp,sp,-124
    5004:	df001e15 	stw	fp,120(sp)
    5008:	df001e04 	addi	fp,sp,120
    500c:	e13ffe15 	stw	r4,-8(fp)
    5010:	e17fff15 	stw	r5,-4(fp)
    5014:	d0a78517 	ldw	r2,-25068(gp)
    5018:	10000015 	stw	zero,0(r2)
    501c:	d0a77917 	ldw	r2,-25116(gp)
    5020:	1000811e 	bne	r2,zero,5228 <interval_timer_ISR+0x228>
    5024:	d0a77a17 	ldw	r2,-25112(gp)
    5028:	d0a77915 	stw	r2,-25116(gp)
    502c:	00bfc834 	movhi	r2,65312
    5030:	10800804 	addi	r2,r2,32
    5034:	e0bfe215 	stw	r2,-120(fp)
    5038:	00bfc834 	movhi	r2,65312
    503c:	10800c04 	addi	r2,r2,48
    5040:	e0bfe315 	stw	r2,-116(fp)
    5044:	e03fe405 	stb	zero,-112(fp)
    5048:	e03fe445 	stb	zero,-111(fp)
    504c:	e03fe485 	stb	zero,-110(fp)
    5050:	e03fe4c5 	stb	zero,-109(fp)
    5054:	e03fe505 	stb	zero,-108(fp)
    5058:	e03fe545 	stb	zero,-107(fp)
    505c:	e03fe585 	stb	zero,-106(fp)
    5060:	e03fe5c5 	stb	zero,-105(fp)
    5064:	00800044 	movi	r2,1
    5068:	e0bff215 	stw	r2,-56(fp)
    506c:	00800044 	movi	r2,1
    5070:	e0bff315 	stw	r2,-52(fp)
    5074:	00800044 	movi	r2,1
    5078:	e0bff415 	stw	r2,-48(fp)
    507c:	00800044 	movi	r2,1
    5080:	e0bff515 	stw	r2,-44(fp)
    5084:	00800804 	movi	r2,32
    5088:	e0bff615 	stw	r2,-40(fp)
    508c:	00800404 	movi	r2,16
    5090:	e0bff715 	stw	r2,-36(fp)
    5094:	00800204 	movi	r2,8
    5098:	e0bff815 	stw	r2,-32(fp)
    509c:	00800204 	movi	r2,8
    50a0:	e0bff915 	stw	r2,-28(fp)
    50a4:	00800204 	movi	r2,8
    50a8:	e0bffa15 	stw	r2,-24(fp)
    50ac:	00800204 	movi	r2,8
    50b0:	e0bffb15 	stw	r2,-20(fp)
    50b4:	00800104 	movi	r2,4
    50b8:	e0bffc15 	stw	r2,-16(fp)
    50bc:	00800084 	movi	r2,2
    50c0:	e0bffd15 	stw	r2,-12(fp)
    50c4:	00800084 	movi	r2,2
    50c8:	e0bfe615 	stw	r2,-104(fp)
    50cc:	008000c4 	movi	r2,3
    50d0:	e0bfe715 	stw	r2,-100(fp)
    50d4:	00800104 	movi	r2,4
    50d8:	e0bfe815 	stw	r2,-96(fp)
    50dc:	00800144 	movi	r2,5
    50e0:	e0bfe915 	stw	r2,-92(fp)
    50e4:	00800144 	movi	r2,5
    50e8:	e0bfea15 	stw	r2,-88(fp)
    50ec:	00800144 	movi	r2,5
    50f0:	e0bfeb15 	stw	r2,-84(fp)
    50f4:	00800144 	movi	r2,5
    50f8:	e0bfec15 	stw	r2,-80(fp)
    50fc:	00800104 	movi	r2,4
    5100:	e0bfed15 	stw	r2,-76(fp)
    5104:	008000c4 	movi	r2,3
    5108:	e0bfee15 	stw	r2,-72(fp)
    510c:	00800084 	movi	r2,2
    5110:	e0bfef15 	stw	r2,-68(fp)
    5114:	00800084 	movi	r2,2
    5118:	e0bff015 	stw	r2,-64(fp)
    511c:	00800084 	movi	r2,2
    5120:	e0bff115 	stw	r2,-60(fp)
    5124:	d0a00317 	ldw	r2,-32756(gp)
    5128:	10001a1e 	bne	r2,zero,5194 <interval_timer_ISR+0x194>
    512c:	d0a78317 	ldw	r2,-25076(gp)
    5130:	10800310 	cmplti	r2,r2,12
    5134:	1000011e 	bne	r2,zero,513c <interval_timer_ISR+0x13c>
    5138:	d0278315 	stw	zero,-25076(gp)
    513c:	d0a78317 	ldw	r2,-25076(gp)
    5140:	1085883a 	add	r2,r2,r2
    5144:	1085883a 	add	r2,r2,r2
    5148:	e0ffe204 	addi	r3,fp,-120
    514c:	1885883a 	add	r2,r3,r2
    5150:	10800404 	addi	r2,r2,16
    5154:	10c00017 	ldw	r3,0(r2)
    5158:	d0a78317 	ldw	r2,-25076(gp)
    515c:	1085883a 	add	r2,r2,r2
    5160:	1085883a 	add	r2,r2,r2
    5164:	e13fe204 	addi	r4,fp,-120
    5168:	2085883a 	add	r2,r4,r2
    516c:	10801004 	addi	r2,r2,64
    5170:	10800017 	ldw	r2,0(r2)
    5174:	1009883a 	mov	r4,r2
    5178:	e0bfe404 	addi	r2,fp,-112
    517c:	10c5883a 	add	r2,r2,r3
    5180:	11000005 	stb	r4,0(r2)
    5184:	d0a78317 	ldw	r2,-25076(gp)
    5188:	10800044 	addi	r2,r2,1
    518c:	d0a78315 	stw	r2,-25076(gp)
    5190:	00001906 	br	51f8 <interval_timer_ISR+0x1f8>
    5194:	d0a78317 	ldw	r2,-25076(gp)
    5198:	1000020e 	bge	r2,zero,51a4 <interval_timer_ISR+0x1a4>
    519c:	008002c4 	movi	r2,11
    51a0:	d0a78315 	stw	r2,-25076(gp)
    51a4:	d0a78317 	ldw	r2,-25076(gp)
    51a8:	1085883a 	add	r2,r2,r2
    51ac:	1085883a 	add	r2,r2,r2
    51b0:	e0ffe204 	addi	r3,fp,-120
    51b4:	1885883a 	add	r2,r3,r2
    51b8:	10800404 	addi	r2,r2,16
    51bc:	10c00017 	ldw	r3,0(r2)
    51c0:	d0a78317 	ldw	r2,-25076(gp)
    51c4:	1085883a 	add	r2,r2,r2
    51c8:	1085883a 	add	r2,r2,r2
    51cc:	e13fe204 	addi	r4,fp,-120
    51d0:	2085883a 	add	r2,r4,r2
    51d4:	10801004 	addi	r2,r2,64
    51d8:	10800017 	ldw	r2,0(r2)
    51dc:	1009883a 	mov	r4,r2
    51e0:	e0bfe404 	addi	r2,fp,-112
    51e4:	10c5883a 	add	r2,r2,r3
    51e8:	11000005 	stb	r4,0(r2)
    51ec:	d0a78317 	ldw	r2,-25076(gp)
    51f0:	10bfffc4 	addi	r2,r2,-1
    51f4:	d0a78315 	stw	r2,-25076(gp)
    51f8:	e0bfe217 	ldw	r2,-120(fp)
    51fc:	10800017 	ldw	r2,0(r2)
    5200:	10dfffcc 	andi	r3,r2,32767
    5204:	e0bfe404 	addi	r2,fp,-112
    5208:	10800017 	ldw	r2,0(r2)
    520c:	1886b03a 	or	r3,r3,r2
    5210:	e0bfe217 	ldw	r2,-120(fp)
    5214:	10c00015 	stw	r3,0(r2)
    5218:	e0ffe517 	ldw	r3,-108(fp)
    521c:	e0bfe317 	ldw	r2,-116(fp)
    5220:	10c00015 	stw	r3,0(r2)
    5224:	00000306 	br	5234 <interval_timer_ISR+0x234>
    5228:	d0a77917 	ldw	r2,-25116(gp)
    522c:	10bfffc4 	addi	r2,r2,-1
    5230:	d0a77915 	stw	r2,-25116(gp)
    5234:	00800044 	movi	r2,1
    5238:	d0a78215 	stw	r2,-25080(gp)
    523c:	0001883a 	nop
    5240:	e037883a 	mov	sp,fp
    5244:	df000017 	ldw	fp,0(sp)
    5248:	dec00104 	addi	sp,sp,4
    524c:	f800283a 	ret

00005250 <memcpy>:
    5250:	defff804 	addi	sp,sp,-32
    5254:	df000715 	stw	fp,28(sp)
    5258:	df000704 	addi	fp,sp,28
    525c:	e13ffd15 	stw	r4,-12(fp)
    5260:	e17ffe15 	stw	r5,-8(fp)
    5264:	e1bfff15 	stw	r6,-4(fp)
    5268:	e0bffd17 	ldw	r2,-12(fp)
    526c:	e0bff915 	stw	r2,-28(fp)
    5270:	e0bffe17 	ldw	r2,-8(fp)
    5274:	e0bffa15 	stw	r2,-24(fp)
    5278:	e0bfff17 	ldw	r2,-4(fp)
    527c:	10800430 	cmpltui	r2,r2,16
    5280:	10004c1e 	bne	r2,zero,53b4 <memcpy+0x164>
    5284:	e0fffa17 	ldw	r3,-24(fp)
    5288:	e0bff917 	ldw	r2,-28(fp)
    528c:	1884b03a 	or	r2,r3,r2
    5290:	108000cc 	andi	r2,r2,3
    5294:	1000471e 	bne	r2,zero,53b4 <memcpy+0x164>
    5298:	e0bff917 	ldw	r2,-28(fp)
    529c:	e0bffb15 	stw	r2,-20(fp)
    52a0:	e0bffa17 	ldw	r2,-24(fp)
    52a4:	e0bffc15 	stw	r2,-16(fp)
    52a8:	00002306 	br	5338 <memcpy+0xe8>
    52ac:	e0bffb17 	ldw	r2,-20(fp)
    52b0:	10c00104 	addi	r3,r2,4
    52b4:	e0fffb15 	stw	r3,-20(fp)
    52b8:	e0fffc17 	ldw	r3,-16(fp)
    52bc:	19000104 	addi	r4,r3,4
    52c0:	e13ffc15 	stw	r4,-16(fp)
    52c4:	18c00017 	ldw	r3,0(r3)
    52c8:	10c00015 	stw	r3,0(r2)
    52cc:	e0bffb17 	ldw	r2,-20(fp)
    52d0:	10c00104 	addi	r3,r2,4
    52d4:	e0fffb15 	stw	r3,-20(fp)
    52d8:	e0fffc17 	ldw	r3,-16(fp)
    52dc:	19000104 	addi	r4,r3,4
    52e0:	e13ffc15 	stw	r4,-16(fp)
    52e4:	18c00017 	ldw	r3,0(r3)
    52e8:	10c00015 	stw	r3,0(r2)
    52ec:	e0bffb17 	ldw	r2,-20(fp)
    52f0:	10c00104 	addi	r3,r2,4
    52f4:	e0fffb15 	stw	r3,-20(fp)
    52f8:	e0fffc17 	ldw	r3,-16(fp)
    52fc:	19000104 	addi	r4,r3,4
    5300:	e13ffc15 	stw	r4,-16(fp)
    5304:	18c00017 	ldw	r3,0(r3)
    5308:	10c00015 	stw	r3,0(r2)
    530c:	e0bffb17 	ldw	r2,-20(fp)
    5310:	10c00104 	addi	r3,r2,4
    5314:	e0fffb15 	stw	r3,-20(fp)
    5318:	e0fffc17 	ldw	r3,-16(fp)
    531c:	19000104 	addi	r4,r3,4
    5320:	e13ffc15 	stw	r4,-16(fp)
    5324:	18c00017 	ldw	r3,0(r3)
    5328:	10c00015 	stw	r3,0(r2)
    532c:	e0bfff17 	ldw	r2,-4(fp)
    5330:	10bffc04 	addi	r2,r2,-16
    5334:	e0bfff15 	stw	r2,-4(fp)
    5338:	e0bfff17 	ldw	r2,-4(fp)
    533c:	10800428 	cmpgeui	r2,r2,16
    5340:	103fda1e 	bne	r2,zero,52ac <__alt_mem_VGA_Subsystem_Char_Buf_Subsystem_Onchip_SRAM+0xf70052ac>
    5344:	00000b06 	br	5374 <memcpy+0x124>
    5348:	e0bffb17 	ldw	r2,-20(fp)
    534c:	10c00104 	addi	r3,r2,4
    5350:	e0fffb15 	stw	r3,-20(fp)
    5354:	e0fffc17 	ldw	r3,-16(fp)
    5358:	19000104 	addi	r4,r3,4
    535c:	e13ffc15 	stw	r4,-16(fp)
    5360:	18c00017 	ldw	r3,0(r3)
    5364:	10c00015 	stw	r3,0(r2)
    5368:	e0bfff17 	ldw	r2,-4(fp)
    536c:	10bfff04 	addi	r2,r2,-4
    5370:	e0bfff15 	stw	r2,-4(fp)
    5374:	e0bfff17 	ldw	r2,-4(fp)
    5378:	10800128 	cmpgeui	r2,r2,4
    537c:	103ff21e 	bne	r2,zero,5348 <__alt_mem_VGA_Subsystem_Char_Buf_Subsystem_Onchip_SRAM+0xf7005348>
    5380:	e0bffb17 	ldw	r2,-20(fp)
    5384:	e0bff915 	stw	r2,-28(fp)
    5388:	e0bffc17 	ldw	r2,-16(fp)
    538c:	e0bffa15 	stw	r2,-24(fp)
    5390:	00000806 	br	53b4 <memcpy+0x164>
    5394:	e0bff917 	ldw	r2,-28(fp)
    5398:	10c00044 	addi	r3,r2,1
    539c:	e0fff915 	stw	r3,-28(fp)
    53a0:	e0fffa17 	ldw	r3,-24(fp)
    53a4:	19000044 	addi	r4,r3,1
    53a8:	e13ffa15 	stw	r4,-24(fp)
    53ac:	18c00003 	ldbu	r3,0(r3)
    53b0:	10c00005 	stb	r3,0(r2)
    53b4:	e0bfff17 	ldw	r2,-4(fp)
    53b8:	10ffffc4 	addi	r3,r2,-1
    53bc:	e0ffff15 	stw	r3,-4(fp)
    53c0:	103ff41e 	bne	r2,zero,5394 <__alt_mem_VGA_Subsystem_Char_Buf_Subsystem_Onchip_SRAM+0xf7005394>
    53c4:	e0bffd17 	ldw	r2,-12(fp)
    53c8:	e037883a 	mov	sp,fp
    53cc:	df000017 	ldw	fp,0(sp)
    53d0:	dec00104 	addi	sp,sp,4
    53d4:	f800283a 	ret

000053d8 <srand>:
    53d8:	defffd04 	addi	sp,sp,-12
    53dc:	df000215 	stw	fp,8(sp)
    53e0:	df000204 	addi	fp,sp,8
    53e4:	e13fff15 	stw	r4,-4(fp)
    53e8:	d1200417 	ldw	r4,-32752(gp)
    53ec:	e13ffe15 	stw	r4,-8(fp)
    53f0:	e13fff17 	ldw	r4,-4(fp)
    53f4:	2005883a 	mov	r2,r4
    53f8:	0007883a 	mov	r3,zero
    53fc:	e13ffe17 	ldw	r4,-8(fp)
    5400:	20802915 	stw	r2,164(r4)
    5404:	20c02a15 	stw	r3,168(r4)
    5408:	0001883a 	nop
    540c:	e037883a 	mov	sp,fp
    5410:	df000017 	ldw	fp,0(sp)
    5414:	dec00104 	addi	sp,sp,4
    5418:	f800283a 	ret

0000541c <rand>:
    541c:	defffe04 	addi	sp,sp,-8
    5420:	df000115 	stw	fp,4(sp)
    5424:	df000104 	addi	fp,sp,4
    5428:	d0a00417 	ldw	r2,-32752(gp)
    542c:	e0bfff15 	stw	r2,-4(fp)
    5430:	e1bfff17 	ldw	r6,-4(fp)
    5434:	30802917 	ldw	r2,164(r6)
    5438:	30c02a17 	ldw	r3,168(r6)
    543c:	01932574 	movhi	r6,19605
    5440:	319fcb44 	addi	r6,r6,32557
    5444:	198f383a 	mul	r7,r3,r6
    5448:	019614b4 	movhi	r6,22610
    544c:	31bd0b44 	addi	r6,r6,-3027
    5450:	118d383a 	mul	r6,r2,r6
    5454:	398f883a 	add	r7,r7,r6
    5458:	01932574 	movhi	r6,19605
    545c:	319fcb44 	addi	r6,r6,32557
    5460:	1194383a 	mulxuu	r10,r2,r6
    5464:	1185383a 	mul	r2,r2,r6
    5468:	1009883a 	mov	r4,r2
    546c:	500b883a 	mov	r5,r10
    5470:	3945883a 	add	r2,r7,r5
    5474:	100b883a 	mov	r5,r2
    5478:	01800044 	movi	r6,1
    547c:	000f883a 	mov	r7,zero
    5480:	2185883a 	add	r2,r4,r6
    5484:	1115803a 	cmpltu	r10,r2,r4
    5488:	29c7883a 	add	r3,r5,r7
    548c:	50c9883a 	add	r4,r10,r3
    5490:	2007883a 	mov	r3,r4
    5494:	1009883a 	mov	r4,r2
    5498:	180b883a 	mov	r5,r3
    549c:	e0bfff17 	ldw	r2,-4(fp)
    54a0:	11002915 	stw	r4,164(r2)
    54a4:	11402a15 	stw	r5,168(r2)
    54a8:	e13fff17 	ldw	r4,-4(fp)
    54ac:	20802917 	ldw	r2,164(r4)
    54b0:	20c02a17 	ldw	r3,168(r4)
    54b4:	1810d83a 	srl	r8,r3,zero
    54b8:	0013883a 	mov	r9,zero
    54bc:	4007883a 	mov	r3,r8
    54c0:	00a00034 	movhi	r2,32768
    54c4:	10bfffc4 	addi	r2,r2,-1
    54c8:	1884703a 	and	r2,r3,r2
    54cc:	e037883a 	mov	sp,fp
    54d0:	df000017 	ldw	fp,0(sp)
    54d4:	dec00104 	addi	sp,sp,4
    54d8:	f800283a 	ret

000054dc <alt_irq_register>:
    54dc:	defff004 	addi	sp,sp,-64
    54e0:	df000f15 	stw	fp,60(sp)
    54e4:	df000f04 	addi	fp,sp,60
    54e8:	e13ffd15 	stw	r4,-12(fp)
    54ec:	e17ffe15 	stw	r5,-8(fp)
    54f0:	e1bfff15 	stw	r6,-4(fp)
    54f4:	00bffa84 	movi	r2,-22
    54f8:	e0bff115 	stw	r2,-60(fp)
    54fc:	e0bffd17 	ldw	r2,-12(fp)
    5500:	10800828 	cmpgeui	r2,r2,32
    5504:	1000501e 	bne	r2,zero,5648 <alt_irq_register+0x16c>
    5508:	0005303a 	rdctl	r2,status
    550c:	e0bff615 	stw	r2,-40(fp)
    5510:	e0fff617 	ldw	r3,-40(fp)
    5514:	00bfff84 	movi	r2,-2
    5518:	1884703a 	and	r2,r3,r2
    551c:	1001703a 	wrctl	status,r2
    5520:	e0bff617 	ldw	r2,-40(fp)
    5524:	e0bff315 	stw	r2,-52(fp)
    5528:	00800374 	movhi	r2,13
    552c:	10b52c04 	addi	r2,r2,-11088
    5530:	e0fffd17 	ldw	r3,-12(fp)
    5534:	180690fa 	slli	r3,r3,3
    5538:	10c5883a 	add	r2,r2,r3
    553c:	e0ffff17 	ldw	r3,-4(fp)
    5540:	10c00015 	stw	r3,0(r2)
    5544:	00800374 	movhi	r2,13
    5548:	10b52c04 	addi	r2,r2,-11088
    554c:	e0fffd17 	ldw	r3,-12(fp)
    5550:	180690fa 	slli	r3,r3,3
    5554:	10c5883a 	add	r2,r2,r3
    5558:	10800104 	addi	r2,r2,4
    555c:	e0fffe17 	ldw	r3,-8(fp)
    5560:	10c00015 	stw	r3,0(r2)
    5564:	e0bfff17 	ldw	r2,-4(fp)
    5568:	10001926 	beq	r2,zero,55d0 <alt_irq_register+0xf4>
    556c:	e0bffd17 	ldw	r2,-12(fp)
    5570:	e0bff215 	stw	r2,-56(fp)
    5574:	0005303a 	rdctl	r2,status
    5578:	e0bff715 	stw	r2,-36(fp)
    557c:	e0fff717 	ldw	r3,-36(fp)
    5580:	00bfff84 	movi	r2,-2
    5584:	1884703a 	and	r2,r3,r2
    5588:	1001703a 	wrctl	status,r2
    558c:	e0bff717 	ldw	r2,-36(fp)
    5590:	e0bff815 	stw	r2,-32(fp)
    5594:	00c00044 	movi	r3,1
    5598:	e0bff217 	ldw	r2,-56(fp)
    559c:	1884983a 	sll	r2,r3,r2
    55a0:	1007883a 	mov	r3,r2
    55a4:	d0a78a17 	ldw	r2,-25048(gp)
    55a8:	1884b03a 	or	r2,r3,r2
    55ac:	d0a78a15 	stw	r2,-25048(gp)
    55b0:	d0a78a17 	ldw	r2,-25048(gp)
    55b4:	100170fa 	wrctl	ienable,r2
    55b8:	e0bff817 	ldw	r2,-32(fp)
    55bc:	e0bff915 	stw	r2,-28(fp)
    55c0:	e0bff917 	ldw	r2,-28(fp)
    55c4:	1001703a 	wrctl	status,r2
    55c8:	0005883a 	mov	r2,zero
    55cc:	00001906 	br	5634 <alt_irq_register+0x158>
    55d0:	e0bffd17 	ldw	r2,-12(fp)
    55d4:	e0bff415 	stw	r2,-48(fp)
    55d8:	0005303a 	rdctl	r2,status
    55dc:	e0bffa15 	stw	r2,-24(fp)
    55e0:	e0fffa17 	ldw	r3,-24(fp)
    55e4:	00bfff84 	movi	r2,-2
    55e8:	1884703a 	and	r2,r3,r2
    55ec:	1001703a 	wrctl	status,r2
    55f0:	e0bffa17 	ldw	r2,-24(fp)
    55f4:	e0bffb15 	stw	r2,-20(fp)
    55f8:	00c00044 	movi	r3,1
    55fc:	e0bff417 	ldw	r2,-48(fp)
    5600:	1884983a 	sll	r2,r3,r2
    5604:	0084303a 	nor	r2,zero,r2
    5608:	1007883a 	mov	r3,r2
    560c:	d0a78a17 	ldw	r2,-25048(gp)
    5610:	1884703a 	and	r2,r3,r2
    5614:	d0a78a15 	stw	r2,-25048(gp)
    5618:	d0a78a17 	ldw	r2,-25048(gp)
    561c:	100170fa 	wrctl	ienable,r2
    5620:	e0bffb17 	ldw	r2,-20(fp)
    5624:	e0bffc15 	stw	r2,-16(fp)
    5628:	e0bffc17 	ldw	r2,-16(fp)
    562c:	1001703a 	wrctl	status,r2
    5630:	0005883a 	mov	r2,zero
    5634:	e0bff115 	stw	r2,-60(fp)
    5638:	e0bff317 	ldw	r2,-52(fp)
    563c:	e0bff515 	stw	r2,-44(fp)
    5640:	e0bff517 	ldw	r2,-44(fp)
    5644:	1001703a 	wrctl	status,r2
    5648:	e0bff117 	ldw	r2,-60(fp)
    564c:	e037883a 	mov	sp,fp
    5650:	df000017 	ldw	fp,0(sp)
    5654:	dec00104 	addi	sp,sp,4
    5658:	f800283a 	ret

0000565c <alt_load_section>:
    565c:	defffc04 	addi	sp,sp,-16
    5660:	df000315 	stw	fp,12(sp)
    5664:	df000304 	addi	fp,sp,12
    5668:	e13ffd15 	stw	r4,-12(fp)
    566c:	e17ffe15 	stw	r5,-8(fp)
    5670:	e1bfff15 	stw	r6,-4(fp)
    5674:	e0fffe17 	ldw	r3,-8(fp)
    5678:	e0bffd17 	ldw	r2,-12(fp)
    567c:	18800c26 	beq	r3,r2,56b0 <alt_load_section+0x54>
    5680:	00000806 	br	56a4 <alt_load_section+0x48>
    5684:	e0bffe17 	ldw	r2,-8(fp)
    5688:	10c00104 	addi	r3,r2,4
    568c:	e0fffe15 	stw	r3,-8(fp)
    5690:	e0fffd17 	ldw	r3,-12(fp)
    5694:	19000104 	addi	r4,r3,4
    5698:	e13ffd15 	stw	r4,-12(fp)
    569c:	18c00017 	ldw	r3,0(r3)
    56a0:	10c00015 	stw	r3,0(r2)
    56a4:	e0fffe17 	ldw	r3,-8(fp)
    56a8:	e0bfff17 	ldw	r2,-4(fp)
    56ac:	18bff51e 	bne	r3,r2,5684 <__alt_mem_VGA_Subsystem_Char_Buf_Subsystem_Onchip_SRAM+0xf7005684>
    56b0:	0001883a 	nop
    56b4:	e037883a 	mov	sp,fp
    56b8:	df000017 	ldw	fp,0(sp)
    56bc:	dec00104 	addi	sp,sp,4
    56c0:	f800283a 	ret

000056c4 <alt_load>:
    56c4:	defffe04 	addi	sp,sp,-8
    56c8:	dfc00115 	stw	ra,4(sp)
    56cc:	df000015 	stw	fp,0(sp)
    56d0:	d839883a 	mov	fp,sp
    56d4:	01800374 	movhi	r6,13
    56d8:	31ad8204 	addi	r6,r6,-18936
    56dc:	01400374 	movhi	r5,13
    56e0:	29661f04 	addi	r5,r5,-26500
    56e4:	01000374 	movhi	r4,13
    56e8:	212d8204 	addi	r4,r4,-18936
    56ec:	000565c0 	call	565c <alt_load_section>
    56f0:	01800034 	movhi	r6,0
    56f4:	31809204 	addi	r6,r6,584
    56f8:	01400034 	movhi	r5,0
    56fc:	29400804 	addi	r5,r5,32
    5700:	01000034 	movhi	r4,0
    5704:	21000804 	addi	r4,r4,32
    5708:	000565c0 	call	565c <alt_load_section>
    570c:	01800374 	movhi	r6,13
    5710:	31a61f04 	addi	r6,r6,-26500
    5714:	01400074 	movhi	r5,1
    5718:	2976b704 	addi	r5,r5,-9508
    571c:	01000074 	movhi	r4,1
    5720:	2136b704 	addi	r4,r4,-9508
    5724:	000565c0 	call	565c <alt_load_section>
    5728:	00091740 	call	9174 <alt_dcache_flush_all>
    572c:	00093f00 	call	93f0 <alt_icache_flush_all>
    5730:	0001883a 	nop
    5734:	e037883a 	mov	sp,fp
    5738:	dfc00117 	ldw	ra,4(sp)
    573c:	df000017 	ldw	fp,0(sp)
    5740:	dec00204 	addi	sp,sp,8
    5744:	f800283a 	ret

00005748 <alt_main>:
    5748:	defffd04 	addi	sp,sp,-12
    574c:	dfc00215 	stw	ra,8(sp)
    5750:	df000115 	stw	fp,4(sp)
    5754:	df000104 	addi	fp,sp,4
    5758:	0009883a 	mov	r4,zero
    575c:	0005a600 	call	5a60 <alt_irq_init>
    5760:	0001883a 	nop
    5764:	0005a980 	call	5a98 <alt_sys_init>
    5768:	01800374 	movhi	r6,13
    576c:	31a5df04 	addi	r6,r6,-26756
    5770:	01400374 	movhi	r5,13
    5774:	2965df04 	addi	r5,r5,-26756
    5778:	01000374 	movhi	r4,13
    577c:	2125df04 	addi	r4,r4,-26756
    5780:	00094e80 	call	94e8 <alt_io_redirect>
    5784:	00092a00 	call	92a0 <_do_ctors>
    5788:	01000074 	movhi	r4,1
    578c:	2124c004 	addi	r4,r4,-27904
    5790:	0009cbc0 	call	9cbc <atexit>
    5794:	d0a78b17 	ldw	r2,-25044(gp)
    5798:	d0e78c17 	ldw	r3,-25040(gp)
    579c:	d1278d17 	ldw	r4,-25036(gp)
    57a0:	200d883a 	mov	r6,r4
    57a4:	180b883a 	mov	r5,r3
    57a8:	1009883a 	mov	r4,r2
    57ac:	00004bc0 	call	4bc <main>
    57b0:	e0bfff15 	stw	r2,-4(fp)
    57b4:	01000044 	movi	r4,1
    57b8:	00090a40 	call	90a4 <close>
    57bc:	e13fff17 	ldw	r4,-4(fp)
    57c0:	0009cf80 	call	9cf8 <exit>

000057c4 <alt_printf>:
    57c4:	defff204 	addi	sp,sp,-56
    57c8:	dfc00a15 	stw	ra,40(sp)
    57cc:	df000915 	stw	fp,36(sp)
    57d0:	df000904 	addi	fp,sp,36
    57d4:	e13fff15 	stw	r4,-4(fp)
    57d8:	e1400215 	stw	r5,8(fp)
    57dc:	e1800315 	stw	r6,12(fp)
    57e0:	e1c00415 	stw	r7,16(fp)
    57e4:	e0800204 	addi	r2,fp,8
    57e8:	e0bffe15 	stw	r2,-8(fp)
    57ec:	e0bfff17 	ldw	r2,-4(fp)
    57f0:	e0bff715 	stw	r2,-36(fp)
    57f4:	00006f06 	br	59b4 <alt_printf+0x1f0>
    57f8:	e0bff807 	ldb	r2,-32(fp)
    57fc:	10800960 	cmpeqi	r2,r2,37
    5800:	1000041e 	bne	r2,zero,5814 <alt_printf+0x50>
    5804:	e0bff807 	ldb	r2,-32(fp)
    5808:	1009883a 	mov	r4,r2
    580c:	00059f00 	call	59f0 <alt_putchar>
    5810:	00006806 	br	59b4 <alt_printf+0x1f0>
    5814:	e0bff717 	ldw	r2,-36(fp)
    5818:	10c00044 	addi	r3,r2,1
    581c:	e0fff715 	stw	r3,-36(fp)
    5820:	10800003 	ldbu	r2,0(r2)
    5824:	e0bff805 	stb	r2,-32(fp)
    5828:	e0bff807 	ldb	r2,-32(fp)
    582c:	10006926 	beq	r2,zero,59d4 <alt_printf+0x210>
    5830:	e0bff807 	ldb	r2,-32(fp)
    5834:	10800958 	cmpnei	r2,r2,37
    5838:	1000041e 	bne	r2,zero,584c <alt_printf+0x88>
    583c:	e0bff807 	ldb	r2,-32(fp)
    5840:	1009883a 	mov	r4,r2
    5844:	00059f00 	call	59f0 <alt_putchar>
    5848:	00005a06 	br	59b4 <alt_printf+0x1f0>
    584c:	e0bff807 	ldb	r2,-32(fp)
    5850:	108018d8 	cmpnei	r2,r2,99
    5854:	1000081e 	bne	r2,zero,5878 <alt_printf+0xb4>
    5858:	e0bffe17 	ldw	r2,-8(fp)
    585c:	10c00104 	addi	r3,r2,4
    5860:	e0fffe15 	stw	r3,-8(fp)
    5864:	10800017 	ldw	r2,0(r2)
    5868:	e0bffd15 	stw	r2,-12(fp)
    586c:	e13ffd17 	ldw	r4,-12(fp)
    5870:	00059f00 	call	59f0 <alt_putchar>
    5874:	00004f06 	br	59b4 <alt_printf+0x1f0>
    5878:	e0bff807 	ldb	r2,-32(fp)
    587c:	10801e18 	cmpnei	r2,r2,120
    5880:	1000341e 	bne	r2,zero,5954 <alt_printf+0x190>
    5884:	e0bffe17 	ldw	r2,-8(fp)
    5888:	10c00104 	addi	r3,r2,4
    588c:	e0fffe15 	stw	r3,-8(fp)
    5890:	10800017 	ldw	r2,0(r2)
    5894:	e0bffb15 	stw	r2,-20(fp)
    5898:	e0bffb17 	ldw	r2,-20(fp)
    589c:	1000031e 	bne	r2,zero,58ac <alt_printf+0xe8>
    58a0:	01000c04 	movi	r4,48
    58a4:	00059f00 	call	59f0 <alt_putchar>
    58a8:	00004206 	br	59b4 <alt_printf+0x1f0>
    58ac:	00800704 	movi	r2,28
    58b0:	e0bff915 	stw	r2,-28(fp)
    58b4:	00000306 	br	58c4 <alt_printf+0x100>
    58b8:	e0bff917 	ldw	r2,-28(fp)
    58bc:	10bfff04 	addi	r2,r2,-4
    58c0:	e0bff915 	stw	r2,-28(fp)
    58c4:	00c003c4 	movi	r3,15
    58c8:	e0bff917 	ldw	r2,-28(fp)
    58cc:	1884983a 	sll	r2,r3,r2
    58d0:	1007883a 	mov	r3,r2
    58d4:	e0bffb17 	ldw	r2,-20(fp)
    58d8:	1884703a 	and	r2,r3,r2
    58dc:	103ff626 	beq	r2,zero,58b8 <__alt_mem_VGA_Subsystem_Char_Buf_Subsystem_Onchip_SRAM+0xf70058b8>
    58e0:	00001906 	br	5948 <alt_printf+0x184>
    58e4:	00c003c4 	movi	r3,15
    58e8:	e0bff917 	ldw	r2,-28(fp)
    58ec:	1884983a 	sll	r2,r3,r2
    58f0:	1007883a 	mov	r3,r2
    58f4:	e0bffb17 	ldw	r2,-20(fp)
    58f8:	1886703a 	and	r3,r3,r2
    58fc:	e0bff917 	ldw	r2,-28(fp)
    5900:	1884d83a 	srl	r2,r3,r2
    5904:	e0bffc15 	stw	r2,-16(fp)
    5908:	e0bffc17 	ldw	r2,-16(fp)
    590c:	108002a8 	cmpgeui	r2,r2,10
    5910:	1000041e 	bne	r2,zero,5924 <alt_printf+0x160>
    5914:	e0bffc17 	ldw	r2,-16(fp)
    5918:	10800c04 	addi	r2,r2,48
    591c:	e0bff805 	stb	r2,-32(fp)
    5920:	00000306 	br	5930 <alt_printf+0x16c>
    5924:	e0bffc17 	ldw	r2,-16(fp)
    5928:	108015c4 	addi	r2,r2,87
    592c:	e0bff805 	stb	r2,-32(fp)
    5930:	e0bff807 	ldb	r2,-32(fp)
    5934:	1009883a 	mov	r4,r2
    5938:	00059f00 	call	59f0 <alt_putchar>
    593c:	e0bff917 	ldw	r2,-28(fp)
    5940:	10bfff04 	addi	r2,r2,-4
    5944:	e0bff915 	stw	r2,-28(fp)
    5948:	e0bff917 	ldw	r2,-28(fp)
    594c:	103fe50e 	bge	r2,zero,58e4 <__alt_mem_VGA_Subsystem_Char_Buf_Subsystem_Onchip_SRAM+0xf70058e4>
    5950:	00001806 	br	59b4 <alt_printf+0x1f0>
    5954:	e0bff807 	ldb	r2,-32(fp)
    5958:	10801cd8 	cmpnei	r2,r2,115
    595c:	1000151e 	bne	r2,zero,59b4 <alt_printf+0x1f0>
    5960:	e0bffe17 	ldw	r2,-8(fp)
    5964:	10c00104 	addi	r3,r2,4
    5968:	e0fffe15 	stw	r3,-8(fp)
    596c:	10800017 	ldw	r2,0(r2)
    5970:	e0bffa15 	stw	r2,-24(fp)
    5974:	00000906 	br	599c <alt_printf+0x1d8>
    5978:	e0bffa17 	ldw	r2,-24(fp)
    597c:	10c00044 	addi	r3,r2,1
    5980:	e0fffa15 	stw	r3,-24(fp)
    5984:	10800003 	ldbu	r2,0(r2)
    5988:	10803fcc 	andi	r2,r2,255
    598c:	1080201c 	xori	r2,r2,128
    5990:	10bfe004 	addi	r2,r2,-128
    5994:	1009883a 	mov	r4,r2
    5998:	00059f00 	call	59f0 <alt_putchar>
    599c:	e0bffa17 	ldw	r2,-24(fp)
    59a0:	10800003 	ldbu	r2,0(r2)
    59a4:	10803fcc 	andi	r2,r2,255
    59a8:	1080201c 	xori	r2,r2,128
    59ac:	10bfe004 	addi	r2,r2,-128
    59b0:	103ff11e 	bne	r2,zero,5978 <__alt_mem_VGA_Subsystem_Char_Buf_Subsystem_Onchip_SRAM+0xf7005978>
    59b4:	e0bff717 	ldw	r2,-36(fp)
    59b8:	10c00044 	addi	r3,r2,1
    59bc:	e0fff715 	stw	r3,-36(fp)
    59c0:	10800003 	ldbu	r2,0(r2)
    59c4:	e0bff805 	stb	r2,-32(fp)
    59c8:	e0bff807 	ldb	r2,-32(fp)
    59cc:	103f8a1e 	bne	r2,zero,57f8 <__alt_mem_VGA_Subsystem_Char_Buf_Subsystem_Onchip_SRAM+0xf70057f8>
    59d0:	00000106 	br	59d8 <alt_printf+0x214>
    59d4:	0001883a 	nop
    59d8:	0001883a 	nop
    59dc:	e037883a 	mov	sp,fp
    59e0:	dfc00117 	ldw	ra,4(sp)
    59e4:	df000017 	ldw	fp,0(sp)
    59e8:	dec00504 	addi	sp,sp,20
    59ec:	f800283a 	ret

000059f0 <alt_putchar>:
    59f0:	defffd04 	addi	sp,sp,-12
    59f4:	dfc00215 	stw	ra,8(sp)
    59f8:	df000115 	stw	fp,4(sp)
    59fc:	df000104 	addi	fp,sp,4
    5a00:	e13fff15 	stw	r4,-4(fp)
    5a04:	d0a00417 	ldw	r2,-32752(gp)
    5a08:	10800217 	ldw	r2,8(r2)
    5a0c:	100b883a 	mov	r5,r2
    5a10:	e13fff17 	ldw	r4,-4(fp)
    5a14:	0009f780 	call	9f78 <putc>
    5a18:	e037883a 	mov	sp,fp
    5a1c:	dfc00117 	ldw	ra,4(sp)
    5a20:	df000017 	ldw	fp,0(sp)
    5a24:	dec00204 	addi	sp,sp,8
    5a28:	f800283a 	ret

00005a2c <alt_dev_reg>:
    5a2c:	defffd04 	addi	sp,sp,-12
    5a30:	dfc00215 	stw	ra,8(sp)
    5a34:	df000115 	stw	fp,4(sp)
    5a38:	df000104 	addi	fp,sp,4
    5a3c:	e13fff15 	stw	r4,-4(fp)
    5a40:	d1600904 	addi	r5,gp,-32732
    5a44:	e13fff17 	ldw	r4,-4(fp)
    5a48:	00091fc0 	call	91fc <alt_dev_llist_insert>
    5a4c:	e037883a 	mov	sp,fp
    5a50:	dfc00117 	ldw	ra,4(sp)
    5a54:	df000017 	ldw	fp,0(sp)
    5a58:	dec00204 	addi	sp,sp,8
    5a5c:	f800283a 	ret

00005a60 <alt_irq_init>:
    5a60:	defffd04 	addi	sp,sp,-12
    5a64:	dfc00215 	stw	ra,8(sp)
    5a68:	df000115 	stw	fp,4(sp)
    5a6c:	df000104 	addi	fp,sp,4
    5a70:	e13fff15 	stw	r4,-4(fp)
    5a74:	00099c00 	call	99c0 <altera_nios2_gen2_irq_init>
    5a78:	00800044 	movi	r2,1
    5a7c:	1001703a 	wrctl	status,r2
    5a80:	0001883a 	nop
    5a84:	e037883a 	mov	sp,fp
    5a88:	dfc00117 	ldw	ra,4(sp)
    5a8c:	df000017 	ldw	fp,0(sp)
    5a90:	dec00204 	addi	sp,sp,8
    5a94:	f800283a 	ret

00005a98 <alt_sys_init>:
    5a98:	defffc04 	addi	sp,sp,-16
    5a9c:	dfc00315 	stw	ra,12(sp)
    5aa0:	df000215 	stw	fp,8(sp)
    5aa4:	df000204 	addi	fp,sp,8
    5aa8:	01c00204 	movi	r7,8
    5aac:	000d883a 	mov	r6,zero
    5ab0:	000b883a 	mov	r5,zero
    5ab4:	013fc834 	movhi	r4,65312
    5ab8:	21080004 	addi	r4,r4,8192
    5abc:	0006c100 	call	6c10 <alt_avalon_timer_sc_init>
    5ac0:	01800204 	movi	r6,8
    5ac4:	000b883a 	mov	r5,zero
    5ac8:	01000374 	movhi	r4,13
    5acc:	21278304 	addi	r4,r4,-25076
    5ad0:	00062980 	call	6298 <altera_avalon_jtag_uart_init>
    5ad4:	01000374 	movhi	r4,13
    5ad8:	21277904 	addi	r4,r4,-25116
    5adc:	0005a2c0 	call	5a2c <alt_dev_reg>
    5ae0:	0001883a 	nop
    5ae4:	01000374 	movhi	r4,13
    5ae8:	212b9104 	addi	r4,r4,-20924
    5aec:	0005a2c0 	call	5a2c <alt_dev_reg>
    5af0:	01000374 	movhi	r4,13
    5af4:	212b9d04 	addi	r4,r4,-20876
    5af8:	0005a2c0 	call	5a2c <alt_dev_reg>
    5afc:	01000374 	movhi	r4,13
    5b00:	212ba904 	addi	r4,r4,-20828
    5b04:	00075540 	call	7554 <alt_up_ps2_init>
    5b08:	01000374 	movhi	r4,13
    5b0c:	212ba904 	addi	r4,r4,-20828
    5b10:	0005a2c0 	call	5a2c <alt_dev_reg>
    5b14:	01000374 	movhi	r4,13
    5b18:	212bb704 	addi	r4,r4,-20772
    5b1c:	00075540 	call	7554 <alt_up_ps2_init>
    5b20:	01000374 	movhi	r4,13
    5b24:	212bb704 	addi	r4,r4,-20772
    5b28:	0005a2c0 	call	5a2c <alt_dev_reg>
    5b2c:	00800374 	movhi	r2,13
    5b30:	10abc504 	addi	r2,r2,-20716
    5b34:	10800a17 	ldw	r2,40(r2)
    5b38:	10800017 	ldw	r2,0(r2)
    5b3c:	1007883a 	mov	r3,r2
    5b40:	00800374 	movhi	r2,13
    5b44:	10abc504 	addi	r2,r2,-20716
    5b48:	10c00b15 	stw	r3,44(r2)
    5b4c:	00800374 	movhi	r2,13
    5b50:	10abc504 	addi	r2,r2,-20716
    5b54:	10800a17 	ldw	r2,40(r2)
    5b58:	10800104 	addi	r2,r2,4
    5b5c:	10800017 	ldw	r2,0(r2)
    5b60:	1007883a 	mov	r3,r2
    5b64:	00800374 	movhi	r2,13
    5b68:	10abc504 	addi	r2,r2,-20716
    5b6c:	10c00c15 	stw	r3,48(r2)
    5b70:	00800374 	movhi	r2,13
    5b74:	10abc504 	addi	r2,r2,-20716
    5b78:	10800a17 	ldw	r2,40(r2)
    5b7c:	10800204 	addi	r2,r2,8
    5b80:	10800017 	ldw	r2,0(r2)
    5b84:	10ffffcc 	andi	r3,r2,65535
    5b88:	00800374 	movhi	r2,13
    5b8c:	10abc504 	addi	r2,r2,-20716
    5b90:	10c01115 	stw	r3,68(r2)
    5b94:	00800374 	movhi	r2,13
    5b98:	10abc504 	addi	r2,r2,-20716
    5b9c:	10800a17 	ldw	r2,40(r2)
    5ba0:	10800204 	addi	r2,r2,8
    5ba4:	10800017 	ldw	r2,0(r2)
    5ba8:	1006d43a 	srli	r3,r2,16
    5bac:	00800374 	movhi	r2,13
    5bb0:	10abc504 	addi	r2,r2,-20716
    5bb4:	10c01215 	stw	r3,72(r2)
    5bb8:	00800374 	movhi	r2,13
    5bbc:	10abc504 	addi	r2,r2,-20716
    5bc0:	10800a17 	ldw	r2,40(r2)
    5bc4:	10800304 	addi	r2,r2,12
    5bc8:	10800017 	ldw	r2,0(r2)
    5bcc:	1005d07a 	srai	r2,r2,1
    5bd0:	10c0004c 	andi	r3,r2,1
    5bd4:	00800374 	movhi	r2,13
    5bd8:	10abc504 	addi	r2,r2,-20716
    5bdc:	10c00d15 	stw	r3,52(r2)
    5be0:	00800374 	movhi	r2,13
    5be4:	10abc504 	addi	r2,r2,-20716
    5be8:	10800a17 	ldw	r2,40(r2)
    5bec:	10800304 	addi	r2,r2,12
    5bf0:	10800017 	ldw	r2,0(r2)
    5bf4:	1005d23a 	srai	r2,r2,8
    5bf8:	108003cc 	andi	r2,r2,15
    5bfc:	10800044 	addi	r2,r2,1
    5c00:	1007883a 	mov	r3,r2
    5c04:	00800374 	movhi	r2,13
    5c08:	10abc504 	addi	r2,r2,-20716
    5c0c:	10c00e15 	stw	r3,56(r2)
    5c10:	00800374 	movhi	r2,13
    5c14:	10abc504 	addi	r2,r2,-20716
    5c18:	10800a17 	ldw	r2,40(r2)
    5c1c:	10800304 	addi	r2,r2,12
    5c20:	10800017 	ldw	r2,0(r2)
    5c24:	1005d1ba 	srai	r2,r2,6
    5c28:	108000cc 	andi	r2,r2,3
    5c2c:	10800044 	addi	r2,r2,1
    5c30:	1007883a 	mov	r3,r2
    5c34:	00800374 	movhi	r2,13
    5c38:	10abc504 	addi	r2,r2,-20716
    5c3c:	10c00f15 	stw	r3,60(r2)
    5c40:	00800374 	movhi	r2,13
    5c44:	10abc504 	addi	r2,r2,-20716
    5c48:	10800e17 	ldw	r2,56(r2)
    5c4c:	1007883a 	mov	r3,r2
    5c50:	00800374 	movhi	r2,13
    5c54:	10abc504 	addi	r2,r2,-20716
    5c58:	10800f17 	ldw	r2,60(r2)
    5c5c:	1885383a 	mul	r2,r3,r2
    5c60:	e0bffe05 	stb	r2,-8(fp)
    5c64:	e0bffe03 	ldbu	r2,-8(fp)
    5c68:	10800268 	cmpgeui	r2,r2,9
    5c6c:	1000051e 	bne	r2,zero,5c84 <alt_sys_init+0x1ec>
    5c70:	00800374 	movhi	r2,13
    5c74:	10abc504 	addi	r2,r2,-20716
    5c78:	00c00044 	movi	r3,1
    5c7c:	10c01015 	stw	r3,64(r2)
    5c80:	00000c06 	br	5cb4 <alt_sys_init+0x21c>
    5c84:	e0bffe03 	ldbu	r2,-8(fp)
    5c88:	10800468 	cmpgeui	r2,r2,17
    5c8c:	1000051e 	bne	r2,zero,5ca4 <alt_sys_init+0x20c>
    5c90:	00800374 	movhi	r2,13
    5c94:	10abc504 	addi	r2,r2,-20716
    5c98:	00c00084 	movi	r3,2
    5c9c:	10c01015 	stw	r3,64(r2)
    5ca0:	00000406 	br	5cb4 <alt_sys_init+0x21c>
    5ca4:	00800374 	movhi	r2,13
    5ca8:	10abc504 	addi	r2,r2,-20716
    5cac:	00c00104 	movi	r3,4
    5cb0:	10c01015 	stw	r3,64(r2)
    5cb4:	00800374 	movhi	r2,13
    5cb8:	10abc504 	addi	r2,r2,-20716
    5cbc:	10800a17 	ldw	r2,40(r2)
    5cc0:	10800304 	addi	r2,r2,12
    5cc4:	10800017 	ldw	r2,0(r2)
    5cc8:	1005d43a 	srai	r2,r2,16
    5ccc:	e0bffe45 	stb	r2,-7(fp)
    5cd0:	00800374 	movhi	r2,13
    5cd4:	10abc504 	addi	r2,r2,-20716
    5cd8:	10800a17 	ldw	r2,40(r2)
    5cdc:	10800304 	addi	r2,r2,12
    5ce0:	10800017 	ldw	r2,0(r2)
    5ce4:	1004d63a 	srli	r2,r2,24
    5ce8:	e0bffe85 	stb	r2,-6(fp)
    5cec:	00800374 	movhi	r2,13
    5cf0:	10abc504 	addi	r2,r2,-20716
    5cf4:	10801017 	ldw	r2,64(r2)
    5cf8:	10800058 	cmpnei	r2,r2,1
    5cfc:	1000041e 	bne	r2,zero,5d10 <alt_sys_init+0x278>
    5d00:	00800374 	movhi	r2,13
    5d04:	10abc504 	addi	r2,r2,-20716
    5d08:	10001315 	stw	zero,76(r2)
    5d0c:	00000e06 	br	5d48 <alt_sys_init+0x2b0>
    5d10:	00800374 	movhi	r2,13
    5d14:	10abc504 	addi	r2,r2,-20716
    5d18:	10801017 	ldw	r2,64(r2)
    5d1c:	10800098 	cmpnei	r2,r2,2
    5d20:	1000051e 	bne	r2,zero,5d38 <alt_sys_init+0x2a0>
    5d24:	00800374 	movhi	r2,13
    5d28:	10abc504 	addi	r2,r2,-20716
    5d2c:	00c00044 	movi	r3,1
    5d30:	10c01315 	stw	r3,76(r2)
    5d34:	00000406 	br	5d48 <alt_sys_init+0x2b0>
    5d38:	00800374 	movhi	r2,13
    5d3c:	10abc504 	addi	r2,r2,-20716
    5d40:	00c00084 	movi	r3,2
    5d44:	10c01315 	stw	r3,76(r2)
    5d48:	e0bffe43 	ldbu	r2,-7(fp)
    5d4c:	00c00804 	movi	r3,32
    5d50:	1885c83a 	sub	r2,r3,r2
    5d54:	00ffffc4 	movi	r3,-1
    5d58:	1886d83a 	srl	r3,r3,r2
    5d5c:	00800374 	movhi	r2,13
    5d60:	10abc504 	addi	r2,r2,-20716
    5d64:	10c01415 	stw	r3,80(r2)
    5d68:	e0fffe43 	ldbu	r3,-7(fp)
    5d6c:	00800374 	movhi	r2,13
    5d70:	10abc504 	addi	r2,r2,-20716
    5d74:	10801317 	ldw	r2,76(r2)
    5d78:	1887883a 	add	r3,r3,r2
    5d7c:	00800374 	movhi	r2,13
    5d80:	10abc504 	addi	r2,r2,-20716
    5d84:	10c01515 	stw	r3,84(r2)
    5d88:	e0bffe83 	ldbu	r2,-6(fp)
    5d8c:	00c00804 	movi	r3,32
    5d90:	1885c83a 	sub	r2,r3,r2
    5d94:	00ffffc4 	movi	r3,-1
    5d98:	1886d83a 	srl	r3,r3,r2
    5d9c:	00800374 	movhi	r2,13
    5da0:	10abc504 	addi	r2,r2,-20716
    5da4:	10c01615 	stw	r3,88(r2)
    5da8:	01000374 	movhi	r4,13
    5dac:	212bc504 	addi	r4,r4,-20716
    5db0:	0005a2c0 	call	5a2c <alt_dev_reg>
    5db4:	00800374 	movhi	r2,13
    5db8:	10abdc04 	addi	r2,r2,-20624
    5dbc:	10800a17 	ldw	r2,40(r2)
    5dc0:	10800017 	ldw	r2,0(r2)
    5dc4:	1007883a 	mov	r3,r2
    5dc8:	00800374 	movhi	r2,13
    5dcc:	10abdc04 	addi	r2,r2,-20624
    5dd0:	10c00b15 	stw	r3,44(r2)
    5dd4:	00800374 	movhi	r2,13
    5dd8:	10abdc04 	addi	r2,r2,-20624
    5ddc:	10800a17 	ldw	r2,40(r2)
    5de0:	10800104 	addi	r2,r2,4
    5de4:	10800017 	ldw	r2,0(r2)
    5de8:	1007883a 	mov	r3,r2
    5dec:	00800374 	movhi	r2,13
    5df0:	10abdc04 	addi	r2,r2,-20624
    5df4:	10c00c15 	stw	r3,48(r2)
    5df8:	00800374 	movhi	r2,13
    5dfc:	10abdc04 	addi	r2,r2,-20624
    5e00:	10800a17 	ldw	r2,40(r2)
    5e04:	10800204 	addi	r2,r2,8
    5e08:	10800017 	ldw	r2,0(r2)
    5e0c:	10ffffcc 	andi	r3,r2,65535
    5e10:	00800374 	movhi	r2,13
    5e14:	10abdc04 	addi	r2,r2,-20624
    5e18:	10c01115 	stw	r3,68(r2)
    5e1c:	00800374 	movhi	r2,13
    5e20:	10abdc04 	addi	r2,r2,-20624
    5e24:	10800a17 	ldw	r2,40(r2)
    5e28:	10800204 	addi	r2,r2,8
    5e2c:	10800017 	ldw	r2,0(r2)
    5e30:	1006d43a 	srli	r3,r2,16
    5e34:	00800374 	movhi	r2,13
    5e38:	10abdc04 	addi	r2,r2,-20624
    5e3c:	10c01215 	stw	r3,72(r2)
    5e40:	00800374 	movhi	r2,13
    5e44:	10abdc04 	addi	r2,r2,-20624
    5e48:	10800a17 	ldw	r2,40(r2)
    5e4c:	10800304 	addi	r2,r2,12
    5e50:	10800017 	ldw	r2,0(r2)
    5e54:	1005d07a 	srai	r2,r2,1
    5e58:	10c0004c 	andi	r3,r2,1
    5e5c:	00800374 	movhi	r2,13
    5e60:	10abdc04 	addi	r2,r2,-20624
    5e64:	10c00d15 	stw	r3,52(r2)
    5e68:	00800374 	movhi	r2,13
    5e6c:	10abdc04 	addi	r2,r2,-20624
    5e70:	10800a17 	ldw	r2,40(r2)
    5e74:	10800304 	addi	r2,r2,12
    5e78:	10800017 	ldw	r2,0(r2)
    5e7c:	1005d23a 	srai	r2,r2,8
    5e80:	108003cc 	andi	r2,r2,15
    5e84:	10800044 	addi	r2,r2,1
    5e88:	1007883a 	mov	r3,r2
    5e8c:	00800374 	movhi	r2,13
    5e90:	10abdc04 	addi	r2,r2,-20624
    5e94:	10c00e15 	stw	r3,56(r2)
    5e98:	00800374 	movhi	r2,13
    5e9c:	10abdc04 	addi	r2,r2,-20624
    5ea0:	10800a17 	ldw	r2,40(r2)
    5ea4:	10800304 	addi	r2,r2,12
    5ea8:	10800017 	ldw	r2,0(r2)
    5eac:	1005d1ba 	srai	r2,r2,6
    5eb0:	108000cc 	andi	r2,r2,3
    5eb4:	10800044 	addi	r2,r2,1
    5eb8:	1007883a 	mov	r3,r2
    5ebc:	00800374 	movhi	r2,13
    5ec0:	10abdc04 	addi	r2,r2,-20624
    5ec4:	10c00f15 	stw	r3,60(r2)
    5ec8:	00800374 	movhi	r2,13
    5ecc:	10abdc04 	addi	r2,r2,-20624
    5ed0:	10800e17 	ldw	r2,56(r2)
    5ed4:	1007883a 	mov	r3,r2
    5ed8:	00800374 	movhi	r2,13
    5edc:	10abdc04 	addi	r2,r2,-20624
    5ee0:	10800f17 	ldw	r2,60(r2)
    5ee4:	1885383a 	mul	r2,r3,r2
    5ee8:	e0bffec5 	stb	r2,-5(fp)
    5eec:	e0bffec3 	ldbu	r2,-5(fp)
    5ef0:	10800268 	cmpgeui	r2,r2,9
    5ef4:	1000051e 	bne	r2,zero,5f0c <alt_sys_init+0x474>
    5ef8:	00800374 	movhi	r2,13
    5efc:	10abdc04 	addi	r2,r2,-20624
    5f00:	00c00044 	movi	r3,1
    5f04:	10c01015 	stw	r3,64(r2)
    5f08:	00000c06 	br	5f3c <alt_sys_init+0x4a4>
    5f0c:	e0bffec3 	ldbu	r2,-5(fp)
    5f10:	10800468 	cmpgeui	r2,r2,17
    5f14:	1000051e 	bne	r2,zero,5f2c <alt_sys_init+0x494>
    5f18:	00800374 	movhi	r2,13
    5f1c:	10abdc04 	addi	r2,r2,-20624
    5f20:	00c00084 	movi	r3,2
    5f24:	10c01015 	stw	r3,64(r2)
    5f28:	00000406 	br	5f3c <alt_sys_init+0x4a4>
    5f2c:	00800374 	movhi	r2,13
    5f30:	10abdc04 	addi	r2,r2,-20624
    5f34:	00c00104 	movi	r3,4
    5f38:	10c01015 	stw	r3,64(r2)
    5f3c:	00800374 	movhi	r2,13
    5f40:	10abdc04 	addi	r2,r2,-20624
    5f44:	10800a17 	ldw	r2,40(r2)
    5f48:	10800304 	addi	r2,r2,12
    5f4c:	10800017 	ldw	r2,0(r2)
    5f50:	1005d43a 	srai	r2,r2,16
    5f54:	e0bfff05 	stb	r2,-4(fp)
    5f58:	00800374 	movhi	r2,13
    5f5c:	10abdc04 	addi	r2,r2,-20624
    5f60:	10800a17 	ldw	r2,40(r2)
    5f64:	10800304 	addi	r2,r2,12
    5f68:	10800017 	ldw	r2,0(r2)
    5f6c:	1004d63a 	srli	r2,r2,24
    5f70:	e0bfff45 	stb	r2,-3(fp)
    5f74:	00800374 	movhi	r2,13
    5f78:	10abdc04 	addi	r2,r2,-20624
    5f7c:	10801017 	ldw	r2,64(r2)
    5f80:	10800058 	cmpnei	r2,r2,1
    5f84:	1000041e 	bne	r2,zero,5f98 <alt_sys_init+0x500>
    5f88:	00800374 	movhi	r2,13
    5f8c:	10abdc04 	addi	r2,r2,-20624
    5f90:	10001315 	stw	zero,76(r2)
    5f94:	00000e06 	br	5fd0 <alt_sys_init+0x538>
    5f98:	00800374 	movhi	r2,13
    5f9c:	10abdc04 	addi	r2,r2,-20624
    5fa0:	10801017 	ldw	r2,64(r2)
    5fa4:	10800098 	cmpnei	r2,r2,2
    5fa8:	1000051e 	bne	r2,zero,5fc0 <alt_sys_init+0x528>
    5fac:	00800374 	movhi	r2,13
    5fb0:	10abdc04 	addi	r2,r2,-20624
    5fb4:	00c00044 	movi	r3,1
    5fb8:	10c01315 	stw	r3,76(r2)
    5fbc:	00000406 	br	5fd0 <alt_sys_init+0x538>
    5fc0:	00800374 	movhi	r2,13
    5fc4:	10abdc04 	addi	r2,r2,-20624
    5fc8:	00c00084 	movi	r3,2
    5fcc:	10c01315 	stw	r3,76(r2)
    5fd0:	e0bfff03 	ldbu	r2,-4(fp)
    5fd4:	00c00804 	movi	r3,32
    5fd8:	1885c83a 	sub	r2,r3,r2
    5fdc:	00ffffc4 	movi	r3,-1
    5fe0:	1886d83a 	srl	r3,r3,r2
    5fe4:	00800374 	movhi	r2,13
    5fe8:	10abdc04 	addi	r2,r2,-20624
    5fec:	10c01415 	stw	r3,80(r2)
    5ff0:	e0ffff03 	ldbu	r3,-4(fp)
    5ff4:	00800374 	movhi	r2,13
    5ff8:	10abdc04 	addi	r2,r2,-20624
    5ffc:	10801317 	ldw	r2,76(r2)
    6000:	1887883a 	add	r3,r3,r2
    6004:	00800374 	movhi	r2,13
    6008:	10abdc04 	addi	r2,r2,-20624
    600c:	10c01515 	stw	r3,84(r2)
    6010:	e0bfff43 	ldbu	r2,-3(fp)
    6014:	00c00804 	movi	r3,32
    6018:	1885c83a 	sub	r2,r3,r2
    601c:	00ffffc4 	movi	r3,-1
    6020:	1886d83a 	srl	r3,r3,r2
    6024:	00800374 	movhi	r2,13
    6028:	10abdc04 	addi	r2,r2,-20624
    602c:	10c01615 	stw	r3,88(r2)
    6030:	01000374 	movhi	r4,13
    6034:	212bdc04 	addi	r4,r4,-20624
    6038:	0005a2c0 	call	5a2c <alt_dev_reg>
    603c:	00800374 	movhi	r2,13
    6040:	10abf304 	addi	r2,r2,-20532
    6044:	10800a17 	ldw	r2,40(r2)
    6048:	10800017 	ldw	r2,0(r2)
    604c:	10c003cc 	andi	r3,r2,15
    6050:	00800374 	movhi	r2,13
    6054:	10abf304 	addi	r2,r2,-20532
    6058:	10c00b15 	stw	r3,44(r2)
    605c:	00800374 	movhi	r2,13
    6060:	10abf304 	addi	r2,r2,-20532
    6064:	10800a17 	ldw	r2,40(r2)
    6068:	10800017 	ldw	r2,0(r2)
    606c:	1005d13a 	srai	r2,r2,4
    6070:	10c0004c 	andi	r3,r2,1
    6074:	00800374 	movhi	r2,13
    6078:	10abf304 	addi	r2,r2,-20532
    607c:	10c00c15 	stw	r3,48(r2)
    6080:	00800374 	movhi	r2,13
    6084:	10abf304 	addi	r2,r2,-20532
    6088:	10800a17 	ldw	r2,40(r2)
    608c:	10800017 	ldw	r2,0(r2)
    6090:	1005d17a 	srai	r2,r2,5
    6094:	10c0004c 	andi	r3,r2,1
    6098:	00800374 	movhi	r2,13
    609c:	10abf304 	addi	r2,r2,-20532
    60a0:	10c00d15 	stw	r3,52(r2)
    60a4:	00800374 	movhi	r2,13
    60a8:	10abf304 	addi	r2,r2,-20532
    60ac:	10800a17 	ldw	r2,40(r2)
    60b0:	10800017 	ldw	r2,0(r2)
    60b4:	1005d43a 	srai	r2,r2,16
    60b8:	10c003cc 	andi	r3,r2,15
    60bc:	00800374 	movhi	r2,13
    60c0:	10abf304 	addi	r2,r2,-20532
    60c4:	10c00e15 	stw	r3,56(r2)
    60c8:	00800374 	movhi	r2,13
    60cc:	10abf304 	addi	r2,r2,-20532
    60d0:	10800a17 	ldw	r2,40(r2)
    60d4:	10800017 	ldw	r2,0(r2)
    60d8:	1005d53a 	srai	r2,r2,20
    60dc:	10c0004c 	andi	r3,r2,1
    60e0:	00800374 	movhi	r2,13
    60e4:	10abf304 	addi	r2,r2,-20532
    60e8:	10c00f15 	stw	r3,60(r2)
    60ec:	00800374 	movhi	r2,13
    60f0:	10abf304 	addi	r2,r2,-20532
    60f4:	10800a17 	ldw	r2,40(r2)
    60f8:	10800017 	ldw	r2,0(r2)
    60fc:	1005d57a 	srai	r2,r2,21
    6100:	10c0004c 	andi	r3,r2,1
    6104:	00800374 	movhi	r2,13
    6108:	10abf304 	addi	r2,r2,-20532
    610c:	10c01015 	stw	r3,64(r2)
    6110:	01000374 	movhi	r4,13
    6114:	212bf304 	addi	r4,r4,-20532
    6118:	0005a2c0 	call	5a2c <alt_dev_reg>
    611c:	0001883a 	nop
    6120:	e037883a 	mov	sp,fp
    6124:	dfc00117 	ldw	ra,4(sp)
    6128:	df000017 	ldw	fp,0(sp)
    612c:	dec00204 	addi	sp,sp,8
    6130:	f800283a 	ret

00006134 <altera_avalon_jtag_uart_read_fd>:
    6134:	defffa04 	addi	sp,sp,-24
    6138:	dfc00515 	stw	ra,20(sp)
    613c:	df000415 	stw	fp,16(sp)
    6140:	df000404 	addi	fp,sp,16
    6144:	e13ffd15 	stw	r4,-12(fp)
    6148:	e17ffe15 	stw	r5,-8(fp)
    614c:	e1bfff15 	stw	r6,-4(fp)
    6150:	e0bffd17 	ldw	r2,-12(fp)
    6154:	10800017 	ldw	r2,0(r2)
    6158:	e0bffc15 	stw	r2,-16(fp)
    615c:	e0bffc17 	ldw	r2,-16(fp)
    6160:	10c00a04 	addi	r3,r2,40
    6164:	e0bffd17 	ldw	r2,-12(fp)
    6168:	10800217 	ldw	r2,8(r2)
    616c:	100f883a 	mov	r7,r2
    6170:	e1bfff17 	ldw	r6,-4(fp)
    6174:	e17ffe17 	ldw	r5,-8(fp)
    6178:	1809883a 	mov	r4,r3
    617c:	00067540 	call	6754 <altera_avalon_jtag_uart_read>
    6180:	e037883a 	mov	sp,fp
    6184:	dfc00117 	ldw	ra,4(sp)
    6188:	df000017 	ldw	fp,0(sp)
    618c:	dec00204 	addi	sp,sp,8
    6190:	f800283a 	ret

00006194 <altera_avalon_jtag_uart_write_fd>:
    6194:	defffa04 	addi	sp,sp,-24
    6198:	dfc00515 	stw	ra,20(sp)
    619c:	df000415 	stw	fp,16(sp)
    61a0:	df000404 	addi	fp,sp,16
    61a4:	e13ffd15 	stw	r4,-12(fp)
    61a8:	e17ffe15 	stw	r5,-8(fp)
    61ac:	e1bfff15 	stw	r6,-4(fp)
    61b0:	e0bffd17 	ldw	r2,-12(fp)
    61b4:	10800017 	ldw	r2,0(r2)
    61b8:	e0bffc15 	stw	r2,-16(fp)
    61bc:	e0bffc17 	ldw	r2,-16(fp)
    61c0:	10c00a04 	addi	r3,r2,40
    61c4:	e0bffd17 	ldw	r2,-12(fp)
    61c8:	10800217 	ldw	r2,8(r2)
    61cc:	100f883a 	mov	r7,r2
    61d0:	e1bfff17 	ldw	r6,-4(fp)
    61d4:	e17ffe17 	ldw	r5,-8(fp)
    61d8:	1809883a 	mov	r4,r3
    61dc:	00069700 	call	6970 <altera_avalon_jtag_uart_write>
    61e0:	e037883a 	mov	sp,fp
    61e4:	dfc00117 	ldw	ra,4(sp)
    61e8:	df000017 	ldw	fp,0(sp)
    61ec:	dec00204 	addi	sp,sp,8
    61f0:	f800283a 	ret

000061f4 <altera_avalon_jtag_uart_close_fd>:
    61f4:	defffc04 	addi	sp,sp,-16
    61f8:	dfc00315 	stw	ra,12(sp)
    61fc:	df000215 	stw	fp,8(sp)
    6200:	df000204 	addi	fp,sp,8
    6204:	e13fff15 	stw	r4,-4(fp)
    6208:	e0bfff17 	ldw	r2,-4(fp)
    620c:	10800017 	ldw	r2,0(r2)
    6210:	e0bffe15 	stw	r2,-8(fp)
    6214:	e0bffe17 	ldw	r2,-8(fp)
    6218:	10c00a04 	addi	r3,r2,40
    621c:	e0bfff17 	ldw	r2,-4(fp)
    6220:	10800217 	ldw	r2,8(r2)
    6224:	100b883a 	mov	r5,r2
    6228:	1809883a 	mov	r4,r3
    622c:	00065fc0 	call	65fc <altera_avalon_jtag_uart_close>
    6230:	e037883a 	mov	sp,fp
    6234:	dfc00117 	ldw	ra,4(sp)
    6238:	df000017 	ldw	fp,0(sp)
    623c:	dec00204 	addi	sp,sp,8
    6240:	f800283a 	ret

00006244 <altera_avalon_jtag_uart_ioctl_fd>:
    6244:	defffa04 	addi	sp,sp,-24
    6248:	dfc00515 	stw	ra,20(sp)
    624c:	df000415 	stw	fp,16(sp)
    6250:	df000404 	addi	fp,sp,16
    6254:	e13ffd15 	stw	r4,-12(fp)
    6258:	e17ffe15 	stw	r5,-8(fp)
    625c:	e1bfff15 	stw	r6,-4(fp)
    6260:	e0bffd17 	ldw	r2,-12(fp)
    6264:	10800017 	ldw	r2,0(r2)
    6268:	e0bffc15 	stw	r2,-16(fp)
    626c:	e0bffc17 	ldw	r2,-16(fp)
    6270:	10800a04 	addi	r2,r2,40
    6274:	e1bfff17 	ldw	r6,-4(fp)
    6278:	e17ffe17 	ldw	r5,-8(fp)
    627c:	1009883a 	mov	r4,r2
    6280:	00066640 	call	6664 <altera_avalon_jtag_uart_ioctl>
    6284:	e037883a 	mov	sp,fp
    6288:	dfc00117 	ldw	ra,4(sp)
    628c:	df000017 	ldw	fp,0(sp)
    6290:	dec00204 	addi	sp,sp,8
    6294:	f800283a 	ret

00006298 <altera_avalon_jtag_uart_init>:
    6298:	defffb04 	addi	sp,sp,-20
    629c:	dfc00415 	stw	ra,16(sp)
    62a0:	df000315 	stw	fp,12(sp)
    62a4:	df000304 	addi	fp,sp,12
    62a8:	e13ffd15 	stw	r4,-12(fp)
    62ac:	e17ffe15 	stw	r5,-8(fp)
    62b0:	e1bfff15 	stw	r6,-4(fp)
    62b4:	e0bffd17 	ldw	r2,-12(fp)
    62b8:	00c00044 	movi	r3,1
    62bc:	10c00815 	stw	r3,32(r2)
    62c0:	e0bffd17 	ldw	r2,-12(fp)
    62c4:	10800017 	ldw	r2,0(r2)
    62c8:	10800104 	addi	r2,r2,4
    62cc:	1007883a 	mov	r3,r2
    62d0:	e0bffd17 	ldw	r2,-12(fp)
    62d4:	10800817 	ldw	r2,32(r2)
    62d8:	18800035 	stwio	r2,0(r3)
    62dc:	e0bfff17 	ldw	r2,-4(fp)
    62e0:	01800034 	movhi	r6,0
    62e4:	3198d304 	addi	r6,r6,25420
    62e8:	e17ffd17 	ldw	r5,-12(fp)
    62ec:	1009883a 	mov	r4,r2
    62f0:	00054dc0 	call	54dc <alt_irq_register>
    62f4:	e0bffd17 	ldw	r2,-12(fp)
    62f8:	10000915 	stw	zero,36(r2)
    62fc:	e0bffd17 	ldw	r2,-12(fp)
    6300:	10800204 	addi	r2,r2,8
    6304:	d0e78e17 	ldw	r3,-25032(gp)
    6308:	e1fffd17 	ldw	r7,-12(fp)
    630c:	01800034 	movhi	r6,0
    6310:	31995704 	addi	r6,r6,25948
    6314:	180b883a 	mov	r5,r3
    6318:	1009883a 	mov	r4,r2
    631c:	0008f3c0 	call	8f3c <alt_alarm_start>
    6320:	1000040e 	bge	r2,zero,6334 <altera_avalon_jtag_uart_init+0x9c>
    6324:	e0fffd17 	ldw	r3,-12(fp)
    6328:	00a00034 	movhi	r2,32768
    632c:	10bfffc4 	addi	r2,r2,-1
    6330:	18800115 	stw	r2,4(r3)
    6334:	0001883a 	nop
    6338:	e037883a 	mov	sp,fp
    633c:	dfc00117 	ldw	ra,4(sp)
    6340:	df000017 	ldw	fp,0(sp)
    6344:	dec00204 	addi	sp,sp,8
    6348:	f800283a 	ret

0000634c <altera_avalon_jtag_uart_irq>:
    634c:	defff704 	addi	sp,sp,-36
    6350:	df000815 	stw	fp,32(sp)
    6354:	df000804 	addi	fp,sp,32
    6358:	e13ffe15 	stw	r4,-8(fp)
    635c:	e17fff15 	stw	r5,-4(fp)
    6360:	e0bffe17 	ldw	r2,-8(fp)
    6364:	e0bffa15 	stw	r2,-24(fp)
    6368:	e0bffa17 	ldw	r2,-24(fp)
    636c:	10800017 	ldw	r2,0(r2)
    6370:	e0bffb15 	stw	r2,-20(fp)
    6374:	e0bffb17 	ldw	r2,-20(fp)
    6378:	10800104 	addi	r2,r2,4
    637c:	10800037 	ldwio	r2,0(r2)
    6380:	e0bffc15 	stw	r2,-16(fp)
    6384:	e0bffc17 	ldw	r2,-16(fp)
    6388:	1080c00c 	andi	r2,r2,768
    638c:	10006d26 	beq	r2,zero,6544 <altera_avalon_jtag_uart_irq+0x1f8>
    6390:	e0bffc17 	ldw	r2,-16(fp)
    6394:	1080400c 	andi	r2,r2,256
    6398:	10003526 	beq	r2,zero,6470 <altera_avalon_jtag_uart_irq+0x124>
    639c:	00800074 	movhi	r2,1
    63a0:	e0bff815 	stw	r2,-32(fp)
    63a4:	e0bffa17 	ldw	r2,-24(fp)
    63a8:	10800a17 	ldw	r2,40(r2)
    63ac:	10800044 	addi	r2,r2,1
    63b0:	1081ffcc 	andi	r2,r2,2047
    63b4:	e0bffd15 	stw	r2,-12(fp)
    63b8:	e0bffa17 	ldw	r2,-24(fp)
    63bc:	10c00b17 	ldw	r3,44(r2)
    63c0:	e0bffd17 	ldw	r2,-12(fp)
    63c4:	18801526 	beq	r3,r2,641c <altera_avalon_jtag_uart_irq+0xd0>
    63c8:	e0bffb17 	ldw	r2,-20(fp)
    63cc:	10800037 	ldwio	r2,0(r2)
    63d0:	e0bff815 	stw	r2,-32(fp)
    63d4:	e0bff817 	ldw	r2,-32(fp)
    63d8:	10a0000c 	andi	r2,r2,32768
    63dc:	10001126 	beq	r2,zero,6424 <altera_avalon_jtag_uart_irq+0xd8>
    63e0:	e0bffa17 	ldw	r2,-24(fp)
    63e4:	10800a17 	ldw	r2,40(r2)
    63e8:	e0fff817 	ldw	r3,-32(fp)
    63ec:	1809883a 	mov	r4,r3
    63f0:	e0fffa17 	ldw	r3,-24(fp)
    63f4:	1885883a 	add	r2,r3,r2
    63f8:	10800e04 	addi	r2,r2,56
    63fc:	11000005 	stb	r4,0(r2)
    6400:	e0bffa17 	ldw	r2,-24(fp)
    6404:	10800a17 	ldw	r2,40(r2)
    6408:	10800044 	addi	r2,r2,1
    640c:	10c1ffcc 	andi	r3,r2,2047
    6410:	e0bffa17 	ldw	r2,-24(fp)
    6414:	10c00a15 	stw	r3,40(r2)
    6418:	003fe206 	br	63a4 <__alt_mem_VGA_Subsystem_Char_Buf_Subsystem_Onchip_SRAM+0xf70063a4>
    641c:	0001883a 	nop
    6420:	00000106 	br	6428 <altera_avalon_jtag_uart_irq+0xdc>
    6424:	0001883a 	nop
    6428:	e0bff817 	ldw	r2,-32(fp)
    642c:	10bfffec 	andhi	r2,r2,65535
    6430:	10000f26 	beq	r2,zero,6470 <altera_avalon_jtag_uart_irq+0x124>
    6434:	e0bffa17 	ldw	r2,-24(fp)
    6438:	10c00817 	ldw	r3,32(r2)
    643c:	00bfff84 	movi	r2,-2
    6440:	1886703a 	and	r3,r3,r2
    6444:	e0bffa17 	ldw	r2,-24(fp)
    6448:	10c00815 	stw	r3,32(r2)
    644c:	e0bffb17 	ldw	r2,-20(fp)
    6450:	10800104 	addi	r2,r2,4
    6454:	1007883a 	mov	r3,r2
    6458:	e0bffa17 	ldw	r2,-24(fp)
    645c:	10800817 	ldw	r2,32(r2)
    6460:	18800035 	stwio	r2,0(r3)
    6464:	e0bffb17 	ldw	r2,-20(fp)
    6468:	10800104 	addi	r2,r2,4
    646c:	10800037 	ldwio	r2,0(r2)
    6470:	e0bffc17 	ldw	r2,-16(fp)
    6474:	1080800c 	andi	r2,r2,512
    6478:	103fbe26 	beq	r2,zero,6374 <__alt_mem_VGA_Subsystem_Char_Buf_Subsystem_Onchip_SRAM+0xf7006374>
    647c:	e0bffc17 	ldw	r2,-16(fp)
    6480:	1004d43a 	srli	r2,r2,16
    6484:	e0bff915 	stw	r2,-28(fp)
    6488:	00001406 	br	64dc <altera_avalon_jtag_uart_irq+0x190>
    648c:	e0bffb17 	ldw	r2,-20(fp)
    6490:	e0fffa17 	ldw	r3,-24(fp)
    6494:	18c00d17 	ldw	r3,52(r3)
    6498:	e13ffa17 	ldw	r4,-24(fp)
    649c:	20c7883a 	add	r3,r4,r3
    64a0:	18c20e04 	addi	r3,r3,2104
    64a4:	18c00003 	ldbu	r3,0(r3)
    64a8:	18c03fcc 	andi	r3,r3,255
    64ac:	18c0201c 	xori	r3,r3,128
    64b0:	18ffe004 	addi	r3,r3,-128
    64b4:	10c00035 	stwio	r3,0(r2)
    64b8:	e0bffa17 	ldw	r2,-24(fp)
    64bc:	10800d17 	ldw	r2,52(r2)
    64c0:	10800044 	addi	r2,r2,1
    64c4:	10c1ffcc 	andi	r3,r2,2047
    64c8:	e0bffa17 	ldw	r2,-24(fp)
    64cc:	10c00d15 	stw	r3,52(r2)
    64d0:	e0bff917 	ldw	r2,-28(fp)
    64d4:	10bfffc4 	addi	r2,r2,-1
    64d8:	e0bff915 	stw	r2,-28(fp)
    64dc:	e0bff917 	ldw	r2,-28(fp)
    64e0:	10000526 	beq	r2,zero,64f8 <altera_avalon_jtag_uart_irq+0x1ac>
    64e4:	e0bffa17 	ldw	r2,-24(fp)
    64e8:	10c00d17 	ldw	r3,52(r2)
    64ec:	e0bffa17 	ldw	r2,-24(fp)
    64f0:	10800c17 	ldw	r2,48(r2)
    64f4:	18bfe51e 	bne	r3,r2,648c <__alt_mem_VGA_Subsystem_Char_Buf_Subsystem_Onchip_SRAM+0xf700648c>
    64f8:	e0bff917 	ldw	r2,-28(fp)
    64fc:	103f9d26 	beq	r2,zero,6374 <__alt_mem_VGA_Subsystem_Char_Buf_Subsystem_Onchip_SRAM+0xf7006374>
    6500:	e0bffa17 	ldw	r2,-24(fp)
    6504:	10c00817 	ldw	r3,32(r2)
    6508:	00bfff44 	movi	r2,-3
    650c:	1886703a 	and	r3,r3,r2
    6510:	e0bffa17 	ldw	r2,-24(fp)
    6514:	10c00815 	stw	r3,32(r2)
    6518:	e0bffa17 	ldw	r2,-24(fp)
    651c:	10800017 	ldw	r2,0(r2)
    6520:	10800104 	addi	r2,r2,4
    6524:	1007883a 	mov	r3,r2
    6528:	e0bffa17 	ldw	r2,-24(fp)
    652c:	10800817 	ldw	r2,32(r2)
    6530:	18800035 	stwio	r2,0(r3)
    6534:	e0bffb17 	ldw	r2,-20(fp)
    6538:	10800104 	addi	r2,r2,4
    653c:	10800037 	ldwio	r2,0(r2)
    6540:	003f8c06 	br	6374 <__alt_mem_VGA_Subsystem_Char_Buf_Subsystem_Onchip_SRAM+0xf7006374>
    6544:	0001883a 	nop
    6548:	0001883a 	nop
    654c:	e037883a 	mov	sp,fp
    6550:	df000017 	ldw	fp,0(sp)
    6554:	dec00104 	addi	sp,sp,4
    6558:	f800283a 	ret

0000655c <altera_avalon_jtag_uart_timeout>:
    655c:	defff804 	addi	sp,sp,-32
    6560:	df000715 	stw	fp,28(sp)
    6564:	df000704 	addi	fp,sp,28
    6568:	e13ffb15 	stw	r4,-20(fp)
    656c:	e0bffb17 	ldw	r2,-20(fp)
    6570:	e0bff915 	stw	r2,-28(fp)
    6574:	e0bff917 	ldw	r2,-28(fp)
    6578:	10800017 	ldw	r2,0(r2)
    657c:	10800104 	addi	r2,r2,4
    6580:	10800037 	ldwio	r2,0(r2)
    6584:	e0bffa15 	stw	r2,-24(fp)
    6588:	e0bffa17 	ldw	r2,-24(fp)
    658c:	1081000c 	andi	r2,r2,1024
    6590:	10000b26 	beq	r2,zero,65c0 <altera_avalon_jtag_uart_timeout+0x64>
    6594:	e0bff917 	ldw	r2,-28(fp)
    6598:	10800017 	ldw	r2,0(r2)
    659c:	10800104 	addi	r2,r2,4
    65a0:	1007883a 	mov	r3,r2
    65a4:	e0bff917 	ldw	r2,-28(fp)
    65a8:	10800817 	ldw	r2,32(r2)
    65ac:	10810014 	ori	r2,r2,1024
    65b0:	18800035 	stwio	r2,0(r3)
    65b4:	e0bff917 	ldw	r2,-28(fp)
    65b8:	10000915 	stw	zero,36(r2)
    65bc:	00000a06 	br	65e8 <altera_avalon_jtag_uart_timeout+0x8c>
    65c0:	e0bff917 	ldw	r2,-28(fp)
    65c4:	10c00917 	ldw	r3,36(r2)
    65c8:	00a00034 	movhi	r2,32768
    65cc:	10bfff04 	addi	r2,r2,-4
    65d0:	10c00536 	bltu	r2,r3,65e8 <altera_avalon_jtag_uart_timeout+0x8c>
    65d4:	e0bff917 	ldw	r2,-28(fp)
    65d8:	10800917 	ldw	r2,36(r2)
    65dc:	10c00044 	addi	r3,r2,1
    65e0:	e0bff917 	ldw	r2,-28(fp)
    65e4:	10c00915 	stw	r3,36(r2)
    65e8:	d0a78e17 	ldw	r2,-25032(gp)
    65ec:	e037883a 	mov	sp,fp
    65f0:	df000017 	ldw	fp,0(sp)
    65f4:	dec00104 	addi	sp,sp,4
    65f8:	f800283a 	ret

000065fc <altera_avalon_jtag_uart_close>:
    65fc:	defffd04 	addi	sp,sp,-12
    6600:	df000215 	stw	fp,8(sp)
    6604:	df000204 	addi	fp,sp,8
    6608:	e13ffe15 	stw	r4,-8(fp)
    660c:	e17fff15 	stw	r5,-4(fp)
    6610:	00000506 	br	6628 <altera_avalon_jtag_uart_close+0x2c>
    6614:	e0bfff17 	ldw	r2,-4(fp)
    6618:	1090000c 	andi	r2,r2,16384
    661c:	10000226 	beq	r2,zero,6628 <altera_avalon_jtag_uart_close+0x2c>
    6620:	00bffd44 	movi	r2,-11
    6624:	00000b06 	br	6654 <altera_avalon_jtag_uart_close+0x58>
    6628:	e0bffe17 	ldw	r2,-8(fp)
    662c:	10c00d17 	ldw	r3,52(r2)
    6630:	e0bffe17 	ldw	r2,-8(fp)
    6634:	10800c17 	ldw	r2,48(r2)
    6638:	18800526 	beq	r3,r2,6650 <altera_avalon_jtag_uart_close+0x54>
    663c:	e0bffe17 	ldw	r2,-8(fp)
    6640:	10c00917 	ldw	r3,36(r2)
    6644:	e0bffe17 	ldw	r2,-8(fp)
    6648:	10800117 	ldw	r2,4(r2)
    664c:	18bff136 	bltu	r3,r2,6614 <__alt_mem_VGA_Subsystem_Char_Buf_Subsystem_Onchip_SRAM+0xf7006614>
    6650:	0005883a 	mov	r2,zero
    6654:	e037883a 	mov	sp,fp
    6658:	df000017 	ldw	fp,0(sp)
    665c:	dec00104 	addi	sp,sp,4
    6660:	f800283a 	ret

00006664 <altera_avalon_jtag_uart_ioctl>:
    6664:	defffa04 	addi	sp,sp,-24
    6668:	df000515 	stw	fp,20(sp)
    666c:	df000504 	addi	fp,sp,20
    6670:	e13ffd15 	stw	r4,-12(fp)
    6674:	e17ffe15 	stw	r5,-8(fp)
    6678:	e1bfff15 	stw	r6,-4(fp)
    667c:	00bff9c4 	movi	r2,-25
    6680:	e0bffb15 	stw	r2,-20(fp)
    6684:	e0bffe17 	ldw	r2,-8(fp)
    6688:	10da8060 	cmpeqi	r3,r2,27137
    668c:	1800031e 	bne	r3,zero,669c <altera_avalon_jtag_uart_ioctl+0x38>
    6690:	109a80a0 	cmpeqi	r2,r2,27138
    6694:	1000181e 	bne	r2,zero,66f8 <altera_avalon_jtag_uart_ioctl+0x94>
    6698:	00002906 	br	6740 <altera_avalon_jtag_uart_ioctl+0xdc>
    669c:	e0bffd17 	ldw	r2,-12(fp)
    66a0:	10c00117 	ldw	r3,4(r2)
    66a4:	00a00034 	movhi	r2,32768
    66a8:	10bfffc4 	addi	r2,r2,-1
    66ac:	18802126 	beq	r3,r2,6734 <altera_avalon_jtag_uart_ioctl+0xd0>
    66b0:	e0bfff17 	ldw	r2,-4(fp)
    66b4:	10800017 	ldw	r2,0(r2)
    66b8:	e0bffc15 	stw	r2,-16(fp)
    66bc:	e0bffc17 	ldw	r2,-16(fp)
    66c0:	10800090 	cmplti	r2,r2,2
    66c4:	1000061e 	bne	r2,zero,66e0 <altera_avalon_jtag_uart_ioctl+0x7c>
    66c8:	e0fffc17 	ldw	r3,-16(fp)
    66cc:	00a00034 	movhi	r2,32768
    66d0:	10bfffc4 	addi	r2,r2,-1
    66d4:	18800226 	beq	r3,r2,66e0 <altera_avalon_jtag_uart_ioctl+0x7c>
    66d8:	e0bffc17 	ldw	r2,-16(fp)
    66dc:	00000206 	br	66e8 <altera_avalon_jtag_uart_ioctl+0x84>
    66e0:	00a00034 	movhi	r2,32768
    66e4:	10bfff84 	addi	r2,r2,-2
    66e8:	e0fffd17 	ldw	r3,-12(fp)
    66ec:	18800115 	stw	r2,4(r3)
    66f0:	e03ffb15 	stw	zero,-20(fp)
    66f4:	00000f06 	br	6734 <altera_avalon_jtag_uart_ioctl+0xd0>
    66f8:	e0bffd17 	ldw	r2,-12(fp)
    66fc:	10c00117 	ldw	r3,4(r2)
    6700:	00a00034 	movhi	r2,32768
    6704:	10bfffc4 	addi	r2,r2,-1
    6708:	18800c26 	beq	r3,r2,673c <altera_avalon_jtag_uart_ioctl+0xd8>
    670c:	e0bffd17 	ldw	r2,-12(fp)
    6710:	10c00917 	ldw	r3,36(r2)
    6714:	e0bffd17 	ldw	r2,-12(fp)
    6718:	10800117 	ldw	r2,4(r2)
    671c:	1885803a 	cmpltu	r2,r3,r2
    6720:	10c03fcc 	andi	r3,r2,255
    6724:	e0bfff17 	ldw	r2,-4(fp)
    6728:	10c00015 	stw	r3,0(r2)
    672c:	e03ffb15 	stw	zero,-20(fp)
    6730:	00000206 	br	673c <altera_avalon_jtag_uart_ioctl+0xd8>
    6734:	0001883a 	nop
    6738:	00000106 	br	6740 <altera_avalon_jtag_uart_ioctl+0xdc>
    673c:	0001883a 	nop
    6740:	e0bffb17 	ldw	r2,-20(fp)
    6744:	e037883a 	mov	sp,fp
    6748:	df000017 	ldw	fp,0(sp)
    674c:	dec00104 	addi	sp,sp,4
    6750:	f800283a 	ret

00006754 <altera_avalon_jtag_uart_read>:
    6754:	defff304 	addi	sp,sp,-52
    6758:	dfc00c15 	stw	ra,48(sp)
    675c:	df000b15 	stw	fp,44(sp)
    6760:	df000b04 	addi	fp,sp,44
    6764:	e13ffc15 	stw	r4,-16(fp)
    6768:	e17ffd15 	stw	r5,-12(fp)
    676c:	e1bffe15 	stw	r6,-8(fp)
    6770:	e1ffff15 	stw	r7,-4(fp)
    6774:	e0bffd17 	ldw	r2,-12(fp)
    6778:	e0bff515 	stw	r2,-44(fp)
    677c:	00004706 	br	689c <altera_avalon_jtag_uart_read+0x148>
    6780:	e0bffc17 	ldw	r2,-16(fp)
    6784:	10800a17 	ldw	r2,40(r2)
    6788:	e0bff715 	stw	r2,-36(fp)
    678c:	e0bffc17 	ldw	r2,-16(fp)
    6790:	10800b17 	ldw	r2,44(r2)
    6794:	e0bff815 	stw	r2,-32(fp)
    6798:	e0fff717 	ldw	r3,-36(fp)
    679c:	e0bff817 	ldw	r2,-32(fp)
    67a0:	18800536 	bltu	r3,r2,67b8 <altera_avalon_jtag_uart_read+0x64>
    67a4:	e0fff717 	ldw	r3,-36(fp)
    67a8:	e0bff817 	ldw	r2,-32(fp)
    67ac:	1885c83a 	sub	r2,r3,r2
    67b0:	e0bff615 	stw	r2,-40(fp)
    67b4:	00000406 	br	67c8 <altera_avalon_jtag_uart_read+0x74>
    67b8:	00c20004 	movi	r3,2048
    67bc:	e0bff817 	ldw	r2,-32(fp)
    67c0:	1885c83a 	sub	r2,r3,r2
    67c4:	e0bff615 	stw	r2,-40(fp)
    67c8:	e0bff617 	ldw	r2,-40(fp)
    67cc:	10001e26 	beq	r2,zero,6848 <altera_avalon_jtag_uart_read+0xf4>
    67d0:	e0fffe17 	ldw	r3,-8(fp)
    67d4:	e0bff617 	ldw	r2,-40(fp)
    67d8:	1880022e 	bgeu	r3,r2,67e4 <altera_avalon_jtag_uart_read+0x90>
    67dc:	e0bffe17 	ldw	r2,-8(fp)
    67e0:	e0bff615 	stw	r2,-40(fp)
    67e4:	e0bffc17 	ldw	r2,-16(fp)
    67e8:	10c00e04 	addi	r3,r2,56
    67ec:	e0bff817 	ldw	r2,-32(fp)
    67f0:	1885883a 	add	r2,r3,r2
    67f4:	e1bff617 	ldw	r6,-40(fp)
    67f8:	100b883a 	mov	r5,r2
    67fc:	e13ff517 	ldw	r4,-44(fp)
    6800:	00052500 	call	5250 <memcpy>
    6804:	e0fff517 	ldw	r3,-44(fp)
    6808:	e0bff617 	ldw	r2,-40(fp)
    680c:	1885883a 	add	r2,r3,r2
    6810:	e0bff515 	stw	r2,-44(fp)
    6814:	e0fffe17 	ldw	r3,-8(fp)
    6818:	e0bff617 	ldw	r2,-40(fp)
    681c:	1885c83a 	sub	r2,r3,r2
    6820:	e0bffe15 	stw	r2,-8(fp)
    6824:	e0fff817 	ldw	r3,-32(fp)
    6828:	e0bff617 	ldw	r2,-40(fp)
    682c:	1885883a 	add	r2,r3,r2
    6830:	10c1ffcc 	andi	r3,r2,2047
    6834:	e0bffc17 	ldw	r2,-16(fp)
    6838:	10c00b15 	stw	r3,44(r2)
    683c:	e0bffe17 	ldw	r2,-8(fp)
    6840:	00bfcf16 	blt	zero,r2,6780 <__alt_mem_VGA_Subsystem_Char_Buf_Subsystem_Onchip_SRAM+0xf7006780>
    6844:	00000106 	br	684c <altera_avalon_jtag_uart_read+0xf8>
    6848:	0001883a 	nop
    684c:	e0fff517 	ldw	r3,-44(fp)
    6850:	e0bffd17 	ldw	r2,-12(fp)
    6854:	1880141e 	bne	r3,r2,68a8 <altera_avalon_jtag_uart_read+0x154>
    6858:	e0bfff17 	ldw	r2,-4(fp)
    685c:	1090000c 	andi	r2,r2,16384
    6860:	1000131e 	bne	r2,zero,68b0 <altera_avalon_jtag_uart_read+0x15c>
    6864:	0001883a 	nop
    6868:	e0bffc17 	ldw	r2,-16(fp)
    686c:	10c00a17 	ldw	r3,40(r2)
    6870:	e0bff717 	ldw	r2,-36(fp)
    6874:	1880051e 	bne	r3,r2,688c <altera_avalon_jtag_uart_read+0x138>
    6878:	e0bffc17 	ldw	r2,-16(fp)
    687c:	10c00917 	ldw	r3,36(r2)
    6880:	e0bffc17 	ldw	r2,-16(fp)
    6884:	10800117 	ldw	r2,4(r2)
    6888:	18bff736 	bltu	r3,r2,6868 <__alt_mem_VGA_Subsystem_Char_Buf_Subsystem_Onchip_SRAM+0xf7006868>
    688c:	e0bffc17 	ldw	r2,-16(fp)
    6890:	10c00a17 	ldw	r3,40(r2)
    6894:	e0bff717 	ldw	r2,-36(fp)
    6898:	18800726 	beq	r3,r2,68b8 <altera_avalon_jtag_uart_read+0x164>
    689c:	e0bffe17 	ldw	r2,-8(fp)
    68a0:	00bfb716 	blt	zero,r2,6780 <__alt_mem_VGA_Subsystem_Char_Buf_Subsystem_Onchip_SRAM+0xf7006780>
    68a4:	00000506 	br	68bc <altera_avalon_jtag_uart_read+0x168>
    68a8:	0001883a 	nop
    68ac:	00000306 	br	68bc <altera_avalon_jtag_uart_read+0x168>
    68b0:	0001883a 	nop
    68b4:	00000106 	br	68bc <altera_avalon_jtag_uart_read+0x168>
    68b8:	0001883a 	nop
    68bc:	e0fff517 	ldw	r3,-44(fp)
    68c0:	e0bffd17 	ldw	r2,-12(fp)
    68c4:	18801826 	beq	r3,r2,6928 <altera_avalon_jtag_uart_read+0x1d4>
    68c8:	0005303a 	rdctl	r2,status
    68cc:	e0bffb15 	stw	r2,-20(fp)
    68d0:	e0fffb17 	ldw	r3,-20(fp)
    68d4:	00bfff84 	movi	r2,-2
    68d8:	1884703a 	and	r2,r3,r2
    68dc:	1001703a 	wrctl	status,r2
    68e0:	e0bffb17 	ldw	r2,-20(fp)
    68e4:	e0bffa15 	stw	r2,-24(fp)
    68e8:	e0bffc17 	ldw	r2,-16(fp)
    68ec:	10800817 	ldw	r2,32(r2)
    68f0:	10c00054 	ori	r3,r2,1
    68f4:	e0bffc17 	ldw	r2,-16(fp)
    68f8:	10c00815 	stw	r3,32(r2)
    68fc:	e0bffc17 	ldw	r2,-16(fp)
    6900:	10800017 	ldw	r2,0(r2)
    6904:	10800104 	addi	r2,r2,4
    6908:	1007883a 	mov	r3,r2
    690c:	e0bffc17 	ldw	r2,-16(fp)
    6910:	10800817 	ldw	r2,32(r2)
    6914:	18800035 	stwio	r2,0(r3)
    6918:	e0bffa17 	ldw	r2,-24(fp)
    691c:	e0bff915 	stw	r2,-28(fp)
    6920:	e0bff917 	ldw	r2,-28(fp)
    6924:	1001703a 	wrctl	status,r2
    6928:	e0fff517 	ldw	r3,-44(fp)
    692c:	e0bffd17 	ldw	r2,-12(fp)
    6930:	18800426 	beq	r3,r2,6944 <altera_avalon_jtag_uart_read+0x1f0>
    6934:	e0fff517 	ldw	r3,-44(fp)
    6938:	e0bffd17 	ldw	r2,-12(fp)
    693c:	1885c83a 	sub	r2,r3,r2
    6940:	00000606 	br	695c <altera_avalon_jtag_uart_read+0x208>
    6944:	e0bfff17 	ldw	r2,-4(fp)
    6948:	1090000c 	andi	r2,r2,16384
    694c:	10000226 	beq	r2,zero,6958 <altera_avalon_jtag_uart_read+0x204>
    6950:	00bffd44 	movi	r2,-11
    6954:	00000106 	br	695c <altera_avalon_jtag_uart_read+0x208>
    6958:	00bffec4 	movi	r2,-5
    695c:	e037883a 	mov	sp,fp
    6960:	dfc00117 	ldw	ra,4(sp)
    6964:	df000017 	ldw	fp,0(sp)
    6968:	dec00204 	addi	sp,sp,8
    696c:	f800283a 	ret

00006970 <altera_avalon_jtag_uart_write>:
    6970:	defff304 	addi	sp,sp,-52
    6974:	dfc00c15 	stw	ra,48(sp)
    6978:	df000b15 	stw	fp,44(sp)
    697c:	df000b04 	addi	fp,sp,44
    6980:	e13ffc15 	stw	r4,-16(fp)
    6984:	e17ffd15 	stw	r5,-12(fp)
    6988:	e1bffe15 	stw	r6,-8(fp)
    698c:	e1ffff15 	stw	r7,-4(fp)
    6990:	e03ff515 	stw	zero,-44(fp)
    6994:	e0bffd17 	ldw	r2,-12(fp)
    6998:	e0bff715 	stw	r2,-36(fp)
    699c:	00003706 	br	6a7c <altera_avalon_jtag_uart_write+0x10c>
    69a0:	e0bffc17 	ldw	r2,-16(fp)
    69a4:	10800c17 	ldw	r2,48(r2)
    69a8:	e0bff915 	stw	r2,-28(fp)
    69ac:	e0bffc17 	ldw	r2,-16(fp)
    69b0:	10800d17 	ldw	r2,52(r2)
    69b4:	e0bff515 	stw	r2,-44(fp)
    69b8:	e0fff917 	ldw	r3,-28(fp)
    69bc:	e0bff517 	ldw	r2,-44(fp)
    69c0:	1880062e 	bgeu	r3,r2,69dc <altera_avalon_jtag_uart_write+0x6c>
    69c4:	e0fff517 	ldw	r3,-44(fp)
    69c8:	e0bff917 	ldw	r2,-28(fp)
    69cc:	1885c83a 	sub	r2,r3,r2
    69d0:	10bfffc4 	addi	r2,r2,-1
    69d4:	e0bff615 	stw	r2,-40(fp)
    69d8:	00000b06 	br	6a08 <altera_avalon_jtag_uart_write+0x98>
    69dc:	e0bff517 	ldw	r2,-44(fp)
    69e0:	10000526 	beq	r2,zero,69f8 <altera_avalon_jtag_uart_write+0x88>
    69e4:	00c20004 	movi	r3,2048
    69e8:	e0bff917 	ldw	r2,-28(fp)
    69ec:	1885c83a 	sub	r2,r3,r2
    69f0:	e0bff615 	stw	r2,-40(fp)
    69f4:	00000406 	br	6a08 <altera_avalon_jtag_uart_write+0x98>
    69f8:	00c1ffc4 	movi	r3,2047
    69fc:	e0bff917 	ldw	r2,-28(fp)
    6a00:	1885c83a 	sub	r2,r3,r2
    6a04:	e0bff615 	stw	r2,-40(fp)
    6a08:	e0bff617 	ldw	r2,-40(fp)
    6a0c:	10001e26 	beq	r2,zero,6a88 <altera_avalon_jtag_uart_write+0x118>
    6a10:	e0fffe17 	ldw	r3,-8(fp)
    6a14:	e0bff617 	ldw	r2,-40(fp)
    6a18:	1880022e 	bgeu	r3,r2,6a24 <altera_avalon_jtag_uart_write+0xb4>
    6a1c:	e0bffe17 	ldw	r2,-8(fp)
    6a20:	e0bff615 	stw	r2,-40(fp)
    6a24:	e0bffc17 	ldw	r2,-16(fp)
    6a28:	10c20e04 	addi	r3,r2,2104
    6a2c:	e0bff917 	ldw	r2,-28(fp)
    6a30:	1885883a 	add	r2,r3,r2
    6a34:	e1bff617 	ldw	r6,-40(fp)
    6a38:	e17ffd17 	ldw	r5,-12(fp)
    6a3c:	1009883a 	mov	r4,r2
    6a40:	00052500 	call	5250 <memcpy>
    6a44:	e0fffd17 	ldw	r3,-12(fp)
    6a48:	e0bff617 	ldw	r2,-40(fp)
    6a4c:	1885883a 	add	r2,r3,r2
    6a50:	e0bffd15 	stw	r2,-12(fp)
    6a54:	e0fffe17 	ldw	r3,-8(fp)
    6a58:	e0bff617 	ldw	r2,-40(fp)
    6a5c:	1885c83a 	sub	r2,r3,r2
    6a60:	e0bffe15 	stw	r2,-8(fp)
    6a64:	e0fff917 	ldw	r3,-28(fp)
    6a68:	e0bff617 	ldw	r2,-40(fp)
    6a6c:	1885883a 	add	r2,r3,r2
    6a70:	10c1ffcc 	andi	r3,r2,2047
    6a74:	e0bffc17 	ldw	r2,-16(fp)
    6a78:	10c00c15 	stw	r3,48(r2)
    6a7c:	e0bffe17 	ldw	r2,-8(fp)
    6a80:	00bfc716 	blt	zero,r2,69a0 <__alt_mem_VGA_Subsystem_Char_Buf_Subsystem_Onchip_SRAM+0xf70069a0>
    6a84:	00000106 	br	6a8c <altera_avalon_jtag_uart_write+0x11c>
    6a88:	0001883a 	nop
    6a8c:	0005303a 	rdctl	r2,status
    6a90:	e0bffb15 	stw	r2,-20(fp)
    6a94:	e0fffb17 	ldw	r3,-20(fp)
    6a98:	00bfff84 	movi	r2,-2
    6a9c:	1884703a 	and	r2,r3,r2
    6aa0:	1001703a 	wrctl	status,r2
    6aa4:	e0bffb17 	ldw	r2,-20(fp)
    6aa8:	e0bffa15 	stw	r2,-24(fp)
    6aac:	e0bffc17 	ldw	r2,-16(fp)
    6ab0:	10800817 	ldw	r2,32(r2)
    6ab4:	10c00094 	ori	r3,r2,2
    6ab8:	e0bffc17 	ldw	r2,-16(fp)
    6abc:	10c00815 	stw	r3,32(r2)
    6ac0:	e0bffc17 	ldw	r2,-16(fp)
    6ac4:	10800017 	ldw	r2,0(r2)
    6ac8:	10800104 	addi	r2,r2,4
    6acc:	1007883a 	mov	r3,r2
    6ad0:	e0bffc17 	ldw	r2,-16(fp)
    6ad4:	10800817 	ldw	r2,32(r2)
    6ad8:	18800035 	stwio	r2,0(r3)
    6adc:	e0bffa17 	ldw	r2,-24(fp)
    6ae0:	e0bff815 	stw	r2,-32(fp)
    6ae4:	e0bff817 	ldw	r2,-32(fp)
    6ae8:	1001703a 	wrctl	status,r2
    6aec:	e0bffe17 	ldw	r2,-8(fp)
    6af0:	0080100e 	bge	zero,r2,6b34 <altera_avalon_jtag_uart_write+0x1c4>
    6af4:	e0bfff17 	ldw	r2,-4(fp)
    6af8:	1090000c 	andi	r2,r2,16384
    6afc:	1000101e 	bne	r2,zero,6b40 <altera_avalon_jtag_uart_write+0x1d0>
    6b00:	0001883a 	nop
    6b04:	e0bffc17 	ldw	r2,-16(fp)
    6b08:	10c00d17 	ldw	r3,52(r2)
    6b0c:	e0bff517 	ldw	r2,-44(fp)
    6b10:	1880051e 	bne	r3,r2,6b28 <altera_avalon_jtag_uart_write+0x1b8>
    6b14:	e0bffc17 	ldw	r2,-16(fp)
    6b18:	10c00917 	ldw	r3,36(r2)
    6b1c:	e0bffc17 	ldw	r2,-16(fp)
    6b20:	10800117 	ldw	r2,4(r2)
    6b24:	18bff736 	bltu	r3,r2,6b04 <__alt_mem_VGA_Subsystem_Char_Buf_Subsystem_Onchip_SRAM+0xf7006b04>
    6b28:	e0bffc17 	ldw	r2,-16(fp)
    6b2c:	10800917 	ldw	r2,36(r2)
    6b30:	1000051e 	bne	r2,zero,6b48 <altera_avalon_jtag_uart_write+0x1d8>
    6b34:	e0bffe17 	ldw	r2,-8(fp)
    6b38:	00bfd016 	blt	zero,r2,6a7c <__alt_mem_VGA_Subsystem_Char_Buf_Subsystem_Onchip_SRAM+0xf7006a7c>
    6b3c:	00000306 	br	6b4c <altera_avalon_jtag_uart_write+0x1dc>
    6b40:	0001883a 	nop
    6b44:	00000106 	br	6b4c <altera_avalon_jtag_uart_write+0x1dc>
    6b48:	0001883a 	nop
    6b4c:	e0fffd17 	ldw	r3,-12(fp)
    6b50:	e0bff717 	ldw	r2,-36(fp)
    6b54:	18800426 	beq	r3,r2,6b68 <altera_avalon_jtag_uart_write+0x1f8>
    6b58:	e0fffd17 	ldw	r3,-12(fp)
    6b5c:	e0bff717 	ldw	r2,-36(fp)
    6b60:	1885c83a 	sub	r2,r3,r2
    6b64:	00000606 	br	6b80 <altera_avalon_jtag_uart_write+0x210>
    6b68:	e0bfff17 	ldw	r2,-4(fp)
    6b6c:	1090000c 	andi	r2,r2,16384
    6b70:	10000226 	beq	r2,zero,6b7c <altera_avalon_jtag_uart_write+0x20c>
    6b74:	00bffd44 	movi	r2,-11
    6b78:	00000106 	br	6b80 <altera_avalon_jtag_uart_write+0x210>
    6b7c:	00bffec4 	movi	r2,-5
    6b80:	e037883a 	mov	sp,fp
    6b84:	dfc00117 	ldw	ra,4(sp)
    6b88:	df000017 	ldw	fp,0(sp)
    6b8c:	dec00204 	addi	sp,sp,8
    6b90:	f800283a 	ret

00006b94 <alt_avalon_timer_sc_irq>:
    6b94:	defff904 	addi	sp,sp,-28
    6b98:	dfc00615 	stw	ra,24(sp)
    6b9c:	df000515 	stw	fp,20(sp)
    6ba0:	df000504 	addi	fp,sp,20
    6ba4:	e13ffe15 	stw	r4,-8(fp)
    6ba8:	e17fff15 	stw	r5,-4(fp)
    6bac:	0007883a 	mov	r3,zero
    6bb0:	e0bffe17 	ldw	r2,-8(fp)
    6bb4:	10c00035 	stwio	r3,0(r2)
    6bb8:	e0bffe17 	ldw	r2,-8(fp)
    6bbc:	10800104 	addi	r2,r2,4
    6bc0:	10800037 	ldwio	r2,0(r2)
    6bc4:	0005303a 	rdctl	r2,status
    6bc8:	e0bffc15 	stw	r2,-16(fp)
    6bcc:	e0fffc17 	ldw	r3,-16(fp)
    6bd0:	00bfff84 	movi	r2,-2
    6bd4:	1884703a 	and	r2,r3,r2
    6bd8:	1001703a 	wrctl	status,r2
    6bdc:	e0bffc17 	ldw	r2,-16(fp)
    6be0:	e0bffb15 	stw	r2,-20(fp)
    6be4:	00098b80 	call	98b8 <alt_tick>
    6be8:	e0bffb17 	ldw	r2,-20(fp)
    6bec:	e0bffd15 	stw	r2,-12(fp)
    6bf0:	e0bffd17 	ldw	r2,-12(fp)
    6bf4:	1001703a 	wrctl	status,r2
    6bf8:	0001883a 	nop
    6bfc:	e037883a 	mov	sp,fp
    6c00:	dfc00117 	ldw	ra,4(sp)
    6c04:	df000017 	ldw	fp,0(sp)
    6c08:	dec00204 	addi	sp,sp,8
    6c0c:	f800283a 	ret

00006c10 <alt_avalon_timer_sc_init>:
    6c10:	defff904 	addi	sp,sp,-28
    6c14:	dfc00615 	stw	ra,24(sp)
    6c18:	df000515 	stw	fp,20(sp)
    6c1c:	df000504 	addi	fp,sp,20
    6c20:	e13ffc15 	stw	r4,-16(fp)
    6c24:	e17ffd15 	stw	r5,-12(fp)
    6c28:	e1bffe15 	stw	r6,-8(fp)
    6c2c:	e1ffff15 	stw	r7,-4(fp)
    6c30:	e0bfff17 	ldw	r2,-4(fp)
    6c34:	e0bffb15 	stw	r2,-20(fp)
    6c38:	d0a78e17 	ldw	r2,-25032(gp)
    6c3c:	1000021e 	bne	r2,zero,6c48 <alt_avalon_timer_sc_init+0x38>
    6c40:	e0bffb17 	ldw	r2,-20(fp)
    6c44:	d0a78e15 	stw	r2,-25032(gp)
    6c48:	e0bffc17 	ldw	r2,-16(fp)
    6c4c:	10800104 	addi	r2,r2,4
    6c50:	00c001c4 	movi	r3,7
    6c54:	10c00035 	stwio	r3,0(r2)
    6c58:	01800034 	movhi	r6,0
    6c5c:	319ae504 	addi	r6,r6,27540
    6c60:	e17ffc17 	ldw	r5,-16(fp)
    6c64:	e13ffe17 	ldw	r4,-8(fp)
    6c68:	00054dc0 	call	54dc <alt_irq_register>
    6c6c:	0001883a 	nop
    6c70:	e037883a 	mov	sp,fp
    6c74:	dfc00117 	ldw	ra,4(sp)
    6c78:	df000017 	ldw	fp,0(sp)
    6c7c:	dec00204 	addi	sp,sp,8
    6c80:	f800283a 	ret

00006c84 <alt_up_audio_open_dev>:
    6c84:	defffc04 	addi	sp,sp,-16
    6c88:	dfc00315 	stw	ra,12(sp)
    6c8c:	df000215 	stw	fp,8(sp)
    6c90:	df000204 	addi	fp,sp,8
    6c94:	e13fff15 	stw	r4,-4(fp)
    6c98:	d1600904 	addi	r5,gp,-32732
    6c9c:	e13fff17 	ldw	r4,-4(fp)
    6ca0:	00093600 	call	9360 <alt_find_dev>
    6ca4:	e0bffe15 	stw	r2,-8(fp)
    6ca8:	e0bffe17 	ldw	r2,-8(fp)
    6cac:	e037883a 	mov	sp,fp
    6cb0:	dfc00117 	ldw	ra,4(sp)
    6cb4:	df000017 	ldw	fp,0(sp)
    6cb8:	dec00204 	addi	sp,sp,8
    6cbc:	f800283a 	ret

00006cc0 <alt_up_audio_enable_read_interrupt>:
    6cc0:	defffd04 	addi	sp,sp,-12
    6cc4:	df000215 	stw	fp,8(sp)
    6cc8:	df000204 	addi	fp,sp,8
    6ccc:	e13fff15 	stw	r4,-4(fp)
    6cd0:	e0bfff17 	ldw	r2,-4(fp)
    6cd4:	10800a17 	ldw	r2,40(r2)
    6cd8:	10800037 	ldwio	r2,0(r2)
    6cdc:	e0bffe15 	stw	r2,-8(fp)
    6ce0:	e0bffe17 	ldw	r2,-8(fp)
    6ce4:	10800054 	ori	r2,r2,1
    6ce8:	e0bffe15 	stw	r2,-8(fp)
    6cec:	e0bfff17 	ldw	r2,-4(fp)
    6cf0:	10800a17 	ldw	r2,40(r2)
    6cf4:	1007883a 	mov	r3,r2
    6cf8:	e0bffe17 	ldw	r2,-8(fp)
    6cfc:	18800035 	stwio	r2,0(r3)
    6d00:	0001883a 	nop
    6d04:	e037883a 	mov	sp,fp
    6d08:	df000017 	ldw	fp,0(sp)
    6d0c:	dec00104 	addi	sp,sp,4
    6d10:	f800283a 	ret

00006d14 <alt_up_audio_disable_read_interrupt>:
    6d14:	defffd04 	addi	sp,sp,-12
    6d18:	df000215 	stw	fp,8(sp)
    6d1c:	df000204 	addi	fp,sp,8
    6d20:	e13fff15 	stw	r4,-4(fp)
    6d24:	e0bfff17 	ldw	r2,-4(fp)
    6d28:	10800a17 	ldw	r2,40(r2)
    6d2c:	10800037 	ldwio	r2,0(r2)
    6d30:	e0bffe15 	stw	r2,-8(fp)
    6d34:	e0fffe17 	ldw	r3,-8(fp)
    6d38:	00bfff84 	movi	r2,-2
    6d3c:	1884703a 	and	r2,r3,r2
    6d40:	e0bffe15 	stw	r2,-8(fp)
    6d44:	e0bfff17 	ldw	r2,-4(fp)
    6d48:	10800a17 	ldw	r2,40(r2)
    6d4c:	1007883a 	mov	r3,r2
    6d50:	e0bffe17 	ldw	r2,-8(fp)
    6d54:	18800035 	stwio	r2,0(r3)
    6d58:	0001883a 	nop
    6d5c:	e037883a 	mov	sp,fp
    6d60:	df000017 	ldw	fp,0(sp)
    6d64:	dec00104 	addi	sp,sp,4
    6d68:	f800283a 	ret

00006d6c <alt_up_audio_enable_write_interrupt>:
    6d6c:	defffd04 	addi	sp,sp,-12
    6d70:	df000215 	stw	fp,8(sp)
    6d74:	df000204 	addi	fp,sp,8
    6d78:	e13fff15 	stw	r4,-4(fp)
    6d7c:	e0bfff17 	ldw	r2,-4(fp)
    6d80:	10800a17 	ldw	r2,40(r2)
    6d84:	10800037 	ldwio	r2,0(r2)
    6d88:	e0bffe15 	stw	r2,-8(fp)
    6d8c:	e0bffe17 	ldw	r2,-8(fp)
    6d90:	10800094 	ori	r2,r2,2
    6d94:	e0bffe15 	stw	r2,-8(fp)
    6d98:	e0bfff17 	ldw	r2,-4(fp)
    6d9c:	10800a17 	ldw	r2,40(r2)
    6da0:	1007883a 	mov	r3,r2
    6da4:	e0bffe17 	ldw	r2,-8(fp)
    6da8:	18800035 	stwio	r2,0(r3)
    6dac:	0001883a 	nop
    6db0:	e037883a 	mov	sp,fp
    6db4:	df000017 	ldw	fp,0(sp)
    6db8:	dec00104 	addi	sp,sp,4
    6dbc:	f800283a 	ret

00006dc0 <alt_up_audio_disable_write_interrupt>:
    6dc0:	defffd04 	addi	sp,sp,-12
    6dc4:	df000215 	stw	fp,8(sp)
    6dc8:	df000204 	addi	fp,sp,8
    6dcc:	e13fff15 	stw	r4,-4(fp)
    6dd0:	e0bfff17 	ldw	r2,-4(fp)
    6dd4:	10800a17 	ldw	r2,40(r2)
    6dd8:	10800037 	ldwio	r2,0(r2)
    6ddc:	e0bffe15 	stw	r2,-8(fp)
    6de0:	e0fffe17 	ldw	r3,-8(fp)
    6de4:	00bfff44 	movi	r2,-3
    6de8:	1884703a 	and	r2,r3,r2
    6dec:	e0bffe15 	stw	r2,-8(fp)
    6df0:	e0bfff17 	ldw	r2,-4(fp)
    6df4:	10800a17 	ldw	r2,40(r2)
    6df8:	1007883a 	mov	r3,r2
    6dfc:	e0bffe17 	ldw	r2,-8(fp)
    6e00:	18800035 	stwio	r2,0(r3)
    6e04:	0001883a 	nop
    6e08:	e037883a 	mov	sp,fp
    6e0c:	df000017 	ldw	fp,0(sp)
    6e10:	dec00104 	addi	sp,sp,4
    6e14:	f800283a 	ret

00006e18 <alt_up_audio_read_interrupt_pending>:
    6e18:	defffd04 	addi	sp,sp,-12
    6e1c:	df000215 	stw	fp,8(sp)
    6e20:	df000204 	addi	fp,sp,8
    6e24:	e13fff15 	stw	r4,-4(fp)
    6e28:	e0bfff17 	ldw	r2,-4(fp)
    6e2c:	10800a17 	ldw	r2,40(r2)
    6e30:	10800037 	ldwio	r2,0(r2)
    6e34:	e0bffe15 	stw	r2,-8(fp)
    6e38:	e0bffe17 	ldw	r2,-8(fp)
    6e3c:	1080400c 	andi	r2,r2,256
    6e40:	1004c03a 	cmpne	r2,r2,zero
    6e44:	10803fcc 	andi	r2,r2,255
    6e48:	e037883a 	mov	sp,fp
    6e4c:	df000017 	ldw	fp,0(sp)
    6e50:	dec00104 	addi	sp,sp,4
    6e54:	f800283a 	ret

00006e58 <alt_up_audio_write_interrupt_pending>:
    6e58:	defffd04 	addi	sp,sp,-12
    6e5c:	df000215 	stw	fp,8(sp)
    6e60:	df000204 	addi	fp,sp,8
    6e64:	e13fff15 	stw	r4,-4(fp)
    6e68:	e0bfff17 	ldw	r2,-4(fp)
    6e6c:	10800a17 	ldw	r2,40(r2)
    6e70:	10800037 	ldwio	r2,0(r2)
    6e74:	e0bffe15 	stw	r2,-8(fp)
    6e78:	e0bffe17 	ldw	r2,-8(fp)
    6e7c:	1080800c 	andi	r2,r2,512
    6e80:	1004c03a 	cmpne	r2,r2,zero
    6e84:	10803fcc 	andi	r2,r2,255
    6e88:	e037883a 	mov	sp,fp
    6e8c:	df000017 	ldw	fp,0(sp)
    6e90:	dec00104 	addi	sp,sp,4
    6e94:	f800283a 	ret

00006e98 <alt_up_audio_reset_audio_core>:
    6e98:	defffd04 	addi	sp,sp,-12
    6e9c:	df000215 	stw	fp,8(sp)
    6ea0:	df000204 	addi	fp,sp,8
    6ea4:	e13fff15 	stw	r4,-4(fp)
    6ea8:	e0bfff17 	ldw	r2,-4(fp)
    6eac:	10800a17 	ldw	r2,40(r2)
    6eb0:	10800037 	ldwio	r2,0(r2)
    6eb4:	e0bffe15 	stw	r2,-8(fp)
    6eb8:	e0bffe17 	ldw	r2,-8(fp)
    6ebc:	10800114 	ori	r2,r2,4
    6ec0:	e0bffe15 	stw	r2,-8(fp)
    6ec4:	e0bffe17 	ldw	r2,-8(fp)
    6ec8:	10800214 	ori	r2,r2,8
    6ecc:	e0bffe15 	stw	r2,-8(fp)
    6ed0:	e0bfff17 	ldw	r2,-4(fp)
    6ed4:	10800a17 	ldw	r2,40(r2)
    6ed8:	1007883a 	mov	r3,r2
    6edc:	e0bffe17 	ldw	r2,-8(fp)
    6ee0:	18800035 	stwio	r2,0(r3)
    6ee4:	e0fffe17 	ldw	r3,-8(fp)
    6ee8:	00bffec4 	movi	r2,-5
    6eec:	1884703a 	and	r2,r3,r2
    6ef0:	e0bffe15 	stw	r2,-8(fp)
    6ef4:	e0fffe17 	ldw	r3,-8(fp)
    6ef8:	00bffdc4 	movi	r2,-9
    6efc:	1884703a 	and	r2,r3,r2
    6f00:	e0bffe15 	stw	r2,-8(fp)
    6f04:	e0bfff17 	ldw	r2,-4(fp)
    6f08:	10800a17 	ldw	r2,40(r2)
    6f0c:	1007883a 	mov	r3,r2
    6f10:	e0bffe17 	ldw	r2,-8(fp)
    6f14:	18800035 	stwio	r2,0(r3)
    6f18:	0001883a 	nop
    6f1c:	e037883a 	mov	sp,fp
    6f20:	df000017 	ldw	fp,0(sp)
    6f24:	dec00104 	addi	sp,sp,4
    6f28:	f800283a 	ret

00006f2c <alt_up_audio_read_fifo_avail>:
    6f2c:	defffc04 	addi	sp,sp,-16
    6f30:	df000315 	stw	fp,12(sp)
    6f34:	df000304 	addi	fp,sp,12
    6f38:	e13ffe15 	stw	r4,-8(fp)
    6f3c:	e17fff15 	stw	r5,-4(fp)
    6f40:	e0bffe17 	ldw	r2,-8(fp)
    6f44:	10800a17 	ldw	r2,40(r2)
    6f48:	10800104 	addi	r2,r2,4
    6f4c:	10800037 	ldwio	r2,0(r2)
    6f50:	e0bffd15 	stw	r2,-12(fp)
    6f54:	e0bfff17 	ldw	r2,-4(fp)
    6f58:	1000041e 	bne	r2,zero,6f6c <alt_up_audio_read_fifo_avail+0x40>
    6f5c:	e0bffd17 	ldw	r2,-12(fp)
    6f60:	10bfc00c 	andi	r2,r2,65280
    6f64:	1004d23a 	srli	r2,r2,8
    6f68:	00000206 	br	6f74 <alt_up_audio_read_fifo_avail+0x48>
    6f6c:	e0bffd17 	ldw	r2,-12(fp)
    6f70:	10803fcc 	andi	r2,r2,255
    6f74:	e0bffd15 	stw	r2,-12(fp)
    6f78:	e0bffd17 	ldw	r2,-12(fp)
    6f7c:	e037883a 	mov	sp,fp
    6f80:	df000017 	ldw	fp,0(sp)
    6f84:	dec00104 	addi	sp,sp,4
    6f88:	f800283a 	ret

00006f8c <alt_up_audio_record_r>:
    6f8c:	defffa04 	addi	sp,sp,-24
    6f90:	dfc00515 	stw	ra,20(sp)
    6f94:	df000415 	stw	fp,16(sp)
    6f98:	df000404 	addi	fp,sp,16
    6f9c:	e13ffd15 	stw	r4,-12(fp)
    6fa0:	e17ffe15 	stw	r5,-8(fp)
    6fa4:	e1bfff15 	stw	r6,-4(fp)
    6fa8:	01400044 	movi	r5,1
    6fac:	e13ffd17 	ldw	r4,-12(fp)
    6fb0:	0006f2c0 	call	6f2c <alt_up_audio_read_fifo_avail>
    6fb4:	e0bffc15 	stw	r2,-16(fp)
    6fb8:	e0bffc17 	ldw	r2,-16(fp)
    6fbc:	10801868 	cmpgeui	r2,r2,97
    6fc0:	1000021e 	bne	r2,zero,6fcc <alt_up_audio_record_r+0x40>
    6fc4:	0005883a 	mov	r2,zero
    6fc8:	00000506 	br	6fe0 <alt_up_audio_record_r+0x54>
    6fcc:	01c00044 	movi	r7,1
    6fd0:	e1bfff17 	ldw	r6,-4(fp)
    6fd4:	e17ffe17 	ldw	r5,-8(fp)
    6fd8:	e13ffd17 	ldw	r4,-12(fp)
    6fdc:	000718c0 	call	718c <alt_up_audio_read_fifo>
    6fe0:	e037883a 	mov	sp,fp
    6fe4:	dfc00117 	ldw	ra,4(sp)
    6fe8:	df000017 	ldw	fp,0(sp)
    6fec:	dec00204 	addi	sp,sp,8
    6ff0:	f800283a 	ret

00006ff4 <alt_up_audio_record_l>:
    6ff4:	defffa04 	addi	sp,sp,-24
    6ff8:	dfc00515 	stw	ra,20(sp)
    6ffc:	df000415 	stw	fp,16(sp)
    7000:	df000404 	addi	fp,sp,16
    7004:	e13ffd15 	stw	r4,-12(fp)
    7008:	e17ffe15 	stw	r5,-8(fp)
    700c:	e1bfff15 	stw	r6,-4(fp)
    7010:	000b883a 	mov	r5,zero
    7014:	e13ffd17 	ldw	r4,-12(fp)
    7018:	0006f2c0 	call	6f2c <alt_up_audio_read_fifo_avail>
    701c:	e0bffc15 	stw	r2,-16(fp)
    7020:	e0bffc17 	ldw	r2,-16(fp)
    7024:	10801868 	cmpgeui	r2,r2,97
    7028:	1000021e 	bne	r2,zero,7034 <alt_up_audio_record_l+0x40>
    702c:	0005883a 	mov	r2,zero
    7030:	00000506 	br	7048 <alt_up_audio_record_l+0x54>
    7034:	000f883a 	mov	r7,zero
    7038:	e1bfff17 	ldw	r6,-4(fp)
    703c:	e17ffe17 	ldw	r5,-8(fp)
    7040:	e13ffd17 	ldw	r4,-12(fp)
    7044:	000718c0 	call	718c <alt_up_audio_read_fifo>
    7048:	e037883a 	mov	sp,fp
    704c:	dfc00117 	ldw	ra,4(sp)
    7050:	df000017 	ldw	fp,0(sp)
    7054:	dec00204 	addi	sp,sp,8
    7058:	f800283a 	ret

0000705c <alt_up_audio_write_fifo_space>:
    705c:	defffc04 	addi	sp,sp,-16
    7060:	df000315 	stw	fp,12(sp)
    7064:	df000304 	addi	fp,sp,12
    7068:	e13ffe15 	stw	r4,-8(fp)
    706c:	e17fff15 	stw	r5,-4(fp)
    7070:	e0bffe17 	ldw	r2,-8(fp)
    7074:	10800a17 	ldw	r2,40(r2)
    7078:	10800104 	addi	r2,r2,4
    707c:	10800037 	ldwio	r2,0(r2)
    7080:	e0bffd15 	stw	r2,-12(fp)
    7084:	e0bfff17 	ldw	r2,-4(fp)
    7088:	1000031e 	bne	r2,zero,7098 <alt_up_audio_write_fifo_space+0x3c>
    708c:	e0bffd17 	ldw	r2,-12(fp)
    7090:	1004d63a 	srli	r2,r2,24
    7094:	00000306 	br	70a4 <alt_up_audio_write_fifo_space+0x48>
    7098:	e0bffd17 	ldw	r2,-12(fp)
    709c:	10803fec 	andhi	r2,r2,255
    70a0:	1004d43a 	srli	r2,r2,16
    70a4:	e0bffd15 	stw	r2,-12(fp)
    70a8:	e0bffd17 	ldw	r2,-12(fp)
    70ac:	e037883a 	mov	sp,fp
    70b0:	df000017 	ldw	fp,0(sp)
    70b4:	dec00104 	addi	sp,sp,4
    70b8:	f800283a 	ret

000070bc <alt_up_audio_play_r>:
    70bc:	defffa04 	addi	sp,sp,-24
    70c0:	dfc00515 	stw	ra,20(sp)
    70c4:	df000415 	stw	fp,16(sp)
    70c8:	df000404 	addi	fp,sp,16
    70cc:	e13ffd15 	stw	r4,-12(fp)
    70d0:	e17ffe15 	stw	r5,-8(fp)
    70d4:	e1bfff15 	stw	r6,-4(fp)
    70d8:	01400044 	movi	r5,1
    70dc:	e13ffd17 	ldw	r4,-12(fp)
    70e0:	000705c0 	call	705c <alt_up_audio_write_fifo_space>
    70e4:	e0bffc15 	stw	r2,-16(fp)
    70e8:	e0bffc17 	ldw	r2,-16(fp)
    70ec:	10801868 	cmpgeui	r2,r2,97
    70f0:	1000021e 	bne	r2,zero,70fc <alt_up_audio_play_r+0x40>
    70f4:	0005883a 	mov	r2,zero
    70f8:	00000506 	br	7110 <alt_up_audio_play_r+0x54>
    70fc:	01c00044 	movi	r7,1
    7100:	e1bfff17 	ldw	r6,-4(fp)
    7104:	e17ffe17 	ldw	r5,-8(fp)
    7108:	e13ffd17 	ldw	r4,-12(fp)
    710c:	000726c0 	call	726c <alt_up_audio_write_fifo>
    7110:	e037883a 	mov	sp,fp
    7114:	dfc00117 	ldw	ra,4(sp)
    7118:	df000017 	ldw	fp,0(sp)
    711c:	dec00204 	addi	sp,sp,8
    7120:	f800283a 	ret

00007124 <alt_up_audio_play_l>:
    7124:	defffa04 	addi	sp,sp,-24
    7128:	dfc00515 	stw	ra,20(sp)
    712c:	df000415 	stw	fp,16(sp)
    7130:	df000404 	addi	fp,sp,16
    7134:	e13ffd15 	stw	r4,-12(fp)
    7138:	e17ffe15 	stw	r5,-8(fp)
    713c:	e1bfff15 	stw	r6,-4(fp)
    7140:	000b883a 	mov	r5,zero
    7144:	e13ffd17 	ldw	r4,-12(fp)
    7148:	000705c0 	call	705c <alt_up_audio_write_fifo_space>
    714c:	e0bffc15 	stw	r2,-16(fp)
    7150:	e0bffc17 	ldw	r2,-16(fp)
    7154:	10801868 	cmpgeui	r2,r2,97
    7158:	1000021e 	bne	r2,zero,7164 <alt_up_audio_play_l+0x40>
    715c:	0005883a 	mov	r2,zero
    7160:	00000506 	br	7178 <alt_up_audio_play_l+0x54>
    7164:	000f883a 	mov	r7,zero
    7168:	e1bfff17 	ldw	r6,-4(fp)
    716c:	e17ffe17 	ldw	r5,-8(fp)
    7170:	e13ffd17 	ldw	r4,-12(fp)
    7174:	000726c0 	call	726c <alt_up_audio_write_fifo>
    7178:	e037883a 	mov	sp,fp
    717c:	dfc00117 	ldw	ra,4(sp)
    7180:	df000017 	ldw	fp,0(sp)
    7184:	dec00204 	addi	sp,sp,8
    7188:	f800283a 	ret

0000718c <alt_up_audio_read_fifo>:
    718c:	defff904 	addi	sp,sp,-28
    7190:	df000615 	stw	fp,24(sp)
    7194:	df000604 	addi	fp,sp,24
    7198:	e13ffc15 	stw	r4,-16(fp)
    719c:	e17ffd15 	stw	r5,-12(fp)
    71a0:	e1bffe15 	stw	r6,-8(fp)
    71a4:	e1ffff15 	stw	r7,-4(fp)
    71a8:	e03ffa15 	stw	zero,-24(fp)
    71ac:	00002506 	br	7244 <alt_up_audio_read_fifo+0xb8>
    71b0:	e0bffc17 	ldw	r2,-16(fp)
    71b4:	10800a17 	ldw	r2,40(r2)
    71b8:	10800104 	addi	r2,r2,4
    71bc:	10800037 	ldwio	r2,0(r2)
    71c0:	e0bffb15 	stw	r2,-20(fp)
    71c4:	e0bfff17 	ldw	r2,-4(fp)
    71c8:	1000041e 	bne	r2,zero,71dc <alt_up_audio_read_fifo+0x50>
    71cc:	e0bffb17 	ldw	r2,-20(fp)
    71d0:	10bfc00c 	andi	r2,r2,65280
    71d4:	1004d23a 	srli	r2,r2,8
    71d8:	00000206 	br	71e4 <alt_up_audio_read_fifo+0x58>
    71dc:	e0bffb17 	ldw	r2,-20(fp)
    71e0:	10803fcc 	andi	r2,r2,255
    71e4:	e0bffb15 	stw	r2,-20(fp)
    71e8:	e0bffb17 	ldw	r2,-20(fp)
    71ec:	10001926 	beq	r2,zero,7254 <alt_up_audio_read_fifo+0xc8>
    71f0:	e0bffa17 	ldw	r2,-24(fp)
    71f4:	1085883a 	add	r2,r2,r2
    71f8:	1085883a 	add	r2,r2,r2
    71fc:	1007883a 	mov	r3,r2
    7200:	e0bffd17 	ldw	r2,-12(fp)
    7204:	10c5883a 	add	r2,r2,r3
    7208:	e0ffff17 	ldw	r3,-4(fp)
    720c:	1800051e 	bne	r3,zero,7224 <alt_up_audio_read_fifo+0x98>
    7210:	e0fffc17 	ldw	r3,-16(fp)
    7214:	18c00a17 	ldw	r3,40(r3)
    7218:	18c00204 	addi	r3,r3,8
    721c:	18c00037 	ldwio	r3,0(r3)
    7220:	00000406 	br	7234 <alt_up_audio_read_fifo+0xa8>
    7224:	e0fffc17 	ldw	r3,-16(fp)
    7228:	18c00a17 	ldw	r3,40(r3)
    722c:	18c00304 	addi	r3,r3,12
    7230:	18c00037 	ldwio	r3,0(r3)
    7234:	10c00015 	stw	r3,0(r2)
    7238:	e0bffa17 	ldw	r2,-24(fp)
    723c:	10800044 	addi	r2,r2,1
    7240:	e0bffa15 	stw	r2,-24(fp)
    7244:	e0fffa17 	ldw	r3,-24(fp)
    7248:	e0bffe17 	ldw	r2,-8(fp)
    724c:	18bfd816 	blt	r3,r2,71b0 <__alt_mem_VGA_Subsystem_Char_Buf_Subsystem_Onchip_SRAM+0xf70071b0>
    7250:	00000106 	br	7258 <alt_up_audio_read_fifo+0xcc>
    7254:	0001883a 	nop
    7258:	e0bffa17 	ldw	r2,-24(fp)
    725c:	e037883a 	mov	sp,fp
    7260:	df000017 	ldw	fp,0(sp)
    7264:	dec00104 	addi	sp,sp,4
    7268:	f800283a 	ret

0000726c <alt_up_audio_write_fifo>:
    726c:	defff904 	addi	sp,sp,-28
    7270:	df000615 	stw	fp,24(sp)
    7274:	df000604 	addi	fp,sp,24
    7278:	e13ffc15 	stw	r4,-16(fp)
    727c:	e17ffd15 	stw	r5,-12(fp)
    7280:	e1bffe15 	stw	r6,-8(fp)
    7284:	e1ffff15 	stw	r7,-4(fp)
    7288:	e03ffa15 	stw	zero,-24(fp)
    728c:	00002f06 	br	734c <alt_up_audio_write_fifo+0xe0>
    7290:	e0bffc17 	ldw	r2,-16(fp)
    7294:	10800a17 	ldw	r2,40(r2)
    7298:	10800104 	addi	r2,r2,4
    729c:	10800037 	ldwio	r2,0(r2)
    72a0:	e0bffb15 	stw	r2,-20(fp)
    72a4:	e0bfff17 	ldw	r2,-4(fp)
    72a8:	1000031e 	bne	r2,zero,72b8 <alt_up_audio_write_fifo+0x4c>
    72ac:	e0bffb17 	ldw	r2,-20(fp)
    72b0:	1004d63a 	srli	r2,r2,24
    72b4:	00000306 	br	72c4 <alt_up_audio_write_fifo+0x58>
    72b8:	e0bffb17 	ldw	r2,-20(fp)
    72bc:	10803fec 	andhi	r2,r2,255
    72c0:	1004d43a 	srli	r2,r2,16
    72c4:	e0bffb15 	stw	r2,-20(fp)
    72c8:	e0bffb17 	ldw	r2,-20(fp)
    72cc:	10002326 	beq	r2,zero,735c <alt_up_audio_write_fifo+0xf0>
    72d0:	e0bfff17 	ldw	r2,-4(fp)
    72d4:	10000f1e 	bne	r2,zero,7314 <alt_up_audio_write_fifo+0xa8>
    72d8:	e0bffc17 	ldw	r2,-16(fp)
    72dc:	10800a17 	ldw	r2,40(r2)
    72e0:	10800204 	addi	r2,r2,8
    72e4:	1009883a 	mov	r4,r2
    72e8:	e0bffa17 	ldw	r2,-24(fp)
    72ec:	10c00044 	addi	r3,r2,1
    72f0:	e0fffa15 	stw	r3,-24(fp)
    72f4:	1085883a 	add	r2,r2,r2
    72f8:	1085883a 	add	r2,r2,r2
    72fc:	1007883a 	mov	r3,r2
    7300:	e0bffd17 	ldw	r2,-12(fp)
    7304:	10c5883a 	add	r2,r2,r3
    7308:	10800017 	ldw	r2,0(r2)
    730c:	20800035 	stwio	r2,0(r4)
    7310:	00000e06 	br	734c <alt_up_audio_write_fifo+0xe0>
    7314:	e0bffc17 	ldw	r2,-16(fp)
    7318:	10800a17 	ldw	r2,40(r2)
    731c:	10800304 	addi	r2,r2,12
    7320:	1009883a 	mov	r4,r2
    7324:	e0bffa17 	ldw	r2,-24(fp)
    7328:	10c00044 	addi	r3,r2,1
    732c:	e0fffa15 	stw	r3,-24(fp)
    7330:	1085883a 	add	r2,r2,r2
    7334:	1085883a 	add	r2,r2,r2
    7338:	1007883a 	mov	r3,r2
    733c:	e0bffd17 	ldw	r2,-12(fp)
    7340:	10c5883a 	add	r2,r2,r3
    7344:	10800017 	ldw	r2,0(r2)
    7348:	20800035 	stwio	r2,0(r4)
    734c:	e0fffa17 	ldw	r3,-24(fp)
    7350:	e0bffe17 	ldw	r2,-8(fp)
    7354:	18bfce16 	blt	r3,r2,7290 <__alt_mem_VGA_Subsystem_Char_Buf_Subsystem_Onchip_SRAM+0xf7007290>
    7358:	00000106 	br	7360 <alt_up_audio_write_fifo+0xf4>
    735c:	0001883a 	nop
    7360:	e0bffa17 	ldw	r2,-24(fp)
    7364:	e037883a 	mov	sp,fp
    7368:	df000017 	ldw	fp,0(sp)
    736c:	dec00104 	addi	sp,sp,4
    7370:	f800283a 	ret

00007374 <alt_up_audio_read_fifo_head>:
    7374:	defffd04 	addi	sp,sp,-12
    7378:	df000215 	stw	fp,8(sp)
    737c:	df000204 	addi	fp,sp,8
    7380:	e13ffe15 	stw	r4,-8(fp)
    7384:	e17fff15 	stw	r5,-4(fp)
    7388:	e0bfff17 	ldw	r2,-4(fp)
    738c:	1000051e 	bne	r2,zero,73a4 <alt_up_audio_read_fifo_head+0x30>
    7390:	e0bffe17 	ldw	r2,-8(fp)
    7394:	10800a17 	ldw	r2,40(r2)
    7398:	10800204 	addi	r2,r2,8
    739c:	10800037 	ldwio	r2,0(r2)
    73a0:	00000406 	br	73b4 <alt_up_audio_read_fifo_head+0x40>
    73a4:	e0bffe17 	ldw	r2,-8(fp)
    73a8:	10800a17 	ldw	r2,40(r2)
    73ac:	10800304 	addi	r2,r2,12
    73b0:	10800037 	ldwio	r2,0(r2)
    73b4:	e037883a 	mov	sp,fp
    73b8:	df000017 	ldw	fp,0(sp)
    73bc:	dec00104 	addi	sp,sp,4
    73c0:	f800283a 	ret

000073c4 <alt_up_audio_write_fifo_head>:
    73c4:	defffc04 	addi	sp,sp,-16
    73c8:	df000315 	stw	fp,12(sp)
    73cc:	df000304 	addi	fp,sp,12
    73d0:	e13ffd15 	stw	r4,-12(fp)
    73d4:	e17ffe15 	stw	r5,-8(fp)
    73d8:	e1bfff15 	stw	r6,-4(fp)
    73dc:	e0bfff17 	ldw	r2,-4(fp)
    73e0:	1000071e 	bne	r2,zero,7400 <alt_up_audio_write_fifo_head+0x3c>
    73e4:	e0bffd17 	ldw	r2,-12(fp)
    73e8:	10800a17 	ldw	r2,40(r2)
    73ec:	10800204 	addi	r2,r2,8
    73f0:	1007883a 	mov	r3,r2
    73f4:	e0bffe17 	ldw	r2,-8(fp)
    73f8:	18800035 	stwio	r2,0(r3)
    73fc:	00000606 	br	7418 <alt_up_audio_write_fifo_head+0x54>
    7400:	e0bffd17 	ldw	r2,-12(fp)
    7404:	10800a17 	ldw	r2,40(r2)
    7408:	10800304 	addi	r2,r2,12
    740c:	1007883a 	mov	r3,r2
    7410:	e0bffe17 	ldw	r2,-8(fp)
    7414:	18800035 	stwio	r2,0(r3)
    7418:	0001883a 	nop
    741c:	e037883a 	mov	sp,fp
    7420:	df000017 	ldw	fp,0(sp)
    7424:	dec00104 	addi	sp,sp,4
    7428:	f800283a 	ret

0000742c <read_RI_bit>:
    742c:	defffd04 	addi	sp,sp,-12
    7430:	df000215 	stw	fp,8(sp)
    7434:	df000204 	addi	fp,sp,8
    7438:	e13fff15 	stw	r4,-4(fp)
    743c:	e0bfff17 	ldw	r2,-4(fp)
    7440:	1080400c 	andi	r2,r2,256
    7444:	1004d23a 	srli	r2,r2,8
    7448:	e0bffe05 	stb	r2,-8(fp)
    744c:	e0bffe03 	ldbu	r2,-8(fp)
    7450:	e037883a 	mov	sp,fp
    7454:	df000017 	ldw	fp,0(sp)
    7458:	dec00104 	addi	sp,sp,4
    745c:	f800283a 	ret

00007460 <read_RE_bit>:
    7460:	defffd04 	addi	sp,sp,-12
    7464:	df000215 	stw	fp,8(sp)
    7468:	df000204 	addi	fp,sp,8
    746c:	e13fff15 	stw	r4,-4(fp)
    7470:	e0bfff17 	ldw	r2,-4(fp)
    7474:	1080004c 	andi	r2,r2,1
    7478:	e0bffe05 	stb	r2,-8(fp)
    747c:	e0bffe03 	ldbu	r2,-8(fp)
    7480:	e037883a 	mov	sp,fp
    7484:	df000017 	ldw	fp,0(sp)
    7488:	dec00104 	addi	sp,sp,4
    748c:	f800283a 	ret

00007490 <read_CE_bit>:
    7490:	defffd04 	addi	sp,sp,-12
    7494:	df000215 	stw	fp,8(sp)
    7498:	df000204 	addi	fp,sp,8
    749c:	e13fff15 	stw	r4,-4(fp)
    74a0:	e0bfff17 	ldw	r2,-4(fp)
    74a4:	1081000c 	andi	r2,r2,1024
    74a8:	1004d2ba 	srli	r2,r2,10
    74ac:	e0bffe05 	stb	r2,-8(fp)
    74b0:	e0bffe03 	ldbu	r2,-8(fp)
    74b4:	e037883a 	mov	sp,fp
    74b8:	df000017 	ldw	fp,0(sp)
    74bc:	dec00104 	addi	sp,sp,4
    74c0:	f800283a 	ret

000074c4 <read_num_bytes_available>:
    74c4:	defffd04 	addi	sp,sp,-12
    74c8:	df000215 	stw	fp,8(sp)
    74cc:	df000204 	addi	fp,sp,8
    74d0:	e13fff15 	stw	r4,-4(fp)
    74d4:	e0bfff17 	ldw	r2,-4(fp)
    74d8:	1004d43a 	srli	r2,r2,16
    74dc:	e0bffe0d 	sth	r2,-8(fp)
    74e0:	e0bffe0b 	ldhu	r2,-8(fp)
    74e4:	e037883a 	mov	sp,fp
    74e8:	df000017 	ldw	fp,0(sp)
    74ec:	dec00104 	addi	sp,sp,4
    74f0:	f800283a 	ret

000074f4 <read_data_valid>:
    74f4:	defffd04 	addi	sp,sp,-12
    74f8:	df000215 	stw	fp,8(sp)
    74fc:	df000204 	addi	fp,sp,8
    7500:	e13fff15 	stw	r4,-4(fp)
    7504:	e0bfff17 	ldw	r2,-4(fp)
    7508:	10a0000c 	andi	r2,r2,32768
    750c:	1004d3fa 	srli	r2,r2,15
    7510:	e0bffe05 	stb	r2,-8(fp)
    7514:	e0bffe03 	ldbu	r2,-8(fp)
    7518:	e037883a 	mov	sp,fp
    751c:	df000017 	ldw	fp,0(sp)
    7520:	dec00104 	addi	sp,sp,4
    7524:	f800283a 	ret

00007528 <read_data_byte>:
    7528:	defffd04 	addi	sp,sp,-12
    752c:	df000215 	stw	fp,8(sp)
    7530:	df000204 	addi	fp,sp,8
    7534:	e13fff15 	stw	r4,-4(fp)
    7538:	e0bfff17 	ldw	r2,-4(fp)
    753c:	e0bffe05 	stb	r2,-8(fp)
    7540:	e0bffe03 	ldbu	r2,-8(fp)
    7544:	e037883a 	mov	sp,fp
    7548:	df000017 	ldw	fp,0(sp)
    754c:	dec00104 	addi	sp,sp,4
    7550:	f800283a 	ret

00007554 <alt_up_ps2_init>:
    7554:	defffb04 	addi	sp,sp,-20
    7558:	dfc00415 	stw	ra,16(sp)
    755c:	df000315 	stw	fp,12(sp)
    7560:	df000304 	addi	fp,sp,12
    7564:	e13fff15 	stw	r4,-4(fp)
    7568:	01403fc4 	movi	r5,255
    756c:	e13fff17 	ldw	r4,-4(fp)
    7570:	00077b40 	call	77b4 <alt_up_ps2_write_data_byte_with_ack>
    7574:	e0bffd15 	stw	r2,-12(fp)
    7578:	e0bffd17 	ldw	r2,-12(fp)
    757c:	1000211e 	bne	r2,zero,7604 <alt_up_ps2_init+0xb0>
    7580:	e0bffe04 	addi	r2,fp,-8
    7584:	100b883a 	mov	r5,r2
    7588:	e13fff17 	ldw	r4,-4(fp)
    758c:	00078180 	call	7818 <alt_up_ps2_read_data_byte_timeout>
    7590:	e0bffd15 	stw	r2,-12(fp)
    7594:	e0bffd17 	ldw	r2,-12(fp)
    7598:	10001a1e 	bne	r2,zero,7604 <alt_up_ps2_init+0xb0>
    759c:	e0bffe03 	ldbu	r2,-8(fp)
    75a0:	10803fcc 	andi	r2,r2,255
    75a4:	10802a98 	cmpnei	r2,r2,170
    75a8:	1000161e 	bne	r2,zero,7604 <alt_up_ps2_init+0xb0>
    75ac:	e0bffe04 	addi	r2,fp,-8
    75b0:	100b883a 	mov	r5,r2
    75b4:	e13fff17 	ldw	r4,-4(fp)
    75b8:	00078180 	call	7818 <alt_up_ps2_read_data_byte_timeout>
    75bc:	e0bffd15 	stw	r2,-12(fp)
    75c0:	e0bffd17 	ldw	r2,-12(fp)
    75c4:	10bfe318 	cmpnei	r2,r2,-116
    75c8:	1000041e 	bne	r2,zero,75dc <alt_up_ps2_init+0x88>
    75cc:	e0bfff17 	ldw	r2,-4(fp)
    75d0:	00c00044 	movi	r3,1
    75d4:	10c00d15 	stw	r3,52(r2)
    75d8:	00000a06 	br	7604 <alt_up_ps2_init+0xb0>
    75dc:	e0bffd17 	ldw	r2,-12(fp)
    75e0:	1000081e 	bne	r2,zero,7604 <alt_up_ps2_init+0xb0>
    75e4:	e0bffe03 	ldbu	r2,-8(fp)
    75e8:	10803fcc 	andi	r2,r2,255
    75ec:	1000051e 	bne	r2,zero,7604 <alt_up_ps2_init+0xb0>
    75f0:	e0bfff17 	ldw	r2,-4(fp)
    75f4:	10000d15 	stw	zero,52(r2)
    75f8:	01403d04 	movi	r5,244
    75fc:	e13fff17 	ldw	r4,-4(fp)
    7600:	00076d80 	call	76d8 <alt_up_ps2_write_data_byte>
    7604:	0001883a 	nop
    7608:	e037883a 	mov	sp,fp
    760c:	dfc00117 	ldw	ra,4(sp)
    7610:	df000017 	ldw	fp,0(sp)
    7614:	dec00204 	addi	sp,sp,8
    7618:	f800283a 	ret

0000761c <alt_up_ps2_enable_read_interrupt>:
    761c:	defffd04 	addi	sp,sp,-12
    7620:	df000215 	stw	fp,8(sp)
    7624:	df000204 	addi	fp,sp,8
    7628:	e13fff15 	stw	r4,-4(fp)
    762c:	e0bfff17 	ldw	r2,-4(fp)
    7630:	10800a17 	ldw	r2,40(r2)
    7634:	10800104 	addi	r2,r2,4
    7638:	10800037 	ldwio	r2,0(r2)
    763c:	e0bffe15 	stw	r2,-8(fp)
    7640:	e0bffe17 	ldw	r2,-8(fp)
    7644:	10800054 	ori	r2,r2,1
    7648:	e0bffe15 	stw	r2,-8(fp)
    764c:	e0bfff17 	ldw	r2,-4(fp)
    7650:	10800a17 	ldw	r2,40(r2)
    7654:	10800104 	addi	r2,r2,4
    7658:	1007883a 	mov	r3,r2
    765c:	e0bffe17 	ldw	r2,-8(fp)
    7660:	18800035 	stwio	r2,0(r3)
    7664:	0001883a 	nop
    7668:	e037883a 	mov	sp,fp
    766c:	df000017 	ldw	fp,0(sp)
    7670:	dec00104 	addi	sp,sp,4
    7674:	f800283a 	ret

00007678 <alt_up_ps2_disable_read_interrupt>:
    7678:	defffd04 	addi	sp,sp,-12
    767c:	df000215 	stw	fp,8(sp)
    7680:	df000204 	addi	fp,sp,8
    7684:	e13fff15 	stw	r4,-4(fp)
    7688:	e0bfff17 	ldw	r2,-4(fp)
    768c:	10800a17 	ldw	r2,40(r2)
    7690:	10800104 	addi	r2,r2,4
    7694:	10800037 	ldwio	r2,0(r2)
    7698:	e0bffe15 	stw	r2,-8(fp)
    769c:	e0fffe17 	ldw	r3,-8(fp)
    76a0:	00bfff84 	movi	r2,-2
    76a4:	1884703a 	and	r2,r3,r2
    76a8:	e0bffe15 	stw	r2,-8(fp)
    76ac:	e0bfff17 	ldw	r2,-4(fp)
    76b0:	10800a17 	ldw	r2,40(r2)
    76b4:	10800104 	addi	r2,r2,4
    76b8:	1007883a 	mov	r3,r2
    76bc:	e0bffe17 	ldw	r2,-8(fp)
    76c0:	18800035 	stwio	r2,0(r3)
    76c4:	0001883a 	nop
    76c8:	e037883a 	mov	sp,fp
    76cc:	df000017 	ldw	fp,0(sp)
    76d0:	dec00104 	addi	sp,sp,4
    76d4:	f800283a 	ret

000076d8 <alt_up_ps2_write_data_byte>:
    76d8:	defffb04 	addi	sp,sp,-20
    76dc:	dfc00415 	stw	ra,16(sp)
    76e0:	df000315 	stw	fp,12(sp)
    76e4:	df000304 	addi	fp,sp,12
    76e8:	e13ffe15 	stw	r4,-8(fp)
    76ec:	2805883a 	mov	r2,r5
    76f0:	e0bfff05 	stb	r2,-4(fp)
    76f4:	e0bffe17 	ldw	r2,-8(fp)
    76f8:	10800a17 	ldw	r2,40(r2)
    76fc:	1007883a 	mov	r3,r2
    7700:	e0bfff03 	ldbu	r2,-4(fp)
    7704:	18800025 	stbio	r2,0(r3)
    7708:	e0bffe17 	ldw	r2,-8(fp)
    770c:	10800a17 	ldw	r2,40(r2)
    7710:	10800104 	addi	r2,r2,4
    7714:	10800037 	ldwio	r2,0(r2)
    7718:	e0bffd15 	stw	r2,-12(fp)
    771c:	e13ffd17 	ldw	r4,-12(fp)
    7720:	00074900 	call	7490 <read_CE_bit>
    7724:	10803fcc 	andi	r2,r2,255
    7728:	10000226 	beq	r2,zero,7734 <alt_up_ps2_write_data_byte+0x5c>
    772c:	00bffec4 	movi	r2,-5
    7730:	00000106 	br	7738 <alt_up_ps2_write_data_byte+0x60>
    7734:	0005883a 	mov	r2,zero
    7738:	e037883a 	mov	sp,fp
    773c:	dfc00117 	ldw	ra,4(sp)
    7740:	df000017 	ldw	fp,0(sp)
    7744:	dec00204 	addi	sp,sp,8
    7748:	f800283a 	ret

0000774c <alt_up_ps2_wait_for_ack>:
    774c:	defffc04 	addi	sp,sp,-16
    7750:	dfc00315 	stw	ra,12(sp)
    7754:	df000215 	stw	fp,8(sp)
    7758:	df000204 	addi	fp,sp,8
    775c:	e13fff15 	stw	r4,-4(fp)
    7760:	e03ffe45 	stb	zero,-7(fp)
    7764:	e03ffe05 	stb	zero,-8(fp)
    7768:	e0bffe44 	addi	r2,fp,-7
    776c:	100b883a 	mov	r5,r2
    7770:	e13fff17 	ldw	r4,-4(fp)
    7774:	00078180 	call	7818 <alt_up_ps2_read_data_byte_timeout>
    7778:	e0bffe05 	stb	r2,-8(fp)
    777c:	e0bffe03 	ldbu	r2,-8(fp)
    7780:	1000061e 	bne	r2,zero,779c <alt_up_ps2_wait_for_ack+0x50>
    7784:	e0bffe43 	ldbu	r2,-7(fp)
    7788:	10803fcc 	andi	r2,r2,255
    778c:	10803e98 	cmpnei	r2,r2,250
    7790:	103ff51e 	bne	r2,zero,7768 <__alt_mem_VGA_Subsystem_Char_Buf_Subsystem_Onchip_SRAM+0xf7007768>
    7794:	0005883a 	mov	r2,zero
    7798:	00000106 	br	77a0 <alt_up_ps2_wait_for_ack+0x54>
    779c:	e0bffe03 	ldbu	r2,-8(fp)
    77a0:	e037883a 	mov	sp,fp
    77a4:	dfc00117 	ldw	ra,4(sp)
    77a8:	df000017 	ldw	fp,0(sp)
    77ac:	dec00204 	addi	sp,sp,8
    77b0:	f800283a 	ret

000077b4 <alt_up_ps2_write_data_byte_with_ack>:
    77b4:	defffa04 	addi	sp,sp,-24
    77b8:	dfc00515 	stw	ra,20(sp)
    77bc:	df000415 	stw	fp,16(sp)
    77c0:	df000404 	addi	fp,sp,16
    77c4:	e13ffe15 	stw	r4,-8(fp)
    77c8:	2805883a 	mov	r2,r5
    77cc:	e0bfff05 	stb	r2,-4(fp)
    77d0:	e0bfff03 	ldbu	r2,-4(fp)
    77d4:	100b883a 	mov	r5,r2
    77d8:	e13ffe17 	ldw	r4,-8(fp)
    77dc:	00076d80 	call	76d8 <alt_up_ps2_write_data_byte>
    77e0:	e0bffc15 	stw	r2,-16(fp)
    77e4:	e0bffc17 	ldw	r2,-16(fp)
    77e8:	10000226 	beq	r2,zero,77f4 <alt_up_ps2_write_data_byte_with_ack+0x40>
    77ec:	e0bffc17 	ldw	r2,-16(fp)
    77f0:	00000406 	br	7804 <alt_up_ps2_write_data_byte_with_ack+0x50>
    77f4:	e13ffe17 	ldw	r4,-8(fp)
    77f8:	000774c0 	call	774c <alt_up_ps2_wait_for_ack>
    77fc:	e0bffd15 	stw	r2,-12(fp)
    7800:	e0bffd17 	ldw	r2,-12(fp)
    7804:	e037883a 	mov	sp,fp
    7808:	dfc00117 	ldw	ra,4(sp)
    780c:	df000017 	ldw	fp,0(sp)
    7810:	dec00204 	addi	sp,sp,8
    7814:	f800283a 	ret

00007818 <alt_up_ps2_read_data_byte_timeout>:
    7818:	defffa04 	addi	sp,sp,-24
    781c:	dfc00515 	stw	ra,20(sp)
    7820:	df000415 	stw	fp,16(sp)
    7824:	df000404 	addi	fp,sp,16
    7828:	e13ffe15 	stw	r4,-8(fp)
    782c:	e17fff15 	stw	r5,-4(fp)
    7830:	e03ffd15 	stw	zero,-12(fp)
    7834:	e03ffc15 	stw	zero,-16(fp)
    7838:	e0bffc17 	ldw	r2,-16(fp)
    783c:	10800044 	addi	r2,r2,1
    7840:	e0bffc15 	stw	r2,-16(fp)
    7844:	e0bffe17 	ldw	r2,-8(fp)
    7848:	10800a17 	ldw	r2,40(r2)
    784c:	10800037 	ldwio	r2,0(r2)
    7850:	e0bffd15 	stw	r2,-12(fp)
    7854:	e13ffd17 	ldw	r4,-12(fp)
    7858:	00074f40 	call	74f4 <read_data_valid>
    785c:	10803fcc 	andi	r2,r2,255
    7860:	10000726 	beq	r2,zero,7880 <alt_up_ps2_read_data_byte_timeout+0x68>
    7864:	e13ffd17 	ldw	r4,-12(fp)
    7868:	00075280 	call	7528 <read_data_byte>
    786c:	1007883a 	mov	r3,r2
    7870:	e0bfff17 	ldw	r2,-4(fp)
    7874:	10c00005 	stb	r3,0(r2)
    7878:	0005883a 	mov	r2,zero
    787c:	00000806 	br	78a0 <alt_up_ps2_read_data_byte_timeout+0x88>
    7880:	e0bffe17 	ldw	r2,-8(fp)
    7884:	10800c17 	ldw	r2,48(r2)
    7888:	103feb26 	beq	r2,zero,7838 <__alt_mem_VGA_Subsystem_Char_Buf_Subsystem_Onchip_SRAM+0xf7007838>
    788c:	e0bffe17 	ldw	r2,-8(fp)
    7890:	10c00c17 	ldw	r3,48(r2)
    7894:	e0bffc17 	ldw	r2,-16(fp)
    7898:	18bfe72e 	bgeu	r3,r2,7838 <__alt_mem_VGA_Subsystem_Char_Buf_Subsystem_Onchip_SRAM+0xf7007838>
    789c:	00bfe304 	movi	r2,-116
    78a0:	e037883a 	mov	sp,fp
    78a4:	dfc00117 	ldw	ra,4(sp)
    78a8:	df000017 	ldw	fp,0(sp)
    78ac:	dec00204 	addi	sp,sp,8
    78b0:	f800283a 	ret

000078b4 <alt_up_ps2_read_data_byte>:
    78b4:	defffb04 	addi	sp,sp,-20
    78b8:	dfc00415 	stw	ra,16(sp)
    78bc:	df000315 	stw	fp,12(sp)
    78c0:	df000304 	addi	fp,sp,12
    78c4:	e13ffe15 	stw	r4,-8(fp)
    78c8:	e17fff15 	stw	r5,-4(fp)
    78cc:	e03ffd15 	stw	zero,-12(fp)
    78d0:	e0bffe17 	ldw	r2,-8(fp)
    78d4:	10800a17 	ldw	r2,40(r2)
    78d8:	10800037 	ldwio	r2,0(r2)
    78dc:	e0bffd15 	stw	r2,-12(fp)
    78e0:	e13ffd17 	ldw	r4,-12(fp)
    78e4:	00074f40 	call	74f4 <read_data_valid>
    78e8:	10803fcc 	andi	r2,r2,255
    78ec:	10000726 	beq	r2,zero,790c <alt_up_ps2_read_data_byte+0x58>
    78f0:	e13ffd17 	ldw	r4,-12(fp)
    78f4:	00075280 	call	7528 <read_data_byte>
    78f8:	1007883a 	mov	r3,r2
    78fc:	e0bfff17 	ldw	r2,-4(fp)
    7900:	10c00005 	stb	r3,0(r2)
    7904:	0005883a 	mov	r2,zero
    7908:	00000106 	br	7910 <alt_up_ps2_read_data_byte+0x5c>
    790c:	00bfffc4 	movi	r2,-1
    7910:	e037883a 	mov	sp,fp
    7914:	dfc00117 	ldw	ra,4(sp)
    7918:	df000017 	ldw	fp,0(sp)
    791c:	dec00204 	addi	sp,sp,8
    7920:	f800283a 	ret

00007924 <alt_up_ps2_clear_fifo>:
    7924:	defffb04 	addi	sp,sp,-20
    7928:	dfc00415 	stw	ra,16(sp)
    792c:	df000315 	stw	fp,12(sp)
    7930:	df000304 	addi	fp,sp,12
    7934:	e13fff15 	stw	r4,-4(fp)
    7938:	e03ffd0d 	sth	zero,-12(fp)
    793c:	e03ffe15 	stw	zero,-8(fp)
    7940:	e0bfff17 	ldw	r2,-4(fp)
    7944:	10800a17 	ldw	r2,40(r2)
    7948:	10800037 	ldwio	r2,0(r2)
    794c:	e0bffe15 	stw	r2,-8(fp)
    7950:	e13ffe17 	ldw	r4,-8(fp)
    7954:	00074c40 	call	74c4 <read_num_bytes_available>
    7958:	e0bffd0d 	sth	r2,-12(fp)
    795c:	e0bffd0b 	ldhu	r2,-12(fp)
    7960:	103ff71e 	bne	r2,zero,7940 <__alt_mem_VGA_Subsystem_Char_Buf_Subsystem_Onchip_SRAM+0xf7007940>
    7964:	0001883a 	nop
    7968:	e037883a 	mov	sp,fp
    796c:	dfc00117 	ldw	ra,4(sp)
    7970:	df000017 	ldw	fp,0(sp)
    7974:	dec00204 	addi	sp,sp,8
    7978:	f800283a 	ret

0000797c <alt_up_ps2_read_fd>:
    797c:	defff804 	addi	sp,sp,-32
    7980:	dfc00715 	stw	ra,28(sp)
    7984:	df000615 	stw	fp,24(sp)
    7988:	df000604 	addi	fp,sp,24
    798c:	e13ffd15 	stw	r4,-12(fp)
    7990:	e17ffe15 	stw	r5,-8(fp)
    7994:	e1bfff15 	stw	r6,-4(fp)
    7998:	e0bffd17 	ldw	r2,-12(fp)
    799c:	10800017 	ldw	r2,0(r2)
    79a0:	e0bffa15 	stw	r2,-24(fp)
    79a4:	e03ffb15 	stw	zero,-20(fp)
    79a8:	e03ffc15 	stw	zero,-16(fp)
    79ac:	e0fffc17 	ldw	r3,-16(fp)
    79b0:	e0bfff17 	ldw	r2,-4(fp)
    79b4:	18bffd16 	blt	r3,r2,79ac <__alt_mem_VGA_Subsystem_Char_Buf_Subsystem_Onchip_SRAM+0xf70079ac>
    79b8:	e0bffe17 	ldw	r2,-8(fp)
    79bc:	10c00044 	addi	r3,r2,1
    79c0:	e0fffe15 	stw	r3,-8(fp)
    79c4:	100b883a 	mov	r5,r2
    79c8:	e13ffa17 	ldw	r4,-24(fp)
    79cc:	00078180 	call	7818 <alt_up_ps2_read_data_byte_timeout>
    79d0:	e0bffb15 	stw	r2,-20(fp)
    79d4:	e0bffb17 	ldw	r2,-20(fp)
    79d8:	10000226 	beq	r2,zero,79e4 <alt_up_ps2_read_fd+0x68>
    79dc:	e0bffc17 	ldw	r2,-16(fp)
    79e0:	00000406 	br	79f4 <alt_up_ps2_read_fd+0x78>
    79e4:	e0bffc17 	ldw	r2,-16(fp)
    79e8:	10800044 	addi	r2,r2,1
    79ec:	e0bffc15 	stw	r2,-16(fp)
    79f0:	e0bffc17 	ldw	r2,-16(fp)
    79f4:	e037883a 	mov	sp,fp
    79f8:	dfc00117 	ldw	ra,4(sp)
    79fc:	df000017 	ldw	fp,0(sp)
    7a00:	dec00204 	addi	sp,sp,8
    7a04:	f800283a 	ret

00007a08 <alt_up_ps2_write_fd>:
    7a08:	defff804 	addi	sp,sp,-32
    7a0c:	dfc00715 	stw	ra,28(sp)
    7a10:	df000615 	stw	fp,24(sp)
    7a14:	df000604 	addi	fp,sp,24
    7a18:	e13ffd15 	stw	r4,-12(fp)
    7a1c:	e17ffe15 	stw	r5,-8(fp)
    7a20:	e1bfff15 	stw	r6,-4(fp)
    7a24:	e0bffd17 	ldw	r2,-12(fp)
    7a28:	10800017 	ldw	r2,0(r2)
    7a2c:	e0bffb15 	stw	r2,-20(fp)
    7a30:	e03ffc15 	stw	zero,-16(fp)
    7a34:	e03ffa15 	stw	zero,-24(fp)
    7a38:	00001006 	br	7a7c <alt_up_ps2_write_fd+0x74>
    7a3c:	e0bffe17 	ldw	r2,-8(fp)
    7a40:	10c00044 	addi	r3,r2,1
    7a44:	e0fffe15 	stw	r3,-8(fp)
    7a48:	10800003 	ldbu	r2,0(r2)
    7a4c:	10803fcc 	andi	r2,r2,255
    7a50:	100b883a 	mov	r5,r2
    7a54:	e13ffb17 	ldw	r4,-20(fp)
    7a58:	00076d80 	call	76d8 <alt_up_ps2_write_data_byte>
    7a5c:	e0bffc15 	stw	r2,-16(fp)
    7a60:	e0bffc17 	ldw	r2,-16(fp)
    7a64:	10000226 	beq	r2,zero,7a70 <alt_up_ps2_write_fd+0x68>
    7a68:	e0bffa17 	ldw	r2,-24(fp)
    7a6c:	00000706 	br	7a8c <alt_up_ps2_write_fd+0x84>
    7a70:	e0bffa17 	ldw	r2,-24(fp)
    7a74:	10800044 	addi	r2,r2,1
    7a78:	e0bffa15 	stw	r2,-24(fp)
    7a7c:	e0fffa17 	ldw	r3,-24(fp)
    7a80:	e0bfff17 	ldw	r2,-4(fp)
    7a84:	18bfed16 	blt	r3,r2,7a3c <__alt_mem_VGA_Subsystem_Char_Buf_Subsystem_Onchip_SRAM+0xf7007a3c>
    7a88:	e0bffa17 	ldw	r2,-24(fp)
    7a8c:	e037883a 	mov	sp,fp
    7a90:	dfc00117 	ldw	ra,4(sp)
    7a94:	df000017 	ldw	fp,0(sp)
    7a98:	dec00204 	addi	sp,sp,8
    7a9c:	f800283a 	ret

00007aa0 <alt_up_ps2_open_dev>:
    7aa0:	defffc04 	addi	sp,sp,-16
    7aa4:	dfc00315 	stw	ra,12(sp)
    7aa8:	df000215 	stw	fp,8(sp)
    7aac:	df000204 	addi	fp,sp,8
    7ab0:	e13fff15 	stw	r4,-4(fp)
    7ab4:	d1600904 	addi	r5,gp,-32732
    7ab8:	e13fff17 	ldw	r4,-4(fp)
    7abc:	00093600 	call	9360 <alt_find_dev>
    7ac0:	e0bffe15 	stw	r2,-8(fp)
    7ac4:	e0bffe17 	ldw	r2,-8(fp)
    7ac8:	e037883a 	mov	sp,fp
    7acc:	dfc00117 	ldw	ra,4(sp)
    7ad0:	df000017 	ldw	fp,0(sp)
    7ad4:	dec00204 	addi	sp,sp,8
    7ad8:	f800283a 	ret

00007adc <alt_up_video_dma_open_dev>:
    7adc:	defffc04 	addi	sp,sp,-16
    7ae0:	dfc00315 	stw	ra,12(sp)
    7ae4:	df000215 	stw	fp,8(sp)
    7ae8:	df000204 	addi	fp,sp,8
    7aec:	e13fff15 	stw	r4,-4(fp)
    7af0:	d1600904 	addi	r5,gp,-32732
    7af4:	e13fff17 	ldw	r4,-4(fp)
    7af8:	00093600 	call	9360 <alt_find_dev>
    7afc:	e0bffe15 	stw	r2,-8(fp)
    7b00:	e0bffe17 	ldw	r2,-8(fp)
    7b04:	e037883a 	mov	sp,fp
    7b08:	dfc00117 	ldw	ra,4(sp)
    7b0c:	df000017 	ldw	fp,0(sp)
    7b10:	dec00204 	addi	sp,sp,8
    7b14:	f800283a 	ret

00007b18 <alt_up_video_dma_ctrl_set_bb_addr>:
    7b18:	defffd04 	addi	sp,sp,-12
    7b1c:	df000215 	stw	fp,8(sp)
    7b20:	df000204 	addi	fp,sp,8
    7b24:	e13ffe15 	stw	r4,-8(fp)
    7b28:	e17fff15 	stw	r5,-4(fp)
    7b2c:	e0bffe17 	ldw	r2,-8(fp)
    7b30:	10800a17 	ldw	r2,40(r2)
    7b34:	10800104 	addi	r2,r2,4
    7b38:	1007883a 	mov	r3,r2
    7b3c:	e0bfff17 	ldw	r2,-4(fp)
    7b40:	18800035 	stwio	r2,0(r3)
    7b44:	e0bffe17 	ldw	r2,-8(fp)
    7b48:	10800a17 	ldw	r2,40(r2)
    7b4c:	10800104 	addi	r2,r2,4
    7b50:	10800037 	ldwio	r2,0(r2)
    7b54:	1007883a 	mov	r3,r2
    7b58:	e0bffe17 	ldw	r2,-8(fp)
    7b5c:	10c00c15 	stw	r3,48(r2)
    7b60:	0005883a 	mov	r2,zero
    7b64:	e037883a 	mov	sp,fp
    7b68:	df000017 	ldw	fp,0(sp)
    7b6c:	dec00104 	addi	sp,sp,4
    7b70:	f800283a 	ret

00007b74 <alt_up_video_dma_ctrl_swap_buffers>:
    7b74:	defffd04 	addi	sp,sp,-12
    7b78:	df000215 	stw	fp,8(sp)
    7b7c:	dc000115 	stw	r16,4(sp)
    7b80:	df000204 	addi	fp,sp,8
    7b84:	e13ffe15 	stw	r4,-8(fp)
    7b88:	e0bffe17 	ldw	r2,-8(fp)
    7b8c:	14000c17 	ldw	r16,48(r2)
    7b90:	e0bffe17 	ldw	r2,-8(fp)
    7b94:	10800a17 	ldw	r2,40(r2)
    7b98:	1007883a 	mov	r3,r2
    7b9c:	00800044 	movi	r2,1
    7ba0:	18800035 	stwio	r2,0(r3)
    7ba4:	e0bffe17 	ldw	r2,-8(fp)
    7ba8:	10c00b17 	ldw	r3,44(r2)
    7bac:	e0bffe17 	ldw	r2,-8(fp)
    7bb0:	10c00c15 	stw	r3,48(r2)
    7bb4:	e0bffe17 	ldw	r2,-8(fp)
    7bb8:	14000b15 	stw	r16,44(r2)
    7bbc:	0005883a 	mov	r2,zero
    7bc0:	e6ffff04 	addi	sp,fp,-4
    7bc4:	df000117 	ldw	fp,4(sp)
    7bc8:	dc000017 	ldw	r16,0(sp)
    7bcc:	dec00204 	addi	sp,sp,8
    7bd0:	f800283a 	ret

00007bd4 <alt_up_video_dma_ctrl_check_swap_status>:
    7bd4:	defffe04 	addi	sp,sp,-8
    7bd8:	df000115 	stw	fp,4(sp)
    7bdc:	df000104 	addi	fp,sp,4
    7be0:	e13fff15 	stw	r4,-4(fp)
    7be4:	e0bfff17 	ldw	r2,-4(fp)
    7be8:	10800a17 	ldw	r2,40(r2)
    7bec:	10800304 	addi	r2,r2,12
    7bf0:	10800037 	ldwio	r2,0(r2)
    7bf4:	1080004c 	andi	r2,r2,1
    7bf8:	e037883a 	mov	sp,fp
    7bfc:	df000017 	ldw	fp,0(sp)
    7c00:	dec00104 	addi	sp,sp,4
    7c04:	f800283a 	ret

00007c08 <alt_up_video_dma_draw>:
    7c08:	defff404 	addi	sp,sp,-48
    7c0c:	dfc00b15 	stw	ra,44(sp)
    7c10:	df000a15 	stw	fp,40(sp)
    7c14:	dd400915 	stw	r21,36(sp)
    7c18:	dd000815 	stw	r20,32(sp)
    7c1c:	dcc00715 	stw	r19,28(sp)
    7c20:	dc800615 	stw	r18,24(sp)
    7c24:	dc400515 	stw	r17,20(sp)
    7c28:	dc000415 	stw	r16,16(sp)
    7c2c:	df000a04 	addi	fp,sp,40
    7c30:	e13ff615 	stw	r4,-40(fp)
    7c34:	e17ff715 	stw	r5,-36(fp)
    7c38:	e1bff815 	stw	r6,-32(fp)
    7c3c:	e1fff915 	stw	r7,-28(fp)
    7c40:	0021883a 	mov	r16,zero
    7c44:	e0bff617 	ldw	r2,-40(fp)
    7c48:	15001117 	ldw	r20,68(r2)
    7c4c:	e0bff617 	ldw	r2,-40(fp)
    7c50:	14c01217 	ldw	r19,72(r2)
    7c54:	e4bff817 	ldw	r18,-32(fp)
    7c58:	e47ff917 	ldw	r17,-28(fp)
    7c5c:	e57ff717 	ldw	r21,-36(fp)
    7c60:	9500012e 	bgeu	r18,r20,7c68 <alt_up_video_dma_draw+0x60>
    7c64:	8cc00236 	bltu	r17,r19,7c70 <alt_up_video_dma_draw+0x68>
    7c68:	00bfffc4 	movi	r2,-1
    7c6c:	00003506 	br	7d44 <alt_up_video_dma_draw+0x13c>
    7c70:	e0800217 	ldw	r2,8(fp)
    7c74:	10800058 	cmpnei	r2,r2,1
    7c78:	1000031e 	bne	r2,zero,7c88 <alt_up_video_dma_draw+0x80>
    7c7c:	e0bff617 	ldw	r2,-40(fp)
    7c80:	14c00c17 	ldw	r19,48(r2)
    7c84:	00000206 	br	7c90 <alt_up_video_dma_draw+0x88>
    7c88:	e0bff617 	ldw	r2,-40(fp)
    7c8c:	14c00b17 	ldw	r19,44(r2)
    7c90:	e0bff617 	ldw	r2,-40(fp)
    7c94:	10800d17 	ldw	r2,52(r2)
    7c98:	10000f1e 	bne	r2,zero,7cd8 <alt_up_video_dma_draw+0xd0>
    7c9c:	e0bff617 	ldw	r2,-40(fp)
    7ca0:	10801417 	ldw	r2,80(r2)
    7ca4:	1486703a 	and	r3,r2,r18
    7ca8:	e0bff617 	ldw	r2,-40(fp)
    7cac:	10801317 	ldw	r2,76(r2)
    7cb0:	1884983a 	sll	r2,r3,r2
    7cb4:	80a1883a 	add	r16,r16,r2
    7cb8:	e0bff617 	ldw	r2,-40(fp)
    7cbc:	10801617 	ldw	r2,88(r2)
    7cc0:	1446703a 	and	r3,r2,r17
    7cc4:	e0bff617 	ldw	r2,-40(fp)
    7cc8:	10801517 	ldw	r2,84(r2)
    7ccc:	1884983a 	sll	r2,r3,r2
    7cd0:	80a1883a 	add	r16,r16,r2
    7cd4:	00001306 	br	7d24 <alt_up_video_dma_draw+0x11c>
    7cd8:	e0bff617 	ldw	r2,-40(fp)
    7cdc:	10c01417 	ldw	r3,80(r2)
    7ce0:	e0bff817 	ldw	r2,-32(fp)
    7ce4:	1886703a 	and	r3,r3,r2
    7ce8:	e0bff617 	ldw	r2,-40(fp)
    7cec:	10801317 	ldw	r2,76(r2)
    7cf0:	1884983a 	sll	r2,r3,r2
    7cf4:	80a1883a 	add	r16,r16,r2
    7cf8:	e0bff617 	ldw	r2,-40(fp)
    7cfc:	10c01617 	ldw	r3,88(r2)
    7d00:	e0bff917 	ldw	r2,-28(fp)
    7d04:	1886703a 	and	r3,r3,r2
    7d08:	e0bff617 	ldw	r2,-40(fp)
    7d0c:	10801117 	ldw	r2,68(r2)
    7d10:	1887383a 	mul	r3,r3,r2
    7d14:	e0bff617 	ldw	r2,-40(fp)
    7d18:	10801317 	ldw	r2,76(r2)
    7d1c:	1884983a 	sll	r2,r3,r2
    7d20:	80a1883a 	add	r16,r16,r2
    7d24:	e0bff617 	ldw	r2,-40(fp)
    7d28:	10801017 	ldw	r2,64(r2)
    7d2c:	100f883a 	mov	r7,r2
    7d30:	a80d883a 	mov	r6,r21
    7d34:	800b883a 	mov	r5,r16
    7d38:	9809883a 	mov	r4,r19
    7d3c:	0008e740 	call	8e74 <alt_up_video_dma_draw_helper>
    7d40:	0005883a 	mov	r2,zero
    7d44:	e6fffa04 	addi	sp,fp,-24
    7d48:	dfc00717 	ldw	ra,28(sp)
    7d4c:	df000617 	ldw	fp,24(sp)
    7d50:	dd400517 	ldw	r21,20(sp)
    7d54:	dd000417 	ldw	r20,16(sp)
    7d58:	dcc00317 	ldw	r19,12(sp)
    7d5c:	dc800217 	ldw	r18,8(sp)
    7d60:	dc400117 	ldw	r17,4(sp)
    7d64:	dc000017 	ldw	r16,0(sp)
    7d68:	dec00804 	addi	sp,sp,32
    7d6c:	f800283a 	ret

00007d70 <alt_up_video_dma_read>:
    7d70:	defff504 	addi	sp,sp,-44
    7d74:	dfc00a15 	stw	ra,40(sp)
    7d78:	df000915 	stw	fp,36(sp)
    7d7c:	dd000815 	stw	r20,32(sp)
    7d80:	dcc00715 	stw	r19,28(sp)
    7d84:	dc800615 	stw	r18,24(sp)
    7d88:	dc400515 	stw	r17,20(sp)
    7d8c:	dc000415 	stw	r16,16(sp)
    7d90:	df000904 	addi	fp,sp,36
    7d94:	e13ff715 	stw	r4,-36(fp)
    7d98:	e17ff815 	stw	r5,-32(fp)
    7d9c:	e1bff915 	stw	r6,-28(fp)
    7da0:	e1fffa15 	stw	r7,-24(fp)
    7da4:	0021883a 	mov	r16,zero
    7da8:	e0bff717 	ldw	r2,-36(fp)
    7dac:	15001117 	ldw	r20,68(r2)
    7db0:	e0bff717 	ldw	r2,-36(fp)
    7db4:	14c01217 	ldw	r19,72(r2)
    7db8:	e4bff817 	ldw	r18,-32(fp)
    7dbc:	e47ff917 	ldw	r17,-28(fp)
    7dc0:	9500012e 	bgeu	r18,r20,7dc8 <alt_up_video_dma_read+0x58>
    7dc4:	8cc00236 	bltu	r17,r19,7dd0 <alt_up_video_dma_read+0x60>
    7dc8:	00bfffc4 	movi	r2,-1
    7dcc:	00003306 	br	7e9c <alt_up_video_dma_read+0x12c>
    7dd0:	e0bffa17 	ldw	r2,-24(fp)
    7dd4:	10800058 	cmpnei	r2,r2,1
    7dd8:	1000031e 	bne	r2,zero,7de8 <alt_up_video_dma_read+0x78>
    7ddc:	e0bff717 	ldw	r2,-36(fp)
    7de0:	14c00c17 	ldw	r19,48(r2)
    7de4:	00000206 	br	7df0 <alt_up_video_dma_read+0x80>
    7de8:	e0bff717 	ldw	r2,-36(fp)
    7dec:	14c00b17 	ldw	r19,44(r2)
    7df0:	e0bff717 	ldw	r2,-36(fp)
    7df4:	10800d17 	ldw	r2,52(r2)
    7df8:	10000f1e 	bne	r2,zero,7e38 <alt_up_video_dma_read+0xc8>
    7dfc:	e0bff717 	ldw	r2,-36(fp)
    7e00:	10801417 	ldw	r2,80(r2)
    7e04:	1486703a 	and	r3,r2,r18
    7e08:	e0bff717 	ldw	r2,-36(fp)
    7e0c:	10801317 	ldw	r2,76(r2)
    7e10:	1884983a 	sll	r2,r3,r2
    7e14:	80a1883a 	add	r16,r16,r2
    7e18:	e0bff717 	ldw	r2,-36(fp)
    7e1c:	10801617 	ldw	r2,88(r2)
    7e20:	1446703a 	and	r3,r2,r17
    7e24:	e0bff717 	ldw	r2,-36(fp)
    7e28:	10801517 	ldw	r2,84(r2)
    7e2c:	1884983a 	sll	r2,r3,r2
    7e30:	80a1883a 	add	r16,r16,r2
    7e34:	00001306 	br	7e84 <alt_up_video_dma_read+0x114>
    7e38:	e0bff717 	ldw	r2,-36(fp)
    7e3c:	10c01417 	ldw	r3,80(r2)
    7e40:	e0bff817 	ldw	r2,-32(fp)
    7e44:	1886703a 	and	r3,r3,r2
    7e48:	e0bff717 	ldw	r2,-36(fp)
    7e4c:	10801317 	ldw	r2,76(r2)
    7e50:	1884983a 	sll	r2,r3,r2
    7e54:	80a1883a 	add	r16,r16,r2
    7e58:	e0bff717 	ldw	r2,-36(fp)
    7e5c:	10c01617 	ldw	r3,88(r2)
    7e60:	e0bff917 	ldw	r2,-28(fp)
    7e64:	1886703a 	and	r3,r3,r2
    7e68:	e0bff717 	ldw	r2,-36(fp)
    7e6c:	10801117 	ldw	r2,68(r2)
    7e70:	1887383a 	mul	r3,r3,r2
    7e74:	e0bff717 	ldw	r2,-36(fp)
    7e78:	10801317 	ldw	r2,76(r2)
    7e7c:	1884983a 	sll	r2,r3,r2
    7e80:	80a1883a 	add	r16,r16,r2
    7e84:	e0bff717 	ldw	r2,-36(fp)
    7e88:	10801017 	ldw	r2,64(r2)
    7e8c:	100d883a 	mov	r6,r2
    7e90:	800b883a 	mov	r5,r16
    7e94:	9809883a 	mov	r4,r19
    7e98:	0008edc0 	call	8edc <alt_up_video_dma_read_helper>
    7e9c:	e6fffb04 	addi	sp,fp,-20
    7ea0:	dfc00617 	ldw	ra,24(sp)
    7ea4:	df000517 	ldw	fp,20(sp)
    7ea8:	dd000417 	ldw	r20,16(sp)
    7eac:	dcc00317 	ldw	r19,12(sp)
    7eb0:	dc800217 	ldw	r18,8(sp)
    7eb4:	dc400117 	ldw	r17,4(sp)
    7eb8:	dc000017 	ldw	r16,0(sp)
    7ebc:	dec00704 	addi	sp,sp,28
    7ec0:	f800283a 	ret

00007ec4 <alt_up_video_dma_draw_box>:
    7ec4:	deffef04 	addi	sp,sp,-68
    7ec8:	dfc01015 	stw	ra,64(sp)
    7ecc:	df000f15 	stw	fp,60(sp)
    7ed0:	ddc00e15 	stw	r23,56(sp)
    7ed4:	dd800d15 	stw	r22,52(sp)
    7ed8:	dd400c15 	stw	r21,48(sp)
    7edc:	dd000b15 	stw	r20,44(sp)
    7ee0:	dcc00a15 	stw	r19,40(sp)
    7ee4:	dc800915 	stw	r18,36(sp)
    7ee8:	dc400815 	stw	r17,32(sp)
    7eec:	dc000715 	stw	r16,28(sp)
    7ef0:	df000f04 	addi	fp,sp,60
    7ef4:	e13ff415 	stw	r4,-48(fp)
    7ef8:	e17ff515 	stw	r5,-44(fp)
    7efc:	e1bff615 	stw	r6,-40(fp)
    7f00:	e1fff715 	stw	r7,-36(fp)
    7f04:	e0bff417 	ldw	r2,-48(fp)
    7f08:	14801117 	ldw	r18,68(r2)
    7f0c:	e0bff417 	ldw	r2,-48(fp)
    7f10:	14001217 	ldw	r16,72(r2)
    7f14:	e5bff617 	ldw	r22,-40(fp)
    7f18:	e5000217 	ldw	r20,8(fp)
    7f1c:	e47ff717 	ldw	r17,-36(fp)
    7f20:	e4c00317 	ldw	r19,12(fp)
    7f24:	e5fff517 	ldw	r23,-44(fp)
    7f28:	a580032e 	bgeu	r20,r22,7f38 <alt_up_video_dma_draw_box+0x74>
    7f2c:	b02b883a 	mov	r21,r22
    7f30:	a02d883a 	mov	r22,r20
    7f34:	a829883a 	mov	r20,r21
    7f38:	9c40032e 	bgeu	r19,r17,7f48 <alt_up_video_dma_draw_box+0x84>
    7f3c:	882b883a 	mov	r21,r17
    7f40:	9823883a 	mov	r17,r19
    7f44:	a827883a 	mov	r19,r21
    7f48:	b480012e 	bgeu	r22,r18,7f50 <alt_up_video_dma_draw_box+0x8c>
    7f4c:	8c000236 	bltu	r17,r16,7f58 <alt_up_video_dma_draw_box+0x94>
    7f50:	00bfffc4 	movi	r2,-1
    7f54:	00009506 	br	81ac <alt_up_video_dma_draw_box+0x2e8>
    7f58:	a4800136 	bltu	r20,r18,7f60 <alt_up_video_dma_draw_box+0x9c>
    7f5c:	953fffc4 	addi	r20,r18,-1
    7f60:	9c000136 	bltu	r19,r16,7f68 <alt_up_video_dma_draw_box+0xa4>
    7f64:	84ffffc4 	addi	r19,r16,-1
    7f68:	e0800517 	ldw	r2,20(fp)
    7f6c:	10000b1e 	bne	r2,zero,7f9c <alt_up_video_dma_draw_box+0xd8>
    7f70:	e0800417 	ldw	r2,16(fp)
    7f74:	d8800215 	stw	r2,8(sp)
    7f78:	dcc00115 	stw	r19,4(sp)
    7f7c:	dd000015 	stw	r20,0(sp)
    7f80:	880f883a 	mov	r7,r17
    7f84:	b00d883a 	mov	r6,r22
    7f88:	b80b883a 	mov	r5,r23
    7f8c:	e13ff417 	ldw	r4,-48(fp)
    7f90:	0008d980 	call	8d98 <alt_up_video_dma_draw_rectangle>
    7f94:	0005883a 	mov	r2,zero
    7f98:	00008406 	br	81ac <alt_up_video_dma_draw_box+0x2e8>
    7f9c:	e0800417 	ldw	r2,16(fp)
    7fa0:	10800058 	cmpnei	r2,r2,1
    7fa4:	1000031e 	bne	r2,zero,7fb4 <alt_up_video_dma_draw_box+0xf0>
    7fa8:	e0bff417 	ldw	r2,-48(fp)
    7fac:	14000c17 	ldw	r16,48(r2)
    7fb0:	00000206 	br	7fbc <alt_up_video_dma_draw_box+0xf8>
    7fb4:	e0bff417 	ldw	r2,-48(fp)
    7fb8:	14000b17 	ldw	r16,44(r2)
    7fbc:	e0bff417 	ldw	r2,-48(fp)
    7fc0:	10800d17 	ldw	r2,52(r2)
    7fc4:	10003c1e 	bne	r2,zero,80b8 <alt_up_video_dma_draw_box+0x1f4>
    7fc8:	e0bff417 	ldw	r2,-48(fp)
    7fcc:	15401517 	ldw	r21,84(r2)
    7fd0:	8d44983a 	sll	r2,r17,r21
    7fd4:	80a1883a 	add	r16,r16,r2
    7fd8:	e0bff417 	ldw	r2,-48(fp)
    7fdc:	10801017 	ldw	r2,64(r2)
    7fe0:	10800058 	cmpnei	r2,r2,1
    7fe4:	10000f1e 	bne	r2,zero,8024 <alt_up_video_dma_draw_box+0x160>
    7fe8:	8825883a 	mov	r18,r17
    7fec:	00000b06 	br	801c <alt_up_video_dma_draw_box+0x158>
    7ff0:	b023883a 	mov	r17,r22
    7ff4:	00000406 	br	8008 <alt_up_video_dma_draw_box+0x144>
    7ff8:	8c05883a 	add	r2,r17,r16
    7ffc:	b807883a 	mov	r3,r23
    8000:	10c00025 	stbio	r3,0(r2)
    8004:	8c400044 	addi	r17,r17,1
    8008:	a47ffb2e 	bgeu	r20,r17,7ff8 <__alt_mem_VGA_Subsystem_Char_Buf_Subsystem_Onchip_SRAM+0xf7007ff8>
    800c:	00800044 	movi	r2,1
    8010:	1544983a 	sll	r2,r2,r21
    8014:	80a1883a 	add	r16,r16,r2
    8018:	94800044 	addi	r18,r18,1
    801c:	9cbff42e 	bgeu	r19,r18,7ff0 <__alt_mem_VGA_Subsystem_Char_Buf_Subsystem_Onchip_SRAM+0xf7007ff0>
    8020:	00006106 	br	81a8 <alt_up_video_dma_draw_box+0x2e4>
    8024:	e0bff417 	ldw	r2,-48(fp)
    8028:	10801017 	ldw	r2,64(r2)
    802c:	10800098 	cmpnei	r2,r2,2
    8030:	1000101e 	bne	r2,zero,8074 <alt_up_video_dma_draw_box+0x1b0>
    8034:	8825883a 	mov	r18,r17
    8038:	00000c06 	br	806c <alt_up_video_dma_draw_box+0x1a8>
    803c:	b023883a 	mov	r17,r22
    8040:	00000506 	br	8058 <alt_up_video_dma_draw_box+0x194>
    8044:	8c45883a 	add	r2,r17,r17
    8048:	1405883a 	add	r2,r2,r16
    804c:	b807883a 	mov	r3,r23
    8050:	10c0002d 	sthio	r3,0(r2)
    8054:	8c400044 	addi	r17,r17,1
    8058:	a47ffa2e 	bgeu	r20,r17,8044 <__alt_mem_VGA_Subsystem_Char_Buf_Subsystem_Onchip_SRAM+0xf7008044>
    805c:	00800044 	movi	r2,1
    8060:	1544983a 	sll	r2,r2,r21
    8064:	80a1883a 	add	r16,r16,r2
    8068:	94800044 	addi	r18,r18,1
    806c:	9cbff32e 	bgeu	r19,r18,803c <__alt_mem_VGA_Subsystem_Char_Buf_Subsystem_Onchip_SRAM+0xf700803c>
    8070:	00004d06 	br	81a8 <alt_up_video_dma_draw_box+0x2e4>
    8074:	8825883a 	mov	r18,r17
    8078:	00000d06 	br	80b0 <alt_up_video_dma_draw_box+0x1ec>
    807c:	b023883a 	mov	r17,r22
    8080:	00000606 	br	809c <alt_up_video_dma_draw_box+0x1d8>
    8084:	8c45883a 	add	r2,r17,r17
    8088:	1085883a 	add	r2,r2,r2
    808c:	1405883a 	add	r2,r2,r16
    8090:	b807883a 	mov	r3,r23
    8094:	10c00035 	stwio	r3,0(r2)
    8098:	8c400044 	addi	r17,r17,1
    809c:	a47ff92e 	bgeu	r20,r17,8084 <__alt_mem_VGA_Subsystem_Char_Buf_Subsystem_Onchip_SRAM+0xf7008084>
    80a0:	00800044 	movi	r2,1
    80a4:	1544983a 	sll	r2,r2,r21
    80a8:	80a1883a 	add	r16,r16,r2
    80ac:	94800044 	addi	r18,r18,1
    80b0:	9cbff22e 	bgeu	r19,r18,807c <__alt_mem_VGA_Subsystem_Char_Buf_Subsystem_Onchip_SRAM+0xf700807c>
    80b4:	00003c06 	br	81a8 <alt_up_video_dma_draw_box+0x2e4>
    80b8:	e0bff417 	ldw	r2,-48(fp)
    80bc:	10801017 	ldw	r2,64(r2)
    80c0:	10800058 	cmpnei	r2,r2,1
    80c4:	10000f1e 	bne	r2,zero,8104 <alt_up_video_dma_draw_box+0x240>
    80c8:	8c85383a 	mul	r2,r17,r18
    80cc:	80a1883a 	add	r16,r16,r2
    80d0:	882b883a 	mov	r21,r17
    80d4:	00000906 	br	80fc <alt_up_video_dma_draw_box+0x238>
    80d8:	b023883a 	mov	r17,r22
    80dc:	00000406 	br	80f0 <alt_up_video_dma_draw_box+0x22c>
    80e0:	8c05883a 	add	r2,r17,r16
    80e4:	b807883a 	mov	r3,r23
    80e8:	10c00025 	stbio	r3,0(r2)
    80ec:	8c400044 	addi	r17,r17,1
    80f0:	a47ffb2e 	bgeu	r20,r17,80e0 <__alt_mem_VGA_Subsystem_Char_Buf_Subsystem_Onchip_SRAM+0xf70080e0>
    80f4:	84a1883a 	add	r16,r16,r18
    80f8:	ad400044 	addi	r21,r21,1
    80fc:	9d7ff62e 	bgeu	r19,r21,80d8 <__alt_mem_VGA_Subsystem_Char_Buf_Subsystem_Onchip_SRAM+0xf70080d8>
    8100:	00002906 	br	81a8 <alt_up_video_dma_draw_box+0x2e4>
    8104:	e0bff417 	ldw	r2,-48(fp)
    8108:	10801017 	ldw	r2,64(r2)
    810c:	10800098 	cmpnei	r2,r2,2
    8110:	1000121e 	bne	r2,zero,815c <alt_up_video_dma_draw_box+0x298>
    8114:	9485883a 	add	r2,r18,r18
    8118:	1025883a 	mov	r18,r2
    811c:	8c85383a 	mul	r2,r17,r18
    8120:	80a1883a 	add	r16,r16,r2
    8124:	882b883a 	mov	r21,r17
    8128:	00000a06 	br	8154 <alt_up_video_dma_draw_box+0x290>
    812c:	b023883a 	mov	r17,r22
    8130:	00000506 	br	8148 <alt_up_video_dma_draw_box+0x284>
    8134:	8c45883a 	add	r2,r17,r17
    8138:	1405883a 	add	r2,r2,r16
    813c:	b807883a 	mov	r3,r23
    8140:	10c0002d 	sthio	r3,0(r2)
    8144:	8c400044 	addi	r17,r17,1
    8148:	a47ffa2e 	bgeu	r20,r17,8134 <__alt_mem_VGA_Subsystem_Char_Buf_Subsystem_Onchip_SRAM+0xf7008134>
    814c:	84a1883a 	add	r16,r16,r18
    8150:	ad400044 	addi	r21,r21,1
    8154:	9d7ff52e 	bgeu	r19,r21,812c <__alt_mem_VGA_Subsystem_Char_Buf_Subsystem_Onchip_SRAM+0xf700812c>
    8158:	00001306 	br	81a8 <alt_up_video_dma_draw_box+0x2e4>
    815c:	9485883a 	add	r2,r18,r18
    8160:	1085883a 	add	r2,r2,r2
    8164:	1025883a 	mov	r18,r2
    8168:	8c85383a 	mul	r2,r17,r18
    816c:	80a1883a 	add	r16,r16,r2
    8170:	882b883a 	mov	r21,r17
    8174:	00000b06 	br	81a4 <alt_up_video_dma_draw_box+0x2e0>
    8178:	b023883a 	mov	r17,r22
    817c:	00000606 	br	8198 <alt_up_video_dma_draw_box+0x2d4>
    8180:	8c45883a 	add	r2,r17,r17
    8184:	1085883a 	add	r2,r2,r2
    8188:	1405883a 	add	r2,r2,r16
    818c:	b807883a 	mov	r3,r23
    8190:	10c00035 	stwio	r3,0(r2)
    8194:	8c400044 	addi	r17,r17,1
    8198:	a47ff92e 	bgeu	r20,r17,8180 <__alt_mem_VGA_Subsystem_Char_Buf_Subsystem_Onchip_SRAM+0xf7008180>
    819c:	84a1883a 	add	r16,r16,r18
    81a0:	ad400044 	addi	r21,r21,1
    81a4:	9d7ff42e 	bgeu	r19,r21,8178 <__alt_mem_VGA_Subsystem_Char_Buf_Subsystem_Onchip_SRAM+0xf7008178>
    81a8:	0005883a 	mov	r2,zero
    81ac:	e6fff804 	addi	sp,fp,-32
    81b0:	dfc00917 	ldw	ra,36(sp)
    81b4:	df000817 	ldw	fp,32(sp)
    81b8:	ddc00717 	ldw	r23,28(sp)
    81bc:	dd800617 	ldw	r22,24(sp)
    81c0:	dd400517 	ldw	r21,20(sp)
    81c4:	dd000417 	ldw	r20,16(sp)
    81c8:	dcc00317 	ldw	r19,12(sp)
    81cc:	dc800217 	ldw	r18,8(sp)
    81d0:	dc400117 	ldw	r17,4(sp)
    81d4:	dc000017 	ldw	r16,0(sp)
    81d8:	dec00a04 	addi	sp,sp,40
    81dc:	f800283a 	ret

000081e0 <alt_up_video_dma_draw_line>:
    81e0:	deffec04 	addi	sp,sp,-80
    81e4:	dfc01315 	stw	ra,76(sp)
    81e8:	df001215 	stw	fp,72(sp)
    81ec:	ddc01115 	stw	r23,68(sp)
    81f0:	dd801015 	stw	r22,64(sp)
    81f4:	dd400f15 	stw	r21,60(sp)
    81f8:	dd000e15 	stw	r20,56(sp)
    81fc:	dcc00d15 	stw	r19,52(sp)
    8200:	dc800c15 	stw	r18,48(sp)
    8204:	dc400b15 	stw	r17,44(sp)
    8208:	dc000a15 	stw	r16,40(sp)
    820c:	df001204 	addi	fp,sp,72
    8210:	e13fee15 	stw	r4,-72(fp)
    8214:	e17fef15 	stw	r5,-68(fp)
    8218:	e1bff015 	stw	r6,-64(fp)
    821c:	e1fff115 	stw	r7,-60(fp)
    8220:	e47ff017 	ldw	r17,-64(fp)
    8224:	e4fff117 	ldw	r19,-60(fp)
    8228:	e4800217 	ldw	r18,8(fp)
    822c:	e5000317 	ldw	r20,12(fp)
    8230:	a4c5c83a 	sub	r2,r20,r19
    8234:	1000010e 	bge	r2,zero,823c <alt_up_video_dma_draw_line+0x5c>
    8238:	0085c83a 	sub	r2,zero,r2
    823c:	1007883a 	mov	r3,r2
    8240:	9445c83a 	sub	r2,r18,r17
    8244:	1000010e 	bge	r2,zero,824c <alt_up_video_dma_draw_line+0x6c>
    8248:	0085c83a 	sub	r2,zero,r2
    824c:	10c4803a 	cmplt	r2,r2,r3
    8250:	e0bff205 	stb	r2,-56(fp)
    8254:	e0bfee17 	ldw	r2,-72(fp)
    8258:	10801017 	ldw	r2,64(r2)
    825c:	e0bff315 	stw	r2,-52(fp)
    8260:	e0bfef17 	ldw	r2,-68(fp)
    8264:	e0bff415 	stw	r2,-48(fp)
    8268:	e0bfee17 	ldw	r2,-72(fp)
    826c:	10801317 	ldw	r2,76(r2)
    8270:	e0bff515 	stw	r2,-44(fp)
    8274:	e0bfee17 	ldw	r2,-72(fp)
    8278:	10800d17 	ldw	r2,52(r2)
    827c:	1000081e 	bne	r2,zero,82a0 <alt_up_video_dma_draw_line+0xc0>
    8280:	e0bfee17 	ldw	r2,-72(fp)
    8284:	10c01517 	ldw	r3,84(r2)
    8288:	e0bfee17 	ldw	r2,-72(fp)
    828c:	10801317 	ldw	r2,76(r2)
    8290:	1885c83a 	sub	r2,r3,r2
    8294:	00c00044 	movi	r3,1
    8298:	1884983a 	sll	r2,r3,r2
    829c:	00000206 	br	82a8 <alt_up_video_dma_draw_line+0xc8>
    82a0:	e0bfee17 	ldw	r2,-72(fp)
    82a4:	10801117 	ldw	r2,68(r2)
    82a8:	e0bff615 	stw	r2,-40(fp)
    82ac:	e0bfee17 	ldw	r2,-72(fp)
    82b0:	10801117 	ldw	r2,68(r2)
    82b4:	e0fff017 	ldw	r3,-64(fp)
    82b8:	18800236 	bltu	r3,r2,82c4 <alt_up_video_dma_draw_line+0xe4>
    82bc:	00bfffc4 	movi	r2,-1
    82c0:	00006106 	br	8448 <alt_up_video_dma_draw_line+0x268>
    82c4:	e0bfee17 	ldw	r2,-72(fp)
    82c8:	10801117 	ldw	r2,68(r2)
    82cc:	e0c00217 	ldw	r3,8(fp)
    82d0:	18800236 	bltu	r3,r2,82dc <alt_up_video_dma_draw_line+0xfc>
    82d4:	00bfffc4 	movi	r2,-1
    82d8:	00005b06 	br	8448 <alt_up_video_dma_draw_line+0x268>
    82dc:	e0bfee17 	ldw	r2,-72(fp)
    82e0:	10801217 	ldw	r2,72(r2)
    82e4:	e0fff117 	ldw	r3,-60(fp)
    82e8:	18800236 	bltu	r3,r2,82f4 <alt_up_video_dma_draw_line+0x114>
    82ec:	00bfffc4 	movi	r2,-1
    82f0:	00005506 	br	8448 <alt_up_video_dma_draw_line+0x268>
    82f4:	e0bfee17 	ldw	r2,-72(fp)
    82f8:	10801217 	ldw	r2,72(r2)
    82fc:	e0c00317 	ldw	r3,12(fp)
    8300:	18800236 	bltu	r3,r2,830c <alt_up_video_dma_draw_line+0x12c>
    8304:	00bfffc4 	movi	r2,-1
    8308:	00004f06 	br	8448 <alt_up_video_dma_draw_line+0x268>
    830c:	e0800417 	ldw	r2,16(fp)
    8310:	10800058 	cmpnei	r2,r2,1
    8314:	1000031e 	bne	r2,zero,8324 <alt_up_video_dma_draw_line+0x144>
    8318:	e0bfee17 	ldw	r2,-72(fp)
    831c:	15c00c17 	ldw	r23,48(r2)
    8320:	00000206 	br	832c <alt_up_video_dma_draw_line+0x14c>
    8324:	e0bfee17 	ldw	r2,-72(fp)
    8328:	15c00b17 	ldw	r23,44(r2)
    832c:	e0bff207 	ldb	r2,-56(fp)
    8330:	0080060e 	bge	zero,r2,834c <alt_up_video_dma_draw_line+0x16c>
    8334:	8821883a 	mov	r16,r17
    8338:	9823883a 	mov	r17,r19
    833c:	8027883a 	mov	r19,r16
    8340:	9021883a 	mov	r16,r18
    8344:	a025883a 	mov	r18,r20
    8348:	8029883a 	mov	r20,r16
    834c:	9440060e 	bge	r18,r17,8368 <alt_up_video_dma_draw_line+0x188>
    8350:	8821883a 	mov	r16,r17
    8354:	9023883a 	mov	r17,r18
    8358:	8025883a 	mov	r18,r16
    835c:	9821883a 	mov	r16,r19
    8360:	a027883a 	mov	r19,r20
    8364:	8029883a 	mov	r20,r16
    8368:	946dc83a 	sub	r22,r18,r17
    836c:	a4c5c83a 	sub	r2,r20,r19
    8370:	1000010e 	bge	r2,zero,8378 <alt_up_video_dma_draw_line+0x198>
    8374:	0085c83a 	sub	r2,zero,r2
    8378:	e0bff715 	stw	r2,-36(fp)
    837c:	b004d7fa 	srli	r2,r22,31
    8380:	1585883a 	add	r2,r2,r22
    8384:	1005d07a 	srai	r2,r2,1
    8388:	00a1c83a 	sub	r16,zero,r2
    838c:	982b883a 	mov	r21,r19
    8390:	9d00020e 	bge	r19,r20,839c <alt_up_video_dma_draw_line+0x1bc>
    8394:	04c00044 	movi	r19,1
    8398:	00000106 	br	83a0 <alt_up_video_dma_draw_line+0x1c0>
    839c:	04ffffc4 	movi	r19,-1
    83a0:	e0bff207 	ldb	r2,-56(fp)
    83a4:	10800058 	cmpnei	r2,r2,1
    83a8:	1000251e 	bne	r2,zero,8440 <alt_up_video_dma_draw_line+0x260>
    83ac:	00001106 	br	83f4 <alt_up_video_dma_draw_line+0x214>
    83b0:	e0fff617 	ldw	r3,-40(fp)
    83b4:	1c45383a 	mul	r2,r3,r17
    83b8:	1545883a 	add	r2,r2,r21
    83bc:	e0fff517 	ldw	r3,-44(fp)
    83c0:	10c4983a 	sll	r2,r2,r3
    83c4:	1029883a 	mov	r20,r2
    83c8:	e1fff317 	ldw	r7,-52(fp)
    83cc:	e1bff417 	ldw	r6,-48(fp)
    83d0:	a00b883a 	mov	r5,r20
    83d4:	b809883a 	mov	r4,r23
    83d8:	0008e740 	call	8e74 <alt_up_video_dma_draw_helper>
    83dc:	e0bff717 	ldw	r2,-36(fp)
    83e0:	80a1883a 	add	r16,r16,r2
    83e4:	0400020e 	bge	zero,r16,83f0 <alt_up_video_dma_draw_line+0x210>
    83e8:	aceb883a 	add	r21,r21,r19
    83ec:	85a1c83a 	sub	r16,r16,r22
    83f0:	8c400044 	addi	r17,r17,1
    83f4:	947fee0e 	bge	r18,r17,83b0 <__alt_mem_VGA_Subsystem_Char_Buf_Subsystem_Onchip_SRAM+0xf70083b0>
    83f8:	00001206 	br	8444 <alt_up_video_dma_draw_line+0x264>
    83fc:	e0fff617 	ldw	r3,-40(fp)
    8400:	1d45383a 	mul	r2,r3,r21
    8404:	1445883a 	add	r2,r2,r17
    8408:	e0fff517 	ldw	r3,-44(fp)
    840c:	10c4983a 	sll	r2,r2,r3
    8410:	1029883a 	mov	r20,r2
    8414:	e1fff317 	ldw	r7,-52(fp)
    8418:	e1bff417 	ldw	r6,-48(fp)
    841c:	a00b883a 	mov	r5,r20
    8420:	b809883a 	mov	r4,r23
    8424:	0008e740 	call	8e74 <alt_up_video_dma_draw_helper>
    8428:	e0bff717 	ldw	r2,-36(fp)
    842c:	80a1883a 	add	r16,r16,r2
    8430:	0400020e 	bge	zero,r16,843c <alt_up_video_dma_draw_line+0x25c>
    8434:	aceb883a 	add	r21,r21,r19
    8438:	85a1c83a 	sub	r16,r16,r22
    843c:	8c400044 	addi	r17,r17,1
    8440:	947fee0e 	bge	r18,r17,83fc <__alt_mem_VGA_Subsystem_Char_Buf_Subsystem_Onchip_SRAM+0xf70083fc>
    8444:	0005883a 	mov	r2,zero
    8448:	e6fff804 	addi	sp,fp,-32
    844c:	dfc00917 	ldw	ra,36(sp)
    8450:	df000817 	ldw	fp,32(sp)
    8454:	ddc00717 	ldw	r23,28(sp)
    8458:	dd800617 	ldw	r22,24(sp)
    845c:	dd400517 	ldw	r21,20(sp)
    8460:	dd000417 	ldw	r20,16(sp)
    8464:	dcc00317 	ldw	r19,12(sp)
    8468:	dc800217 	ldw	r18,8(sp)
    846c:	dc400117 	ldw	r17,4(sp)
    8470:	dc000017 	ldw	r16,0(sp)
    8474:	dec00a04 	addi	sp,sp,40
    8478:	f800283a 	ret

0000847c <alt_up_video_dma_draw_string>:
    847c:	defff904 	addi	sp,sp,-28
    8480:	df000615 	stw	fp,24(sp)
    8484:	dc000515 	stw	r16,20(sp)
    8488:	df000604 	addi	fp,sp,24
    848c:	e13ffb15 	stw	r4,-20(fp)
    8490:	e17ffc15 	stw	r5,-16(fp)
    8494:	e1bffd15 	stw	r6,-12(fp)
    8498:	e1fffe15 	stw	r7,-8(fp)
    849c:	e0800117 	ldw	r2,4(fp)
    84a0:	10800058 	cmpnei	r2,r2,1
    84a4:	1000031e 	bne	r2,zero,84b4 <alt_up_video_dma_draw_string+0x38>
    84a8:	e0bffb17 	ldw	r2,-20(fp)
    84ac:	14000c17 	ldw	r16,48(r2)
    84b0:	00000206 	br	84bc <alt_up_video_dma_draw_string+0x40>
    84b4:	e0bffb17 	ldw	r2,-20(fp)
    84b8:	14000b17 	ldw	r16,44(r2)
    84bc:	e0bffb17 	ldw	r2,-20(fp)
    84c0:	10801117 	ldw	r2,68(r2)
    84c4:	e0fffd17 	ldw	r3,-12(fp)
    84c8:	1880042e 	bgeu	r3,r2,84dc <alt_up_video_dma_draw_string+0x60>
    84cc:	e0bffb17 	ldw	r2,-20(fp)
    84d0:	10801217 	ldw	r2,72(r2)
    84d4:	e0fffe17 	ldw	r3,-8(fp)
    84d8:	18800236 	bltu	r3,r2,84e4 <alt_up_video_dma_draw_string+0x68>
    84dc:	00bfffc4 	movi	r2,-1
    84e0:	00007206 	br	86ac <alt_up_video_dma_draw_string+0x230>
    84e4:	e03ffa15 	stw	zero,-24(fp)
    84e8:	e0bffb17 	ldw	r2,-20(fp)
    84ec:	10801517 	ldw	r2,84(r2)
    84f0:	e0fffe17 	ldw	r3,-8(fp)
    84f4:	1886983a 	sll	r3,r3,r2
    84f8:	e0bffb17 	ldw	r2,-20(fp)
    84fc:	10801317 	ldw	r2,76(r2)
    8500:	e13ffd17 	ldw	r4,-12(fp)
    8504:	2084983a 	sll	r2,r4,r2
    8508:	1885883a 	add	r2,r3,r2
    850c:	e0bffa15 	stw	r2,-24(fp)
    8510:	e0bffb17 	ldw	r2,-20(fp)
    8514:	10801017 	ldw	r2,64(r2)
    8518:	10800058 	cmpnei	r2,r2,1
    851c:	1000201e 	bne	r2,zero,85a0 <alt_up_video_dma_draw_string+0x124>
    8520:	00001806 	br	8584 <alt_up_video_dma_draw_string+0x108>
    8524:	e0bffb17 	ldw	r2,-20(fp)
    8528:	10801117 	ldw	r2,68(r2)
    852c:	e0fffd17 	ldw	r3,-12(fp)
    8530:	18800236 	bltu	r3,r2,853c <alt_up_video_dma_draw_string+0xc0>
    8534:	00bfffc4 	movi	r2,-1
    8538:	00005c06 	br	86ac <alt_up_video_dma_draw_string+0x230>
    853c:	e0bffa17 	ldw	r2,-24(fp)
    8540:	8085883a 	add	r2,r16,r2
    8544:	1007883a 	mov	r3,r2
    8548:	e0bffc17 	ldw	r2,-16(fp)
    854c:	10800003 	ldbu	r2,0(r2)
    8550:	10803fcc 	andi	r2,r2,255
    8554:	1080201c 	xori	r2,r2,128
    8558:	10bfe004 	addi	r2,r2,-128
    855c:	18800025 	stbio	r2,0(r3)
    8560:	e0bffc17 	ldw	r2,-16(fp)
    8564:	10800044 	addi	r2,r2,1
    8568:	e0bffc15 	stw	r2,-16(fp)
    856c:	e0bffd17 	ldw	r2,-12(fp)
    8570:	10800044 	addi	r2,r2,1
    8574:	e0bffd15 	stw	r2,-12(fp)
    8578:	e0bffa17 	ldw	r2,-24(fp)
    857c:	10800044 	addi	r2,r2,1
    8580:	e0bffa15 	stw	r2,-24(fp)
    8584:	e0bffc17 	ldw	r2,-16(fp)
    8588:	10800003 	ldbu	r2,0(r2)
    858c:	10803fcc 	andi	r2,r2,255
    8590:	1080201c 	xori	r2,r2,128
    8594:	10bfe004 	addi	r2,r2,-128
    8598:	103fe21e 	bne	r2,zero,8524 <__alt_mem_VGA_Subsystem_Char_Buf_Subsystem_Onchip_SRAM+0xf7008524>
    859c:	00004206 	br	86a8 <alt_up_video_dma_draw_string+0x22c>
    85a0:	e0bffb17 	ldw	r2,-20(fp)
    85a4:	10801017 	ldw	r2,64(r2)
    85a8:	10800098 	cmpnei	r2,r2,2
    85ac:	1000381e 	bne	r2,zero,8690 <alt_up_video_dma_draw_string+0x214>
    85b0:	00001806 	br	8614 <alt_up_video_dma_draw_string+0x198>
    85b4:	e0bffb17 	ldw	r2,-20(fp)
    85b8:	10801117 	ldw	r2,68(r2)
    85bc:	e0fffd17 	ldw	r3,-12(fp)
    85c0:	18800236 	bltu	r3,r2,85cc <alt_up_video_dma_draw_string+0x150>
    85c4:	00bfffc4 	movi	r2,-1
    85c8:	00003806 	br	86ac <alt_up_video_dma_draw_string+0x230>
    85cc:	e0bffa17 	ldw	r2,-24(fp)
    85d0:	8085883a 	add	r2,r16,r2
    85d4:	1007883a 	mov	r3,r2
    85d8:	e0bffc17 	ldw	r2,-16(fp)
    85dc:	10800003 	ldbu	r2,0(r2)
    85e0:	10803fcc 	andi	r2,r2,255
    85e4:	1080201c 	xori	r2,r2,128
    85e8:	10bfe004 	addi	r2,r2,-128
    85ec:	1880002d 	sthio	r2,0(r3)
    85f0:	e0bffc17 	ldw	r2,-16(fp)
    85f4:	10800044 	addi	r2,r2,1
    85f8:	e0bffc15 	stw	r2,-16(fp)
    85fc:	e0bffd17 	ldw	r2,-12(fp)
    8600:	10800044 	addi	r2,r2,1
    8604:	e0bffd15 	stw	r2,-12(fp)
    8608:	e0bffa17 	ldw	r2,-24(fp)
    860c:	10800084 	addi	r2,r2,2
    8610:	e0bffa15 	stw	r2,-24(fp)
    8614:	e0bffc17 	ldw	r2,-16(fp)
    8618:	10800003 	ldbu	r2,0(r2)
    861c:	10803fcc 	andi	r2,r2,255
    8620:	1080201c 	xori	r2,r2,128
    8624:	10bfe004 	addi	r2,r2,-128
    8628:	103fe21e 	bne	r2,zero,85b4 <__alt_mem_VGA_Subsystem_Char_Buf_Subsystem_Onchip_SRAM+0xf70085b4>
    862c:	00001e06 	br	86a8 <alt_up_video_dma_draw_string+0x22c>
    8630:	e0bffb17 	ldw	r2,-20(fp)
    8634:	10801117 	ldw	r2,68(r2)
    8638:	e0fffd17 	ldw	r3,-12(fp)
    863c:	18800236 	bltu	r3,r2,8648 <alt_up_video_dma_draw_string+0x1cc>
    8640:	00bfffc4 	movi	r2,-1
    8644:	00001906 	br	86ac <alt_up_video_dma_draw_string+0x230>
    8648:	e0bffa17 	ldw	r2,-24(fp)
    864c:	8085883a 	add	r2,r16,r2
    8650:	1007883a 	mov	r3,r2
    8654:	e0bffc17 	ldw	r2,-16(fp)
    8658:	10800003 	ldbu	r2,0(r2)
    865c:	10803fcc 	andi	r2,r2,255
    8660:	1080201c 	xori	r2,r2,128
    8664:	10bfe004 	addi	r2,r2,-128
    8668:	18800025 	stbio	r2,0(r3)
    866c:	e0bffc17 	ldw	r2,-16(fp)
    8670:	10800044 	addi	r2,r2,1
    8674:	e0bffc15 	stw	r2,-16(fp)
    8678:	e0bffd17 	ldw	r2,-12(fp)
    867c:	10800044 	addi	r2,r2,1
    8680:	e0bffd15 	stw	r2,-12(fp)
    8684:	e0bffa17 	ldw	r2,-24(fp)
    8688:	10800104 	addi	r2,r2,4
    868c:	e0bffa15 	stw	r2,-24(fp)
    8690:	e0bffc17 	ldw	r2,-16(fp)
    8694:	10800003 	ldbu	r2,0(r2)
    8698:	10803fcc 	andi	r2,r2,255
    869c:	1080201c 	xori	r2,r2,128
    86a0:	10bfe004 	addi	r2,r2,-128
    86a4:	103fe21e 	bne	r2,zero,8630 <__alt_mem_VGA_Subsystem_Char_Buf_Subsystem_Onchip_SRAM+0xf7008630>
    86a8:	0005883a 	mov	r2,zero
    86ac:	e6ffff04 	addi	sp,fp,-4
    86b0:	df000117 	ldw	fp,4(sp)
    86b4:	dc000017 	ldw	r16,0(sp)
    86b8:	dec00204 	addi	sp,sp,8
    86bc:	f800283a 	ret

000086c0 <alt_up_video_dma_screen_clear>:
    86c0:	defffc04 	addi	sp,sp,-16
    86c4:	dfc00315 	stw	ra,12(sp)
    86c8:	df000215 	stw	fp,8(sp)
    86cc:	df000204 	addi	fp,sp,8
    86d0:	e13ffe15 	stw	r4,-8(fp)
    86d4:	e17fff15 	stw	r5,-4(fp)
    86d8:	e1bfff17 	ldw	r6,-4(fp)
    86dc:	000b883a 	mov	r5,zero
    86e0:	e13ffe17 	ldw	r4,-8(fp)
    86e4:	00087000 	call	8700 <alt_up_video_dma_screen_fill>
    86e8:	0001883a 	nop
    86ec:	e037883a 	mov	sp,fp
    86f0:	dfc00117 	ldw	ra,4(sp)
    86f4:	df000017 	ldw	fp,0(sp)
    86f8:	dec00204 	addi	sp,sp,8
    86fc:	f800283a 	ret

00008700 <alt_up_video_dma_screen_fill>:
    8700:	defff704 	addi	sp,sp,-36
    8704:	dfc00815 	stw	ra,32(sp)
    8708:	df000715 	stw	fp,28(sp)
    870c:	df000704 	addi	fp,sp,28
    8710:	e13ffd15 	stw	r4,-12(fp)
    8714:	e17ffe15 	stw	r5,-8(fp)
    8718:	e1bfff15 	stw	r6,-4(fp)
    871c:	e0bffd17 	ldw	r2,-12(fp)
    8720:	10801117 	ldw	r2,68(r2)
    8724:	10bfffc4 	addi	r2,r2,-1
    8728:	e0fffd17 	ldw	r3,-12(fp)
    872c:	18c01217 	ldw	r3,72(r3)
    8730:	18ffffc4 	addi	r3,r3,-1
    8734:	01000044 	movi	r4,1
    8738:	d9000315 	stw	r4,12(sp)
    873c:	e13fff17 	ldw	r4,-4(fp)
    8740:	d9000215 	stw	r4,8(sp)
    8744:	d8c00115 	stw	r3,4(sp)
    8748:	d8800015 	stw	r2,0(sp)
    874c:	000f883a 	mov	r7,zero
    8750:	000d883a 	mov	r6,zero
    8754:	e17ffe17 	ldw	r5,-8(fp)
    8758:	e13ffd17 	ldw	r4,-12(fp)
    875c:	0007ec40 	call	7ec4 <alt_up_video_dma_draw_box>
    8760:	0001883a 	nop
    8764:	e037883a 	mov	sp,fp
    8768:	dfc00117 	ldw	ra,4(sp)
    876c:	df000017 	ldw	fp,0(sp)
    8770:	dec00204 	addi	sp,sp,8
    8774:	f800283a 	ret

00008778 <alt_up_video_dma_draw_circle>:
    8778:	defff004 	addi	sp,sp,-64
    877c:	df000f15 	stw	fp,60(sp)
    8780:	ddc00e15 	stw	r23,56(sp)
    8784:	dd800d15 	stw	r22,52(sp)
    8788:	dd400c15 	stw	r21,48(sp)
    878c:	dd000b15 	stw	r20,44(sp)
    8790:	dcc00a15 	stw	r19,40(sp)
    8794:	dc800915 	stw	r18,36(sp)
    8798:	dc400815 	stw	r17,32(sp)
    879c:	dc000715 	stw	r16,28(sp)
    87a0:	df000f04 	addi	fp,sp,60
    87a4:	e13ff215 	stw	r4,-56(fp)
    87a8:	e17ff315 	stw	r5,-52(fp)
    87ac:	e1bff415 	stw	r6,-48(fp)
    87b0:	e1fff515 	stw	r7,-44(fp)
    87b4:	e1000117 	ldw	r4,4(fp)
    87b8:	217fffc4 	addi	r5,r4,-1
    87bc:	e17ff115 	stw	r5,-60(fp)
    87c0:	200b883a 	mov	r5,r4
    87c4:	2811883a 	mov	r8,r5
    87c8:	0013883a 	mov	r9,zero
    87cc:	400ad6fa 	srli	r5,r8,27
    87d0:	4806917a 	slli	r3,r9,5
    87d4:	28c6b03a 	or	r3,r5,r3
    87d8:	4004917a 	slli	r2,r8,5
    87dc:	e0bff217 	ldw	r2,-56(fp)
    87e0:	14c01117 	ldw	r19,68(r2)
    87e4:	e0bff217 	ldw	r2,-56(fp)
    87e8:	15401217 	ldw	r21,72(r2)
    87ec:	e53ff417 	ldw	r20,-48(fp)
    87f0:	e0c00117 	ldw	r3,4(fp)
    87f4:	e0bff417 	ldw	r2,-48(fp)
    87f8:	18a5883a 	add	r18,r3,r2
    87fc:	e47ff517 	ldw	r17,-44(fp)
    8800:	e0c00117 	ldw	r3,4(fp)
    8804:	e0bff517 	ldw	r2,-44(fp)
    8808:	18a1883a 	add	r16,r3,r2
    880c:	e0bff317 	ldw	r2,-52(fp)
    8810:	e0bff615 	stw	r2,-40(fp)
    8814:	002f883a 	mov	r23,zero
    8818:	002d883a 	mov	r22,zero
    881c:	9500032e 	bgeu	r18,r20,882c <alt_up_video_dma_draw_circle+0xb4>
    8820:	e53ff715 	stw	r20,-36(fp)
    8824:	9029883a 	mov	r20,r18
    8828:	e4bff717 	ldw	r18,-36(fp)
    882c:	8440032e 	bgeu	r16,r17,883c <alt_up_video_dma_draw_circle+0xc4>
    8830:	e47ff715 	stw	r17,-36(fp)
    8834:	8023883a 	mov	r17,r16
    8838:	e43ff717 	ldw	r16,-36(fp)
    883c:	a4c0012e 	bgeu	r20,r19,8844 <alt_up_video_dma_draw_circle+0xcc>
    8840:	8d400236 	bltu	r17,r21,884c <alt_up_video_dma_draw_circle+0xd4>
    8844:	00bfffc4 	movi	r2,-1
    8848:	0000a906 	br	8af0 <alt_up_video_dma_draw_circle+0x378>
    884c:	94c00136 	bltu	r18,r19,8854 <alt_up_video_dma_draw_circle+0xdc>
    8850:	9cbfffc4 	addi	r18,r19,-1
    8854:	85400136 	bltu	r16,r21,885c <alt_up_video_dma_draw_circle+0xe4>
    8858:	ac3fffc4 	addi	r16,r21,-1
    885c:	e0800317 	ldw	r2,12(fp)
    8860:	10800058 	cmpnei	r2,r2,1
    8864:	1000031e 	bne	r2,zero,8874 <alt_up_video_dma_draw_circle+0xfc>
    8868:	e0bff217 	ldw	r2,-56(fp)
    886c:	14000c17 	ldw	r16,48(r2)
    8870:	00000206 	br	887c <alt_up_video_dma_draw_circle+0x104>
    8874:	e0bff217 	ldw	r2,-56(fp)
    8878:	14000b17 	ldw	r16,44(r2)
    887c:	e0bff217 	ldw	r2,-56(fp)
    8880:	10800d17 	ldw	r2,52(r2)
    8884:	1000571e 	bne	r2,zero,89e4 <alt_up_video_dma_draw_circle+0x26c>
    8888:	e0bff217 	ldw	r2,-56(fp)
    888c:	15401517 	ldw	r21,84(r2)
    8890:	8d44983a 	sll	r2,r17,r21
    8894:	80a1883a 	add	r16,r16,r2
    8898:	e0bff217 	ldw	r2,-56(fp)
    889c:	10801017 	ldw	r2,64(r2)
    88a0:	10800058 	cmpnei	r2,r2,1
    88a4:	1000131e 	bne	r2,zero,88f4 <alt_up_video_dma_draw_circle+0x17c>
    88a8:	8827883a 	mov	r19,r17
    88ac:	00000d06 	br	88e4 <alt_up_video_dma_draw_circle+0x16c>
    88b0:	a025883a 	mov	r18,r20
    88b4:	00000406 	br	88c8 <alt_up_video_dma_draw_circle+0x150>
    88b8:	9405883a 	add	r2,r18,r16
    88bc:	e0fff617 	ldw	r3,-40(fp)
    88c0:	10c00025 	stbio	r3,0(r2)
    88c4:	94800044 	addi	r18,r18,1
    88c8:	e0800117 	ldw	r2,4(fp)
    88cc:	a085883a 	add	r2,r20,r2
    88d0:	14bff92e 	bgeu	r2,r18,88b8 <__alt_mem_VGA_Subsystem_Char_Buf_Subsystem_Onchip_SRAM+0xf70088b8>
    88d4:	00800044 	movi	r2,1
    88d8:	1544983a 	sll	r2,r2,r21
    88dc:	80a1883a 	add	r16,r16,r2
    88e0:	9cc00044 	addi	r19,r19,1
    88e4:	e0800117 	ldw	r2,4(fp)
    88e8:	8885883a 	add	r2,r17,r2
    88ec:	14fff02e 	bgeu	r2,r19,88b0 <__alt_mem_VGA_Subsystem_Char_Buf_Subsystem_Onchip_SRAM+0xf70088b0>
    88f0:	00007e06 	br	8aec <alt_up_video_dma_draw_circle+0x374>
    88f4:	e0bff217 	ldw	r2,-56(fp)
    88f8:	10801017 	ldw	r2,64(r2)
    88fc:	10800098 	cmpnei	r2,r2,2
    8900:	1000251e 	bne	r2,zero,8998 <alt_up_video_dma_draw_circle+0x220>
    8904:	8827883a 	mov	r19,r17
    8908:	00001e06 	br	8984 <alt_up_video_dma_draw_circle+0x20c>
    890c:	a025883a 	mov	r18,r20
    8910:	00001206 	br	895c <alt_up_video_dma_draw_circle+0x1e4>
    8914:	2005883a 	mov	r2,r4
    8918:	15c5383a 	mul	r2,r2,r23
    891c:	1085883a 	add	r2,r2,r2
    8920:	1085883a 	add	r2,r2,r2
    8924:	1007883a 	mov	r3,r2
    8928:	e0800217 	ldw	r2,8(fp)
    892c:	10c7883a 	add	r3,r2,r3
    8930:	b585883a 	add	r2,r22,r22
    8934:	1085883a 	add	r2,r2,r2
    8938:	1885883a 	add	r2,r3,r2
    893c:	10800017 	ldw	r2,0(r2)
    8940:	10000426 	beq	r2,zero,8954 <alt_up_video_dma_draw_circle+0x1dc>
    8944:	9485883a 	add	r2,r18,r18
    8948:	1405883a 	add	r2,r2,r16
    894c:	e0fff617 	ldw	r3,-40(fp)
    8950:	10c0002d 	sthio	r3,0(r2)
    8954:	bdc00044 	addi	r23,r23,1
    8958:	94800044 	addi	r18,r18,1
    895c:	e0800117 	ldw	r2,4(fp)
    8960:	a085883a 	add	r2,r20,r2
    8964:	10bfffc4 	addi	r2,r2,-1
    8968:	14bfea2e 	bgeu	r2,r18,8914 <__alt_mem_VGA_Subsystem_Char_Buf_Subsystem_Onchip_SRAM+0xf7008914>
    896c:	00800044 	movi	r2,1
    8970:	1544983a 	sll	r2,r2,r21
    8974:	80a1883a 	add	r16,r16,r2
    8978:	002f883a 	mov	r23,zero
    897c:	b5800044 	addi	r22,r22,1
    8980:	9cc00044 	addi	r19,r19,1
    8984:	e0800117 	ldw	r2,4(fp)
    8988:	8885883a 	add	r2,r17,r2
    898c:	10bfffc4 	addi	r2,r2,-1
    8990:	14ffde2e 	bgeu	r2,r19,890c <__alt_mem_VGA_Subsystem_Char_Buf_Subsystem_Onchip_SRAM+0xf700890c>
    8994:	00005506 	br	8aec <alt_up_video_dma_draw_circle+0x374>
    8998:	8827883a 	mov	r19,r17
    899c:	00000e06 	br	89d8 <alt_up_video_dma_draw_circle+0x260>
    89a0:	a025883a 	mov	r18,r20
    89a4:	00000606 	br	89c0 <alt_up_video_dma_draw_circle+0x248>
    89a8:	9485883a 	add	r2,r18,r18
    89ac:	1085883a 	add	r2,r2,r2
    89b0:	1405883a 	add	r2,r2,r16
    89b4:	e0fff617 	ldw	r3,-40(fp)
    89b8:	10c00035 	stwio	r3,0(r2)
    89bc:	94800044 	addi	r18,r18,1
    89c0:	a08000c4 	addi	r2,r20,3
    89c4:	14bff82e 	bgeu	r2,r18,89a8 <__alt_mem_VGA_Subsystem_Char_Buf_Subsystem_Onchip_SRAM+0xf70089a8>
    89c8:	00800044 	movi	r2,1
    89cc:	1544983a 	sll	r2,r2,r21
    89d0:	80a1883a 	add	r16,r16,r2
    89d4:	9cc00044 	addi	r19,r19,1
    89d8:	888000c4 	addi	r2,r17,3
    89dc:	14fff02e 	bgeu	r2,r19,89a0 <__alt_mem_VGA_Subsystem_Char_Buf_Subsystem_Onchip_SRAM+0xf70089a0>
    89e0:	00004206 	br	8aec <alt_up_video_dma_draw_circle+0x374>
    89e4:	e0bff217 	ldw	r2,-56(fp)
    89e8:	10801017 	ldw	r2,64(r2)
    89ec:	10800058 	cmpnei	r2,r2,1
    89f0:	1000111e 	bne	r2,zero,8a38 <alt_up_video_dma_draw_circle+0x2c0>
    89f4:	8cc5383a 	mul	r2,r17,r19
    89f8:	80a1883a 	add	r16,r16,r2
    89fc:	882b883a 	mov	r21,r17
    8a00:	00000a06 	br	8a2c <alt_up_video_dma_draw_circle+0x2b4>
    8a04:	a025883a 	mov	r18,r20
    8a08:	00000406 	br	8a1c <alt_up_video_dma_draw_circle+0x2a4>
    8a0c:	9405883a 	add	r2,r18,r16
    8a10:	e0fff617 	ldw	r3,-40(fp)
    8a14:	10c00025 	stbio	r3,0(r2)
    8a18:	94800044 	addi	r18,r18,1
    8a1c:	a08000c4 	addi	r2,r20,3
    8a20:	14bffa2e 	bgeu	r2,r18,8a0c <__alt_mem_VGA_Subsystem_Char_Buf_Subsystem_Onchip_SRAM+0xf7008a0c>
    8a24:	84e1883a 	add	r16,r16,r19
    8a28:	ad400044 	addi	r21,r21,1
    8a2c:	888000c4 	addi	r2,r17,3
    8a30:	157ff42e 	bgeu	r2,r21,8a04 <__alt_mem_VGA_Subsystem_Char_Buf_Subsystem_Onchip_SRAM+0xf7008a04>
    8a34:	00002d06 	br	8aec <alt_up_video_dma_draw_circle+0x374>
    8a38:	e0bff217 	ldw	r2,-56(fp)
    8a3c:	10801017 	ldw	r2,64(r2)
    8a40:	10800098 	cmpnei	r2,r2,2
    8a44:	1000141e 	bne	r2,zero,8a98 <alt_up_video_dma_draw_circle+0x320>
    8a48:	9cc5883a 	add	r2,r19,r19
    8a4c:	1027883a 	mov	r19,r2
    8a50:	8cc5383a 	mul	r2,r17,r19
    8a54:	80a1883a 	add	r16,r16,r2
    8a58:	882b883a 	mov	r21,r17
    8a5c:	00000b06 	br	8a8c <alt_up_video_dma_draw_circle+0x314>
    8a60:	a025883a 	mov	r18,r20
    8a64:	00000506 	br	8a7c <alt_up_video_dma_draw_circle+0x304>
    8a68:	9485883a 	add	r2,r18,r18
    8a6c:	1405883a 	add	r2,r2,r16
    8a70:	e0fff617 	ldw	r3,-40(fp)
    8a74:	10c0002d 	sthio	r3,0(r2)
    8a78:	94800044 	addi	r18,r18,1
    8a7c:	a08000c4 	addi	r2,r20,3
    8a80:	14bff92e 	bgeu	r2,r18,8a68 <__alt_mem_VGA_Subsystem_Char_Buf_Subsystem_Onchip_SRAM+0xf7008a68>
    8a84:	84e1883a 	add	r16,r16,r19
    8a88:	ad400044 	addi	r21,r21,1
    8a8c:	888000c4 	addi	r2,r17,3
    8a90:	157ff32e 	bgeu	r2,r21,8a60 <__alt_mem_VGA_Subsystem_Char_Buf_Subsystem_Onchip_SRAM+0xf7008a60>
    8a94:	00001506 	br	8aec <alt_up_video_dma_draw_circle+0x374>
    8a98:	9cc5883a 	add	r2,r19,r19
    8a9c:	1085883a 	add	r2,r2,r2
    8aa0:	1027883a 	mov	r19,r2
    8aa4:	8cc5383a 	mul	r2,r17,r19
    8aa8:	80a1883a 	add	r16,r16,r2
    8aac:	882b883a 	mov	r21,r17
    8ab0:	00000c06 	br	8ae4 <alt_up_video_dma_draw_circle+0x36c>
    8ab4:	a025883a 	mov	r18,r20
    8ab8:	00000606 	br	8ad4 <alt_up_video_dma_draw_circle+0x35c>
    8abc:	9485883a 	add	r2,r18,r18
    8ac0:	1085883a 	add	r2,r2,r2
    8ac4:	1405883a 	add	r2,r2,r16
    8ac8:	e0fff617 	ldw	r3,-40(fp)
    8acc:	10c00035 	stwio	r3,0(r2)
    8ad0:	94800044 	addi	r18,r18,1
    8ad4:	a08000c4 	addi	r2,r20,3
    8ad8:	14bff82e 	bgeu	r2,r18,8abc <__alt_mem_VGA_Subsystem_Char_Buf_Subsystem_Onchip_SRAM+0xf7008abc>
    8adc:	84e1883a 	add	r16,r16,r19
    8ae0:	ad400044 	addi	r21,r21,1
    8ae4:	888000c4 	addi	r2,r17,3
    8ae8:	157ff22e 	bgeu	r2,r21,8ab4 <__alt_mem_VGA_Subsystem_Char_Buf_Subsystem_Onchip_SRAM+0xf7008ab4>
    8aec:	0005883a 	mov	r2,zero
    8af0:	e6fff804 	addi	sp,fp,-32
    8af4:	df000817 	ldw	fp,32(sp)
    8af8:	ddc00717 	ldw	r23,28(sp)
    8afc:	dd800617 	ldw	r22,24(sp)
    8b00:	dd400517 	ldw	r21,20(sp)
    8b04:	dd000417 	ldw	r20,16(sp)
    8b08:	dcc00317 	ldw	r19,12(sp)
    8b0c:	dc800217 	ldw	r18,8(sp)
    8b10:	dc400117 	ldw	r17,4(sp)
    8b14:	dc000017 	ldw	r16,0(sp)
    8b18:	dec00904 	addi	sp,sp,36
    8b1c:	f800283a 	ret

00008b20 <alt_up_video_dma_draw_hline>:
    8b20:	defffc04 	addi	sp,sp,-16
    8b24:	df000315 	stw	fp,12(sp)
    8b28:	dc400215 	stw	r17,8(sp)
    8b2c:	dc000115 	stw	r16,4(sp)
    8b30:	df000304 	addi	fp,sp,12
    8b34:	e13ffd15 	stw	r4,-12(fp)
    8b38:	3805883a 	mov	r2,r7
    8b3c:	e1000117 	ldw	r4,4(fp)
    8b40:	0023883a 	mov	r17,zero
    8b44:	e0c00217 	ldw	r3,8(fp)
    8b48:	18c00058 	cmpnei	r3,r3,1
    8b4c:	1800031e 	bne	r3,zero,8b5c <alt_up_video_dma_draw_hline+0x3c>
    8b50:	e0fffd17 	ldw	r3,-12(fp)
    8b54:	1c400c17 	ldw	r17,48(r3)
    8b58:	00000206 	br	8b64 <alt_up_video_dma_draw_hline+0x44>
    8b5c:	e0fffd17 	ldw	r3,-12(fp)
    8b60:	1c400b17 	ldw	r17,44(r3)
    8b64:	e0fffd17 	ldw	r3,-12(fp)
    8b68:	18c00d17 	ldw	r3,52(r3)
    8b6c:	1800051e 	bne	r3,zero,8b84 <alt_up_video_dma_draw_hline+0x64>
    8b70:	e0fffd17 	ldw	r3,-12(fp)
    8b74:	18c01517 	ldw	r3,84(r3)
    8b78:	20c6983a 	sll	r3,r4,r3
    8b7c:	88e3883a 	add	r17,r17,r3
    8b80:	00000706 	br	8ba0 <alt_up_video_dma_draw_hline+0x80>
    8b84:	e0fffd17 	ldw	r3,-12(fp)
    8b88:	18c01117 	ldw	r3,68(r3)
    8b8c:	1909383a 	mul	r4,r3,r4
    8b90:	e0fffd17 	ldw	r3,-12(fp)
    8b94:	18c01317 	ldw	r3,76(r3)
    8b98:	20c6983a 	sll	r3,r4,r3
    8b9c:	88e3883a 	add	r17,r17,r3
    8ba0:	e0fffd17 	ldw	r3,-12(fp)
    8ba4:	18c01017 	ldw	r3,64(r3)
    8ba8:	18c00058 	cmpnei	r3,r3,1
    8bac:	1800081e 	bne	r3,zero,8bd0 <alt_up_video_dma_draw_hline+0xb0>
    8bb0:	3021883a 	mov	r16,r6
    8bb4:	00000406 	br	8bc8 <alt_up_video_dma_draw_hline+0xa8>
    8bb8:	8447883a 	add	r3,r16,r17
    8bbc:	2809883a 	mov	r4,r5
    8bc0:	19000025 	stbio	r4,0(r3)
    8bc4:	84000044 	addi	r16,r16,1
    8bc8:	143ffb2e 	bgeu	r2,r16,8bb8 <__alt_mem_VGA_Subsystem_Char_Buf_Subsystem_Onchip_SRAM+0xf7008bb8>
    8bcc:	00001606 	br	8c28 <alt_up_video_dma_draw_hline+0x108>
    8bd0:	e0fffd17 	ldw	r3,-12(fp)
    8bd4:	18c01017 	ldw	r3,64(r3)
    8bd8:	18c00098 	cmpnei	r3,r3,2
    8bdc:	1800091e 	bne	r3,zero,8c04 <alt_up_video_dma_draw_hline+0xe4>
    8be0:	3021883a 	mov	r16,r6
    8be4:	00000506 	br	8bfc <alt_up_video_dma_draw_hline+0xdc>
    8be8:	8407883a 	add	r3,r16,r16
    8bec:	1c47883a 	add	r3,r3,r17
    8bf0:	2809883a 	mov	r4,r5
    8bf4:	1900002d 	sthio	r4,0(r3)
    8bf8:	84000044 	addi	r16,r16,1
    8bfc:	143ffa2e 	bgeu	r2,r16,8be8 <__alt_mem_VGA_Subsystem_Char_Buf_Subsystem_Onchip_SRAM+0xf7008be8>
    8c00:	00000906 	br	8c28 <alt_up_video_dma_draw_hline+0x108>
    8c04:	3021883a 	mov	r16,r6
    8c08:	00000606 	br	8c24 <alt_up_video_dma_draw_hline+0x104>
    8c0c:	8407883a 	add	r3,r16,r16
    8c10:	18c7883a 	add	r3,r3,r3
    8c14:	1c47883a 	add	r3,r3,r17
    8c18:	2809883a 	mov	r4,r5
    8c1c:	19000035 	stwio	r4,0(r3)
    8c20:	84000044 	addi	r16,r16,1
    8c24:	143ff92e 	bgeu	r2,r16,8c0c <__alt_mem_VGA_Subsystem_Char_Buf_Subsystem_Onchip_SRAM+0xf7008c0c>
    8c28:	0001883a 	nop
    8c2c:	e6fffe04 	addi	sp,fp,-8
    8c30:	df000217 	ldw	fp,8(sp)
    8c34:	dc400117 	ldw	r17,4(sp)
    8c38:	dc000017 	ldw	r16,0(sp)
    8c3c:	dec00304 	addi	sp,sp,12
    8c40:	f800283a 	ret

00008c44 <alt_up_video_dma_draw_vline>:
    8c44:	defffa04 	addi	sp,sp,-24
    8c48:	df000515 	stw	fp,20(sp)
    8c4c:	dcc00415 	stw	r19,16(sp)
    8c50:	dc800315 	stw	r18,12(sp)
    8c54:	dc400215 	stw	r17,8(sp)
    8c58:	dc000115 	stw	r16,4(sp)
    8c5c:	df000504 	addi	fp,sp,20
    8c60:	e13ffb15 	stw	r4,-20(fp)
    8c64:	2811883a 	mov	r8,r5
    8c68:	300b883a 	mov	r5,r6
    8c6c:	3807883a 	mov	r3,r7
    8c70:	e0800117 	ldw	r2,4(fp)
    8c74:	0023883a 	mov	r17,zero
    8c78:	0025883a 	mov	r18,zero
    8c7c:	e1000217 	ldw	r4,8(fp)
    8c80:	21000058 	cmpnei	r4,r4,1
    8c84:	2000031e 	bne	r4,zero,8c94 <alt_up_video_dma_draw_vline+0x50>
    8c88:	e13ffb17 	ldw	r4,-20(fp)
    8c8c:	24400c17 	ldw	r17,48(r4)
    8c90:	00000206 	br	8c9c <alt_up_video_dma_draw_vline+0x58>
    8c94:	e13ffb17 	ldw	r4,-20(fp)
    8c98:	24400b17 	ldw	r17,44(r4)
    8c9c:	e13ffb17 	ldw	r4,-20(fp)
    8ca0:	21001317 	ldw	r4,76(r4)
    8ca4:	2908983a 	sll	r4,r5,r4
    8ca8:	8923883a 	add	r17,r17,r4
    8cac:	e13ffb17 	ldw	r4,-20(fp)
    8cb0:	21000d17 	ldw	r4,52(r4)
    8cb4:	2000061e 	bne	r4,zero,8cd0 <alt_up_video_dma_draw_vline+0x8c>
    8cb8:	e13ffb17 	ldw	r4,-20(fp)
    8cbc:	21001517 	ldw	r4,84(r4)
    8cc0:	01400044 	movi	r5,1
    8cc4:	2908983a 	sll	r4,r5,r4
    8cc8:	2027883a 	mov	r19,r4
    8ccc:	00000506 	br	8ce4 <alt_up_video_dma_draw_vline+0xa0>
    8cd0:	e13ffb17 	ldw	r4,-20(fp)
    8cd4:	21401117 	ldw	r5,68(r4)
    8cd8:	e13ffb17 	ldw	r4,-20(fp)
    8cdc:	21001317 	ldw	r4,76(r4)
    8ce0:	2926983a 	sll	r19,r5,r4
    8ce4:	1cc9383a 	mul	r4,r3,r19
    8ce8:	8923883a 	add	r17,r17,r4
    8cec:	e13ffb17 	ldw	r4,-20(fp)
    8cf0:	21001017 	ldw	r4,64(r4)
    8cf4:	21000058 	cmpnei	r4,r4,1
    8cf8:	2000091e 	bne	r4,zero,8d20 <alt_up_video_dma_draw_vline+0xdc>
    8cfc:	1821883a 	mov	r16,r3
    8d00:	00000506 	br	8d18 <alt_up_video_dma_draw_vline+0xd4>
    8d04:	9447883a 	add	r3,r18,r17
    8d08:	4009883a 	mov	r4,r8
    8d0c:	19000025 	stbio	r4,0(r3)
    8d10:	94e5883a 	add	r18,r18,r19
    8d14:	84000044 	addi	r16,r16,1
    8d18:	143ffa2e 	bgeu	r2,r16,8d04 <__alt_mem_VGA_Subsystem_Char_Buf_Subsystem_Onchip_SRAM+0xf7008d04>
    8d1c:	00001506 	br	8d74 <alt_up_video_dma_draw_vline+0x130>
    8d20:	e13ffb17 	ldw	r4,-20(fp)
    8d24:	21001017 	ldw	r4,64(r4)
    8d28:	21000098 	cmpnei	r4,r4,2
    8d2c:	2000091e 	bne	r4,zero,8d54 <alt_up_video_dma_draw_vline+0x110>
    8d30:	1821883a 	mov	r16,r3
    8d34:	00000506 	br	8d4c <alt_up_video_dma_draw_vline+0x108>
    8d38:	9447883a 	add	r3,r18,r17
    8d3c:	4009883a 	mov	r4,r8
    8d40:	1900002d 	sthio	r4,0(r3)
    8d44:	94e5883a 	add	r18,r18,r19
    8d48:	84000044 	addi	r16,r16,1
    8d4c:	143ffa2e 	bgeu	r2,r16,8d38 <__alt_mem_VGA_Subsystem_Char_Buf_Subsystem_Onchip_SRAM+0xf7008d38>
    8d50:	00000806 	br	8d74 <alt_up_video_dma_draw_vline+0x130>
    8d54:	1821883a 	mov	r16,r3
    8d58:	00000506 	br	8d70 <alt_up_video_dma_draw_vline+0x12c>
    8d5c:	9447883a 	add	r3,r18,r17
    8d60:	4009883a 	mov	r4,r8
    8d64:	19000035 	stwio	r4,0(r3)
    8d68:	94e5883a 	add	r18,r18,r19
    8d6c:	84000044 	addi	r16,r16,1
    8d70:	143ffa2e 	bgeu	r2,r16,8d5c <__alt_mem_VGA_Subsystem_Char_Buf_Subsystem_Onchip_SRAM+0xf7008d5c>
    8d74:	0001883a 	nop
    8d78:	e6fffc04 	addi	sp,fp,-16
    8d7c:	df000417 	ldw	fp,16(sp)
    8d80:	dcc00317 	ldw	r19,12(sp)
    8d84:	dc800217 	ldw	r18,8(sp)
    8d88:	dc400117 	ldw	r17,4(sp)
    8d8c:	dc000017 	ldw	r16,0(sp)
    8d90:	dec00504 	addi	sp,sp,20
    8d94:	f800283a 	ret

00008d98 <alt_up_video_dma_draw_rectangle>:
    8d98:	defff704 	addi	sp,sp,-36
    8d9c:	dfc00815 	stw	ra,32(sp)
    8da0:	df000715 	stw	fp,28(sp)
    8da4:	dcc00615 	stw	r19,24(sp)
    8da8:	dc800515 	stw	r18,20(sp)
    8dac:	dc400415 	stw	r17,16(sp)
    8db0:	dc000315 	stw	r16,12(sp)
    8db4:	df000704 	addi	fp,sp,28
    8db8:	e13ffb15 	stw	r4,-20(fp)
    8dbc:	2825883a 	mov	r18,r5
    8dc0:	3027883a 	mov	r19,r6
    8dc4:	3823883a 	mov	r17,r7
    8dc8:	e4000317 	ldw	r16,12(fp)
    8dcc:	e0800417 	ldw	r2,16(fp)
    8dd0:	d8800115 	stw	r2,4(sp)
    8dd4:	dc400015 	stw	r17,0(sp)
    8dd8:	e1c00217 	ldw	r7,8(fp)
    8ddc:	980d883a 	mov	r6,r19
    8de0:	900b883a 	mov	r5,r18
    8de4:	e13ffb17 	ldw	r4,-20(fp)
    8de8:	0008b200 	call	8b20 <alt_up_video_dma_draw_hline>
    8dec:	e0800417 	ldw	r2,16(fp)
    8df0:	d8800115 	stw	r2,4(sp)
    8df4:	dc000015 	stw	r16,0(sp)
    8df8:	e1c00217 	ldw	r7,8(fp)
    8dfc:	980d883a 	mov	r6,r19
    8e00:	900b883a 	mov	r5,r18
    8e04:	e13ffb17 	ldw	r4,-20(fp)
    8e08:	0008b200 	call	8b20 <alt_up_video_dma_draw_hline>
    8e0c:	e0800417 	ldw	r2,16(fp)
    8e10:	d8800115 	stw	r2,4(sp)
    8e14:	dc000015 	stw	r16,0(sp)
    8e18:	880f883a 	mov	r7,r17
    8e1c:	980d883a 	mov	r6,r19
    8e20:	900b883a 	mov	r5,r18
    8e24:	e13ffb17 	ldw	r4,-20(fp)
    8e28:	0008c440 	call	8c44 <alt_up_video_dma_draw_vline>
    8e2c:	e0800417 	ldw	r2,16(fp)
    8e30:	d8800115 	stw	r2,4(sp)
    8e34:	dc000015 	stw	r16,0(sp)
    8e38:	880f883a 	mov	r7,r17
    8e3c:	e1800217 	ldw	r6,8(fp)
    8e40:	900b883a 	mov	r5,r18
    8e44:	e13ffb17 	ldw	r4,-20(fp)
    8e48:	0008c440 	call	8c44 <alt_up_video_dma_draw_vline>
    8e4c:	0001883a 	nop
    8e50:	e6fffc04 	addi	sp,fp,-16
    8e54:	dfc00517 	ldw	ra,20(sp)
    8e58:	df000417 	ldw	fp,16(sp)
    8e5c:	dcc00317 	ldw	r19,12(sp)
    8e60:	dc800217 	ldw	r18,8(sp)
    8e64:	dc400117 	ldw	r17,4(sp)
    8e68:	dc000017 	ldw	r16,0(sp)
    8e6c:	dec00604 	addi	sp,sp,24
    8e70:	f800283a 	ret

00008e74 <alt_up_video_dma_draw_helper>:
    8e74:	deffff04 	addi	sp,sp,-4
    8e78:	df000015 	stw	fp,0(sp)
    8e7c:	d839883a 	mov	fp,sp
    8e80:	2005883a 	mov	r2,r4
    8e84:	2807883a 	mov	r3,r5
    8e88:	3809883a 	mov	r4,r7
    8e8c:	21400058 	cmpnei	r5,r4,1
    8e90:	2800041e 	bne	r5,zero,8ea4 <alt_up_video_dma_draw_helper+0x30>
    8e94:	1885883a 	add	r2,r3,r2
    8e98:	3007883a 	mov	r3,r6
    8e9c:	10c00025 	stbio	r3,0(r2)
    8ea0:	00000906 	br	8ec8 <alt_up_video_dma_draw_helper+0x54>
    8ea4:	21000098 	cmpnei	r4,r4,2
    8ea8:	2000041e 	bne	r4,zero,8ebc <alt_up_video_dma_draw_helper+0x48>
    8eac:	1885883a 	add	r2,r3,r2
    8eb0:	3007883a 	mov	r3,r6
    8eb4:	10c0002d 	sthio	r3,0(r2)
    8eb8:	00000306 	br	8ec8 <alt_up_video_dma_draw_helper+0x54>
    8ebc:	1885883a 	add	r2,r3,r2
    8ec0:	3007883a 	mov	r3,r6
    8ec4:	10c00035 	stwio	r3,0(r2)
    8ec8:	0001883a 	nop
    8ecc:	e037883a 	mov	sp,fp
    8ed0:	df000017 	ldw	fp,0(sp)
    8ed4:	dec00104 	addi	sp,sp,4
    8ed8:	f800283a 	ret

00008edc <alt_up_video_dma_read_helper>:
    8edc:	deffff04 	addi	sp,sp,-4
    8ee0:	df000015 	stw	fp,0(sp)
    8ee4:	d839883a 	mov	fp,sp
    8ee8:	2005883a 	mov	r2,r4
    8eec:	2807883a 	mov	r3,r5
    8ef0:	3009883a 	mov	r4,r6
    8ef4:	21400058 	cmpnei	r5,r4,1
    8ef8:	2800041e 	bne	r5,zero,8f0c <alt_up_video_dma_read_helper+0x30>
    8efc:	1885883a 	add	r2,r3,r2
    8f00:	10800023 	ldbuio	r2,0(r2)
    8f04:	10803fcc 	andi	r2,r2,255
    8f08:	00000806 	br	8f2c <alt_up_video_dma_read_helper+0x50>
    8f0c:	21000098 	cmpnei	r4,r4,2
    8f10:	2000041e 	bne	r4,zero,8f24 <alt_up_video_dma_read_helper+0x48>
    8f14:	1885883a 	add	r2,r3,r2
    8f18:	1080002b 	ldhuio	r2,0(r2)
    8f1c:	10bfffcc 	andi	r2,r2,65535
    8f20:	00000206 	br	8f2c <alt_up_video_dma_read_helper+0x50>
    8f24:	1885883a 	add	r2,r3,r2
    8f28:	10800037 	ldwio	r2,0(r2)
    8f2c:	e037883a 	mov	sp,fp
    8f30:	df000017 	ldw	fp,0(sp)
    8f34:	dec00104 	addi	sp,sp,4
    8f38:	f800283a 	ret

00008f3c <alt_alarm_start>:
    8f3c:	defff504 	addi	sp,sp,-44
    8f40:	df000a15 	stw	fp,40(sp)
    8f44:	df000a04 	addi	fp,sp,40
    8f48:	e13ffc15 	stw	r4,-16(fp)
    8f4c:	e17ffd15 	stw	r5,-12(fp)
    8f50:	e1bffe15 	stw	r6,-8(fp)
    8f54:	e1ffff15 	stw	r7,-4(fp)
    8f58:	e03ff615 	stw	zero,-40(fp)
    8f5c:	d0a78e17 	ldw	r2,-25032(gp)
    8f60:	10003c26 	beq	r2,zero,9054 <alt_alarm_start+0x118>
    8f64:	e0bffc17 	ldw	r2,-16(fp)
    8f68:	10003826 	beq	r2,zero,904c <alt_alarm_start+0x110>
    8f6c:	e0bffc17 	ldw	r2,-16(fp)
    8f70:	e0fffe17 	ldw	r3,-8(fp)
    8f74:	10c00315 	stw	r3,12(r2)
    8f78:	e0bffc17 	ldw	r2,-16(fp)
    8f7c:	e0ffff17 	ldw	r3,-4(fp)
    8f80:	10c00515 	stw	r3,20(r2)
    8f84:	0005303a 	rdctl	r2,status
    8f88:	e0bff915 	stw	r2,-28(fp)
    8f8c:	e0fff917 	ldw	r3,-28(fp)
    8f90:	00bfff84 	movi	r2,-2
    8f94:	1884703a 	and	r2,r3,r2
    8f98:	1001703a 	wrctl	status,r2
    8f9c:	e0bff917 	ldw	r2,-28(fp)
    8fa0:	e0bff815 	stw	r2,-32(fp)
    8fa4:	d0a78f17 	ldw	r2,-25028(gp)
    8fa8:	e0bff615 	stw	r2,-40(fp)
    8fac:	e0fffd17 	ldw	r3,-12(fp)
    8fb0:	e0bff617 	ldw	r2,-40(fp)
    8fb4:	1885883a 	add	r2,r3,r2
    8fb8:	10c00044 	addi	r3,r2,1
    8fbc:	e0bffc17 	ldw	r2,-16(fp)
    8fc0:	10c00215 	stw	r3,8(r2)
    8fc4:	e0bffc17 	ldw	r2,-16(fp)
    8fc8:	10c00217 	ldw	r3,8(r2)
    8fcc:	e0bff617 	ldw	r2,-40(fp)
    8fd0:	1880042e 	bgeu	r3,r2,8fe4 <alt_alarm_start+0xa8>
    8fd4:	e0bffc17 	ldw	r2,-16(fp)
    8fd8:	00c00044 	movi	r3,1
    8fdc:	10c00405 	stb	r3,16(r2)
    8fe0:	00000206 	br	8fec <alt_alarm_start+0xb0>
    8fe4:	e0bffc17 	ldw	r2,-16(fp)
    8fe8:	10000405 	stb	zero,16(r2)
    8fec:	e0bffc17 	ldw	r2,-16(fp)
    8ff0:	d0e00d04 	addi	r3,gp,-32716
    8ff4:	e0fffa15 	stw	r3,-24(fp)
    8ff8:	e0bffb15 	stw	r2,-20(fp)
    8ffc:	e0bffb17 	ldw	r2,-20(fp)
    9000:	e0fffa17 	ldw	r3,-24(fp)
    9004:	10c00115 	stw	r3,4(r2)
    9008:	e0bffa17 	ldw	r2,-24(fp)
    900c:	10c00017 	ldw	r3,0(r2)
    9010:	e0bffb17 	ldw	r2,-20(fp)
    9014:	10c00015 	stw	r3,0(r2)
    9018:	e0bffa17 	ldw	r2,-24(fp)
    901c:	10800017 	ldw	r2,0(r2)
    9020:	e0fffb17 	ldw	r3,-20(fp)
    9024:	10c00115 	stw	r3,4(r2)
    9028:	e0bffa17 	ldw	r2,-24(fp)
    902c:	e0fffb17 	ldw	r3,-20(fp)
    9030:	10c00015 	stw	r3,0(r2)
    9034:	e0bff817 	ldw	r2,-32(fp)
    9038:	e0bff715 	stw	r2,-36(fp)
    903c:	e0bff717 	ldw	r2,-36(fp)
    9040:	1001703a 	wrctl	status,r2
    9044:	0005883a 	mov	r2,zero
    9048:	00000306 	br	9058 <alt_alarm_start+0x11c>
    904c:	00bffa84 	movi	r2,-22
    9050:	00000106 	br	9058 <alt_alarm_start+0x11c>
    9054:	00bfde84 	movi	r2,-134
    9058:	e037883a 	mov	sp,fp
    905c:	df000017 	ldw	fp,0(sp)
    9060:	dec00104 	addi	sp,sp,4
    9064:	f800283a 	ret

00009068 <alt_get_errno>:
    9068:	defffe04 	addi	sp,sp,-8
    906c:	dfc00115 	stw	ra,4(sp)
    9070:	df000015 	stw	fp,0(sp)
    9074:	d839883a 	mov	fp,sp
    9078:	d0a00c17 	ldw	r2,-32720(gp)
    907c:	10000326 	beq	r2,zero,908c <alt_get_errno+0x24>
    9080:	d0a00c17 	ldw	r2,-32720(gp)
    9084:	103ee83a 	callr	r2
    9088:	00000106 	br	9090 <alt_get_errno+0x28>
    908c:	d0a79104 	addi	r2,gp,-25020
    9090:	e037883a 	mov	sp,fp
    9094:	dfc00117 	ldw	ra,4(sp)
    9098:	df000017 	ldw	fp,0(sp)
    909c:	dec00204 	addi	sp,sp,8
    90a0:	f800283a 	ret

000090a4 <close>:
    90a4:	defffb04 	addi	sp,sp,-20
    90a8:	dfc00415 	stw	ra,16(sp)
    90ac:	df000315 	stw	fp,12(sp)
    90b0:	df000304 	addi	fp,sp,12
    90b4:	e13fff15 	stw	r4,-4(fp)
    90b8:	e0bfff17 	ldw	r2,-4(fp)
    90bc:	10000616 	blt	r2,zero,90d8 <close+0x34>
    90c0:	e0bfff17 	ldw	r2,-4(fp)
    90c4:	10c00324 	muli	r3,r2,12
    90c8:	00800374 	movhi	r2,13
    90cc:	10ac0e04 	addi	r2,r2,-20424
    90d0:	1885883a 	add	r2,r3,r2
    90d4:	00000106 	br	90dc <close+0x38>
    90d8:	0005883a 	mov	r2,zero
    90dc:	e0bffd15 	stw	r2,-12(fp)
    90e0:	e0bffd17 	ldw	r2,-12(fp)
    90e4:	10001926 	beq	r2,zero,914c <close+0xa8>
    90e8:	e0bffd17 	ldw	r2,-12(fp)
    90ec:	10800017 	ldw	r2,0(r2)
    90f0:	10800417 	ldw	r2,16(r2)
    90f4:	10000626 	beq	r2,zero,9110 <close+0x6c>
    90f8:	e0bffd17 	ldw	r2,-12(fp)
    90fc:	10800017 	ldw	r2,0(r2)
    9100:	10800417 	ldw	r2,16(r2)
    9104:	e13ffd17 	ldw	r4,-12(fp)
    9108:	103ee83a 	callr	r2
    910c:	00000106 	br	9114 <close+0x70>
    9110:	0005883a 	mov	r2,zero
    9114:	e0bffe15 	stw	r2,-8(fp)
    9118:	e13fff17 	ldw	r4,-4(fp)
    911c:	00097b80 	call	97b8 <alt_release_fd>
    9120:	e0bffe17 	ldw	r2,-8(fp)
    9124:	1000070e 	bge	r2,zero,9144 <close+0xa0>
    9128:	00090680 	call	9068 <alt_get_errno>
    912c:	1007883a 	mov	r3,r2
    9130:	e0bffe17 	ldw	r2,-8(fp)
    9134:	0085c83a 	sub	r2,zero,r2
    9138:	18800015 	stw	r2,0(r3)
    913c:	00bfffc4 	movi	r2,-1
    9140:	00000706 	br	9160 <close+0xbc>
    9144:	0005883a 	mov	r2,zero
    9148:	00000506 	br	9160 <close+0xbc>
    914c:	00090680 	call	9068 <alt_get_errno>
    9150:	1007883a 	mov	r3,r2
    9154:	00801444 	movi	r2,81
    9158:	18800015 	stw	r2,0(r3)
    915c:	00bfffc4 	movi	r2,-1
    9160:	e037883a 	mov	sp,fp
    9164:	dfc00117 	ldw	ra,4(sp)
    9168:	df000017 	ldw	fp,0(sp)
    916c:	dec00204 	addi	sp,sp,8
    9170:	f800283a 	ret

00009174 <alt_dcache_flush_all>:
    9174:	deffff04 	addi	sp,sp,-4
    9178:	df000015 	stw	fp,0(sp)
    917c:	d839883a 	mov	fp,sp
    9180:	0001883a 	nop
    9184:	e037883a 	mov	sp,fp
    9188:	df000017 	ldw	fp,0(sp)
    918c:	dec00104 	addi	sp,sp,4
    9190:	f800283a 	ret

00009194 <alt_dev_null_write>:
    9194:	defffc04 	addi	sp,sp,-16
    9198:	df000315 	stw	fp,12(sp)
    919c:	df000304 	addi	fp,sp,12
    91a0:	e13ffd15 	stw	r4,-12(fp)
    91a4:	e17ffe15 	stw	r5,-8(fp)
    91a8:	e1bfff15 	stw	r6,-4(fp)
    91ac:	e0bfff17 	ldw	r2,-4(fp)
    91b0:	e037883a 	mov	sp,fp
    91b4:	df000017 	ldw	fp,0(sp)
    91b8:	dec00104 	addi	sp,sp,4
    91bc:	f800283a 	ret

000091c0 <alt_get_errno>:
    91c0:	defffe04 	addi	sp,sp,-8
    91c4:	dfc00115 	stw	ra,4(sp)
    91c8:	df000015 	stw	fp,0(sp)
    91cc:	d839883a 	mov	fp,sp
    91d0:	d0a00c17 	ldw	r2,-32720(gp)
    91d4:	10000326 	beq	r2,zero,91e4 <alt_get_errno+0x24>
    91d8:	d0a00c17 	ldw	r2,-32720(gp)
    91dc:	103ee83a 	callr	r2
    91e0:	00000106 	br	91e8 <alt_get_errno+0x28>
    91e4:	d0a79104 	addi	r2,gp,-25020
    91e8:	e037883a 	mov	sp,fp
    91ec:	dfc00117 	ldw	ra,4(sp)
    91f0:	df000017 	ldw	fp,0(sp)
    91f4:	dec00204 	addi	sp,sp,8
    91f8:	f800283a 	ret

000091fc <alt_dev_llist_insert>:
    91fc:	defffa04 	addi	sp,sp,-24
    9200:	dfc00515 	stw	ra,20(sp)
    9204:	df000415 	stw	fp,16(sp)
    9208:	df000404 	addi	fp,sp,16
    920c:	e13ffe15 	stw	r4,-8(fp)
    9210:	e17fff15 	stw	r5,-4(fp)
    9214:	e0bffe17 	ldw	r2,-8(fp)
    9218:	10000326 	beq	r2,zero,9228 <alt_dev_llist_insert+0x2c>
    921c:	e0bffe17 	ldw	r2,-8(fp)
    9220:	10800217 	ldw	r2,8(r2)
    9224:	1000061e 	bne	r2,zero,9240 <alt_dev_llist_insert+0x44>
    9228:	00091c00 	call	91c0 <alt_get_errno>
    922c:	1007883a 	mov	r3,r2
    9230:	00800584 	movi	r2,22
    9234:	18800015 	stw	r2,0(r3)
    9238:	00bffa84 	movi	r2,-22
    923c:	00001306 	br	928c <alt_dev_llist_insert+0x90>
    9240:	e0bffe17 	ldw	r2,-8(fp)
    9244:	e0ffff17 	ldw	r3,-4(fp)
    9248:	e0fffc15 	stw	r3,-16(fp)
    924c:	e0bffd15 	stw	r2,-12(fp)
    9250:	e0bffd17 	ldw	r2,-12(fp)
    9254:	e0fffc17 	ldw	r3,-16(fp)
    9258:	10c00115 	stw	r3,4(r2)
    925c:	e0bffc17 	ldw	r2,-16(fp)
    9260:	10c00017 	ldw	r3,0(r2)
    9264:	e0bffd17 	ldw	r2,-12(fp)
    9268:	10c00015 	stw	r3,0(r2)
    926c:	e0bffc17 	ldw	r2,-16(fp)
    9270:	10800017 	ldw	r2,0(r2)
    9274:	e0fffd17 	ldw	r3,-12(fp)
    9278:	10c00115 	stw	r3,4(r2)
    927c:	e0bffc17 	ldw	r2,-16(fp)
    9280:	e0fffd17 	ldw	r3,-12(fp)
    9284:	10c00015 	stw	r3,0(r2)
    9288:	0005883a 	mov	r2,zero
    928c:	e037883a 	mov	sp,fp
    9290:	dfc00117 	ldw	ra,4(sp)
    9294:	df000017 	ldw	fp,0(sp)
    9298:	dec00204 	addi	sp,sp,8
    929c:	f800283a 	ret

000092a0 <_do_ctors>:
    92a0:	defffd04 	addi	sp,sp,-12
    92a4:	dfc00215 	stw	ra,8(sp)
    92a8:	df000115 	stw	fp,4(sp)
    92ac:	df000104 	addi	fp,sp,4
    92b0:	00800074 	movhi	r2,1
    92b4:	10b6b604 	addi	r2,r2,-9512
    92b8:	e0bfff15 	stw	r2,-4(fp)
    92bc:	00000606 	br	92d8 <_do_ctors+0x38>
    92c0:	e0bfff17 	ldw	r2,-4(fp)
    92c4:	10800017 	ldw	r2,0(r2)
    92c8:	103ee83a 	callr	r2
    92cc:	e0bfff17 	ldw	r2,-4(fp)
    92d0:	10bfff04 	addi	r2,r2,-4
    92d4:	e0bfff15 	stw	r2,-4(fp)
    92d8:	e0ffff17 	ldw	r3,-4(fp)
    92dc:	00800074 	movhi	r2,1
    92e0:	10b6b704 	addi	r2,r2,-9508
    92e4:	18bff62e 	bgeu	r3,r2,92c0 <__alt_mem_VGA_Subsystem_Char_Buf_Subsystem_Onchip_SRAM+0xf70092c0>
    92e8:	0001883a 	nop
    92ec:	e037883a 	mov	sp,fp
    92f0:	dfc00117 	ldw	ra,4(sp)
    92f4:	df000017 	ldw	fp,0(sp)
    92f8:	dec00204 	addi	sp,sp,8
    92fc:	f800283a 	ret

00009300 <_do_dtors>:
    9300:	defffd04 	addi	sp,sp,-12
    9304:	dfc00215 	stw	ra,8(sp)
    9308:	df000115 	stw	fp,4(sp)
    930c:	df000104 	addi	fp,sp,4
    9310:	00800074 	movhi	r2,1
    9314:	10b6b604 	addi	r2,r2,-9512
    9318:	e0bfff15 	stw	r2,-4(fp)
    931c:	00000606 	br	9338 <_do_dtors+0x38>
    9320:	e0bfff17 	ldw	r2,-4(fp)
    9324:	10800017 	ldw	r2,0(r2)
    9328:	103ee83a 	callr	r2
    932c:	e0bfff17 	ldw	r2,-4(fp)
    9330:	10bfff04 	addi	r2,r2,-4
    9334:	e0bfff15 	stw	r2,-4(fp)
    9338:	e0ffff17 	ldw	r3,-4(fp)
    933c:	00800074 	movhi	r2,1
    9340:	10b6b704 	addi	r2,r2,-9508
    9344:	18bff62e 	bgeu	r3,r2,9320 <__alt_mem_VGA_Subsystem_Char_Buf_Subsystem_Onchip_SRAM+0xf7009320>
    9348:	0001883a 	nop
    934c:	e037883a 	mov	sp,fp
    9350:	dfc00117 	ldw	ra,4(sp)
    9354:	df000017 	ldw	fp,0(sp)
    9358:	dec00204 	addi	sp,sp,8
    935c:	f800283a 	ret

00009360 <alt_find_dev>:
    9360:	defffa04 	addi	sp,sp,-24
    9364:	dfc00515 	stw	ra,20(sp)
    9368:	df000415 	stw	fp,16(sp)
    936c:	df000404 	addi	fp,sp,16
    9370:	e13ffe15 	stw	r4,-8(fp)
    9374:	e17fff15 	stw	r5,-4(fp)
    9378:	e0bfff17 	ldw	r2,-4(fp)
    937c:	10800017 	ldw	r2,0(r2)
    9380:	e0bffc15 	stw	r2,-16(fp)
    9384:	e13ffe17 	ldw	r4,-8(fp)
    9388:	000a0800 	call	a080 <strlen>
    938c:	10800044 	addi	r2,r2,1
    9390:	e0bffd15 	stw	r2,-12(fp)
    9394:	00000d06 	br	93cc <alt_find_dev+0x6c>
    9398:	e0bffc17 	ldw	r2,-16(fp)
    939c:	10800217 	ldw	r2,8(r2)
    93a0:	e0fffd17 	ldw	r3,-12(fp)
    93a4:	180d883a 	mov	r6,r3
    93a8:	e17ffe17 	ldw	r5,-8(fp)
    93ac:	1009883a 	mov	r4,r2
    93b0:	0009d400 	call	9d40 <memcmp>
    93b4:	1000021e 	bne	r2,zero,93c0 <alt_find_dev+0x60>
    93b8:	e0bffc17 	ldw	r2,-16(fp)
    93bc:	00000706 	br	93dc <alt_find_dev+0x7c>
    93c0:	e0bffc17 	ldw	r2,-16(fp)
    93c4:	10800017 	ldw	r2,0(r2)
    93c8:	e0bffc15 	stw	r2,-16(fp)
    93cc:	e0fffc17 	ldw	r3,-16(fp)
    93d0:	e0bfff17 	ldw	r2,-4(fp)
    93d4:	18bff01e 	bne	r3,r2,9398 <__alt_mem_VGA_Subsystem_Char_Buf_Subsystem_Onchip_SRAM+0xf7009398>
    93d8:	0005883a 	mov	r2,zero
    93dc:	e037883a 	mov	sp,fp
    93e0:	dfc00117 	ldw	ra,4(sp)
    93e4:	df000017 	ldw	fp,0(sp)
    93e8:	dec00204 	addi	sp,sp,8
    93ec:	f800283a 	ret

000093f0 <alt_icache_flush_all>:
    93f0:	defffe04 	addi	sp,sp,-8
    93f4:	dfc00115 	stw	ra,4(sp)
    93f8:	df000015 	stw	fp,0(sp)
    93fc:	d839883a 	mov	fp,sp
    9400:	01440004 	movi	r5,4096
    9404:	0009883a 	mov	r4,zero
    9408:	0009b900 	call	9b90 <alt_icache_flush>
    940c:	0001883a 	nop
    9410:	e037883a 	mov	sp,fp
    9414:	dfc00117 	ldw	ra,4(sp)
    9418:	df000017 	ldw	fp,0(sp)
    941c:	dec00204 	addi	sp,sp,8
    9420:	f800283a 	ret

00009424 <alt_open_fd>:
    9424:	defff904 	addi	sp,sp,-28
    9428:	dfc00615 	stw	ra,24(sp)
    942c:	df000515 	stw	fp,20(sp)
    9430:	df000504 	addi	fp,sp,20
    9434:	e13ffc15 	stw	r4,-16(fp)
    9438:	e17ffd15 	stw	r5,-12(fp)
    943c:	e1bffe15 	stw	r6,-8(fp)
    9440:	e1ffff15 	stw	r7,-4(fp)
    9444:	e1bfff17 	ldw	r6,-4(fp)
    9448:	e17ffe17 	ldw	r5,-8(fp)
    944c:	e13ffd17 	ldw	r4,-12(fp)
    9450:	00096640 	call	9664 <open>
    9454:	e0bffb15 	stw	r2,-20(fp)
    9458:	e0bffb17 	ldw	r2,-20(fp)
    945c:	10001c16 	blt	r2,zero,94d0 <alt_open_fd+0xac>
    9460:	00800374 	movhi	r2,13
    9464:	10ac0e04 	addi	r2,r2,-20424
    9468:	e0fffb17 	ldw	r3,-20(fp)
    946c:	18c00324 	muli	r3,r3,12
    9470:	10c5883a 	add	r2,r2,r3
    9474:	10c00017 	ldw	r3,0(r2)
    9478:	e0bffc17 	ldw	r2,-16(fp)
    947c:	10c00015 	stw	r3,0(r2)
    9480:	00800374 	movhi	r2,13
    9484:	10ac0e04 	addi	r2,r2,-20424
    9488:	e0fffb17 	ldw	r3,-20(fp)
    948c:	18c00324 	muli	r3,r3,12
    9490:	10c5883a 	add	r2,r2,r3
    9494:	10800104 	addi	r2,r2,4
    9498:	10c00017 	ldw	r3,0(r2)
    949c:	e0bffc17 	ldw	r2,-16(fp)
    94a0:	10c00115 	stw	r3,4(r2)
    94a4:	00800374 	movhi	r2,13
    94a8:	10ac0e04 	addi	r2,r2,-20424
    94ac:	e0fffb17 	ldw	r3,-20(fp)
    94b0:	18c00324 	muli	r3,r3,12
    94b4:	10c5883a 	add	r2,r2,r3
    94b8:	10800204 	addi	r2,r2,8
    94bc:	10c00017 	ldw	r3,0(r2)
    94c0:	e0bffc17 	ldw	r2,-16(fp)
    94c4:	10c00215 	stw	r3,8(r2)
    94c8:	e13ffb17 	ldw	r4,-20(fp)
    94cc:	00097b80 	call	97b8 <alt_release_fd>
    94d0:	0001883a 	nop
    94d4:	e037883a 	mov	sp,fp
    94d8:	dfc00117 	ldw	ra,4(sp)
    94dc:	df000017 	ldw	fp,0(sp)
    94e0:	dec00204 	addi	sp,sp,8
    94e4:	f800283a 	ret

000094e8 <alt_io_redirect>:
    94e8:	defffb04 	addi	sp,sp,-20
    94ec:	dfc00415 	stw	ra,16(sp)
    94f0:	df000315 	stw	fp,12(sp)
    94f4:	df000304 	addi	fp,sp,12
    94f8:	e13ffd15 	stw	r4,-12(fp)
    94fc:	e17ffe15 	stw	r5,-8(fp)
    9500:	e1bfff15 	stw	r6,-4(fp)
    9504:	01c07fc4 	movi	r7,511
    9508:	01800044 	movi	r6,1
    950c:	e17ffd17 	ldw	r5,-12(fp)
    9510:	01000374 	movhi	r4,13
    9514:	212c1104 	addi	r4,r4,-20412
    9518:	00094240 	call	9424 <alt_open_fd>
    951c:	01c07fc4 	movi	r7,511
    9520:	000d883a 	mov	r6,zero
    9524:	e17ffe17 	ldw	r5,-8(fp)
    9528:	01000374 	movhi	r4,13
    952c:	212c0e04 	addi	r4,r4,-20424
    9530:	00094240 	call	9424 <alt_open_fd>
    9534:	01c07fc4 	movi	r7,511
    9538:	01800044 	movi	r6,1
    953c:	e17fff17 	ldw	r5,-4(fp)
    9540:	01000374 	movhi	r4,13
    9544:	212c1404 	addi	r4,r4,-20400
    9548:	00094240 	call	9424 <alt_open_fd>
    954c:	0001883a 	nop
    9550:	e037883a 	mov	sp,fp
    9554:	dfc00117 	ldw	ra,4(sp)
    9558:	df000017 	ldw	fp,0(sp)
    955c:	dec00204 	addi	sp,sp,8
    9560:	f800283a 	ret

00009564 <alt_get_errno>:
    9564:	defffe04 	addi	sp,sp,-8
    9568:	dfc00115 	stw	ra,4(sp)
    956c:	df000015 	stw	fp,0(sp)
    9570:	d839883a 	mov	fp,sp
    9574:	d0a00c17 	ldw	r2,-32720(gp)
    9578:	10000326 	beq	r2,zero,9588 <alt_get_errno+0x24>
    957c:	d0a00c17 	ldw	r2,-32720(gp)
    9580:	103ee83a 	callr	r2
    9584:	00000106 	br	958c <alt_get_errno+0x28>
    9588:	d0a79104 	addi	r2,gp,-25020
    958c:	e037883a 	mov	sp,fp
    9590:	dfc00117 	ldw	ra,4(sp)
    9594:	df000017 	ldw	fp,0(sp)
    9598:	dec00204 	addi	sp,sp,8
    959c:	f800283a 	ret

000095a0 <alt_file_locked>:
    95a0:	defffd04 	addi	sp,sp,-12
    95a4:	df000215 	stw	fp,8(sp)
    95a8:	df000204 	addi	fp,sp,8
    95ac:	e13fff15 	stw	r4,-4(fp)
    95b0:	e0bfff17 	ldw	r2,-4(fp)
    95b4:	10800217 	ldw	r2,8(r2)
    95b8:	10d00034 	orhi	r3,r2,16384
    95bc:	e0bfff17 	ldw	r2,-4(fp)
    95c0:	10c00215 	stw	r3,8(r2)
    95c4:	e03ffe15 	stw	zero,-8(fp)
    95c8:	00001d06 	br	9640 <alt_file_locked+0xa0>
    95cc:	00800374 	movhi	r2,13
    95d0:	10ac0e04 	addi	r2,r2,-20424
    95d4:	e0fffe17 	ldw	r3,-8(fp)
    95d8:	18c00324 	muli	r3,r3,12
    95dc:	10c5883a 	add	r2,r2,r3
    95e0:	10c00017 	ldw	r3,0(r2)
    95e4:	e0bfff17 	ldw	r2,-4(fp)
    95e8:	10800017 	ldw	r2,0(r2)
    95ec:	1880111e 	bne	r3,r2,9634 <alt_file_locked+0x94>
    95f0:	00800374 	movhi	r2,13
    95f4:	10ac0e04 	addi	r2,r2,-20424
    95f8:	e0fffe17 	ldw	r3,-8(fp)
    95fc:	18c00324 	muli	r3,r3,12
    9600:	10c5883a 	add	r2,r2,r3
    9604:	10800204 	addi	r2,r2,8
    9608:	10800017 	ldw	r2,0(r2)
    960c:	1000090e 	bge	r2,zero,9634 <alt_file_locked+0x94>
    9610:	e0bffe17 	ldw	r2,-8(fp)
    9614:	10c00324 	muli	r3,r2,12
    9618:	00800374 	movhi	r2,13
    961c:	10ac0e04 	addi	r2,r2,-20424
    9620:	1887883a 	add	r3,r3,r2
    9624:	e0bfff17 	ldw	r2,-4(fp)
    9628:	18800226 	beq	r3,r2,9634 <alt_file_locked+0x94>
    962c:	00bffcc4 	movi	r2,-13
    9630:	00000806 	br	9654 <alt_file_locked+0xb4>
    9634:	e0bffe17 	ldw	r2,-8(fp)
    9638:	10800044 	addi	r2,r2,1
    963c:	e0bffe15 	stw	r2,-8(fp)
    9640:	d0a00b17 	ldw	r2,-32724(gp)
    9644:	1007883a 	mov	r3,r2
    9648:	e0bffe17 	ldw	r2,-8(fp)
    964c:	18bfdf2e 	bgeu	r3,r2,95cc <__alt_mem_VGA_Subsystem_Char_Buf_Subsystem_Onchip_SRAM+0xf70095cc>
    9650:	0005883a 	mov	r2,zero
    9654:	e037883a 	mov	sp,fp
    9658:	df000017 	ldw	fp,0(sp)
    965c:	dec00104 	addi	sp,sp,4
    9660:	f800283a 	ret

00009664 <open>:
    9664:	defff604 	addi	sp,sp,-40
    9668:	dfc00915 	stw	ra,36(sp)
    966c:	df000815 	stw	fp,32(sp)
    9670:	df000804 	addi	fp,sp,32
    9674:	e13ffd15 	stw	r4,-12(fp)
    9678:	e17ffe15 	stw	r5,-8(fp)
    967c:	e1bfff15 	stw	r6,-4(fp)
    9680:	00bfffc4 	movi	r2,-1
    9684:	e0bff915 	stw	r2,-28(fp)
    9688:	00bffb44 	movi	r2,-19
    968c:	e0bffa15 	stw	r2,-24(fp)
    9690:	e03ffb15 	stw	zero,-20(fp)
    9694:	d1600904 	addi	r5,gp,-32732
    9698:	e13ffd17 	ldw	r4,-12(fp)
    969c:	00093600 	call	9360 <alt_find_dev>
    96a0:	e0bff815 	stw	r2,-32(fp)
    96a4:	e0bff817 	ldw	r2,-32(fp)
    96a8:	1000051e 	bne	r2,zero,96c0 <open+0x5c>
    96ac:	e13ffd17 	ldw	r4,-12(fp)
    96b0:	00099e40 	call	99e4 <alt_find_file>
    96b4:	e0bff815 	stw	r2,-32(fp)
    96b8:	00800044 	movi	r2,1
    96bc:	e0bffb15 	stw	r2,-20(fp)
    96c0:	e0bff817 	ldw	r2,-32(fp)
    96c4:	10002926 	beq	r2,zero,976c <open+0x108>
    96c8:	e13ff817 	ldw	r4,-32(fp)
    96cc:	0009aec0 	call	9aec <alt_get_fd>
    96d0:	e0bff915 	stw	r2,-28(fp)
    96d4:	e0bff917 	ldw	r2,-28(fp)
    96d8:	1000030e 	bge	r2,zero,96e8 <open+0x84>
    96dc:	e0bff917 	ldw	r2,-28(fp)
    96e0:	e0bffa15 	stw	r2,-24(fp)
    96e4:	00002306 	br	9774 <open+0x110>
    96e8:	e0bff917 	ldw	r2,-28(fp)
    96ec:	10c00324 	muli	r3,r2,12
    96f0:	00800374 	movhi	r2,13
    96f4:	10ac0e04 	addi	r2,r2,-20424
    96f8:	1885883a 	add	r2,r3,r2
    96fc:	e0bffc15 	stw	r2,-16(fp)
    9700:	e0fffe17 	ldw	r3,-8(fp)
    9704:	00900034 	movhi	r2,16384
    9708:	10bfffc4 	addi	r2,r2,-1
    970c:	1886703a 	and	r3,r3,r2
    9710:	e0bffc17 	ldw	r2,-16(fp)
    9714:	10c00215 	stw	r3,8(r2)
    9718:	e0bffb17 	ldw	r2,-20(fp)
    971c:	1000051e 	bne	r2,zero,9734 <open+0xd0>
    9720:	e13ffc17 	ldw	r4,-16(fp)
    9724:	00095a00 	call	95a0 <alt_file_locked>
    9728:	e0bffa15 	stw	r2,-24(fp)
    972c:	e0bffa17 	ldw	r2,-24(fp)
    9730:	10001016 	blt	r2,zero,9774 <open+0x110>
    9734:	e0bff817 	ldw	r2,-32(fp)
    9738:	10800317 	ldw	r2,12(r2)
    973c:	10000826 	beq	r2,zero,9760 <open+0xfc>
    9740:	e0bff817 	ldw	r2,-32(fp)
    9744:	10800317 	ldw	r2,12(r2)
    9748:	e1ffff17 	ldw	r7,-4(fp)
    974c:	e1bffe17 	ldw	r6,-8(fp)
    9750:	e17ffd17 	ldw	r5,-12(fp)
    9754:	e13ffc17 	ldw	r4,-16(fp)
    9758:	103ee83a 	callr	r2
    975c:	00000106 	br	9764 <open+0x100>
    9760:	0005883a 	mov	r2,zero
    9764:	e0bffa15 	stw	r2,-24(fp)
    9768:	00000206 	br	9774 <open+0x110>
    976c:	00bffb44 	movi	r2,-19
    9770:	e0bffa15 	stw	r2,-24(fp)
    9774:	e0bffa17 	ldw	r2,-24(fp)
    9778:	1000090e 	bge	r2,zero,97a0 <open+0x13c>
    977c:	e13ff917 	ldw	r4,-28(fp)
    9780:	00097b80 	call	97b8 <alt_release_fd>
    9784:	00095640 	call	9564 <alt_get_errno>
    9788:	1007883a 	mov	r3,r2
    978c:	e0bffa17 	ldw	r2,-24(fp)
    9790:	0085c83a 	sub	r2,zero,r2
    9794:	18800015 	stw	r2,0(r3)
    9798:	00bfffc4 	movi	r2,-1
    979c:	00000106 	br	97a4 <open+0x140>
    97a0:	e0bff917 	ldw	r2,-28(fp)
    97a4:	e037883a 	mov	sp,fp
    97a8:	dfc00117 	ldw	ra,4(sp)
    97ac:	df000017 	ldw	fp,0(sp)
    97b0:	dec00204 	addi	sp,sp,8
    97b4:	f800283a 	ret

000097b8 <alt_release_fd>:
    97b8:	defffe04 	addi	sp,sp,-8
    97bc:	df000115 	stw	fp,4(sp)
    97c0:	df000104 	addi	fp,sp,4
    97c4:	e13fff15 	stw	r4,-4(fp)
    97c8:	e0bfff17 	ldw	r2,-4(fp)
    97cc:	108000d0 	cmplti	r2,r2,3
    97d0:	10000d1e 	bne	r2,zero,9808 <alt_release_fd+0x50>
    97d4:	00800374 	movhi	r2,13
    97d8:	10ac0e04 	addi	r2,r2,-20424
    97dc:	e0ffff17 	ldw	r3,-4(fp)
    97e0:	18c00324 	muli	r3,r3,12
    97e4:	10c5883a 	add	r2,r2,r3
    97e8:	10800204 	addi	r2,r2,8
    97ec:	10000015 	stw	zero,0(r2)
    97f0:	00800374 	movhi	r2,13
    97f4:	10ac0e04 	addi	r2,r2,-20424
    97f8:	e0ffff17 	ldw	r3,-4(fp)
    97fc:	18c00324 	muli	r3,r3,12
    9800:	10c5883a 	add	r2,r2,r3
    9804:	10000015 	stw	zero,0(r2)
    9808:	0001883a 	nop
    980c:	e037883a 	mov	sp,fp
    9810:	df000017 	ldw	fp,0(sp)
    9814:	dec00104 	addi	sp,sp,4
    9818:	f800283a 	ret

0000981c <alt_alarm_stop>:
    981c:	defffa04 	addi	sp,sp,-24
    9820:	df000515 	stw	fp,20(sp)
    9824:	df000504 	addi	fp,sp,20
    9828:	e13fff15 	stw	r4,-4(fp)
    982c:	0005303a 	rdctl	r2,status
    9830:	e0bffc15 	stw	r2,-16(fp)
    9834:	e0fffc17 	ldw	r3,-16(fp)
    9838:	00bfff84 	movi	r2,-2
    983c:	1884703a 	and	r2,r3,r2
    9840:	1001703a 	wrctl	status,r2
    9844:	e0bffc17 	ldw	r2,-16(fp)
    9848:	e0bffb15 	stw	r2,-20(fp)
    984c:	e0bfff17 	ldw	r2,-4(fp)
    9850:	e0bffd15 	stw	r2,-12(fp)
    9854:	e0bffd17 	ldw	r2,-12(fp)
    9858:	10800017 	ldw	r2,0(r2)
    985c:	e0fffd17 	ldw	r3,-12(fp)
    9860:	18c00117 	ldw	r3,4(r3)
    9864:	10c00115 	stw	r3,4(r2)
    9868:	e0bffd17 	ldw	r2,-12(fp)
    986c:	10800117 	ldw	r2,4(r2)
    9870:	e0fffd17 	ldw	r3,-12(fp)
    9874:	18c00017 	ldw	r3,0(r3)
    9878:	10c00015 	stw	r3,0(r2)
    987c:	e0bffd17 	ldw	r2,-12(fp)
    9880:	e0fffd17 	ldw	r3,-12(fp)
    9884:	10c00115 	stw	r3,4(r2)
    9888:	e0bffd17 	ldw	r2,-12(fp)
    988c:	e0fffd17 	ldw	r3,-12(fp)
    9890:	10c00015 	stw	r3,0(r2)
    9894:	e0bffb17 	ldw	r2,-20(fp)
    9898:	e0bffe15 	stw	r2,-8(fp)
    989c:	e0bffe17 	ldw	r2,-8(fp)
    98a0:	1001703a 	wrctl	status,r2
    98a4:	0001883a 	nop
    98a8:	e037883a 	mov	sp,fp
    98ac:	df000017 	ldw	fp,0(sp)
    98b0:	dec00104 	addi	sp,sp,4
    98b4:	f800283a 	ret

000098b8 <alt_tick>:
    98b8:	defffb04 	addi	sp,sp,-20
    98bc:	dfc00415 	stw	ra,16(sp)
    98c0:	df000315 	stw	fp,12(sp)
    98c4:	df000304 	addi	fp,sp,12
    98c8:	d0a00d17 	ldw	r2,-32716(gp)
    98cc:	e0bffd15 	stw	r2,-12(fp)
    98d0:	d0a78f17 	ldw	r2,-25028(gp)
    98d4:	10800044 	addi	r2,r2,1
    98d8:	d0a78f15 	stw	r2,-25028(gp)
    98dc:	00002e06 	br	9998 <alt_tick+0xe0>
    98e0:	e0bffd17 	ldw	r2,-12(fp)
    98e4:	10800017 	ldw	r2,0(r2)
    98e8:	e0bffe15 	stw	r2,-8(fp)
    98ec:	e0bffd17 	ldw	r2,-12(fp)
    98f0:	10800403 	ldbu	r2,16(r2)
    98f4:	10803fcc 	andi	r2,r2,255
    98f8:	10000426 	beq	r2,zero,990c <alt_tick+0x54>
    98fc:	d0a78f17 	ldw	r2,-25028(gp)
    9900:	1000021e 	bne	r2,zero,990c <alt_tick+0x54>
    9904:	e0bffd17 	ldw	r2,-12(fp)
    9908:	10000405 	stb	zero,16(r2)
    990c:	e0bffd17 	ldw	r2,-12(fp)
    9910:	10800217 	ldw	r2,8(r2)
    9914:	d0e78f17 	ldw	r3,-25028(gp)
    9918:	18801d36 	bltu	r3,r2,9990 <alt_tick+0xd8>
    991c:	e0bffd17 	ldw	r2,-12(fp)
    9920:	10800403 	ldbu	r2,16(r2)
    9924:	10803fcc 	andi	r2,r2,255
    9928:	1000191e 	bne	r2,zero,9990 <alt_tick+0xd8>
    992c:	e0bffd17 	ldw	r2,-12(fp)
    9930:	10800317 	ldw	r2,12(r2)
    9934:	e0fffd17 	ldw	r3,-12(fp)
    9938:	18c00517 	ldw	r3,20(r3)
    993c:	1809883a 	mov	r4,r3
    9940:	103ee83a 	callr	r2
    9944:	e0bfff15 	stw	r2,-4(fp)
    9948:	e0bfff17 	ldw	r2,-4(fp)
    994c:	1000031e 	bne	r2,zero,995c <alt_tick+0xa4>
    9950:	e13ffd17 	ldw	r4,-12(fp)
    9954:	000981c0 	call	981c <alt_alarm_stop>
    9958:	00000d06 	br	9990 <alt_tick+0xd8>
    995c:	e0bffd17 	ldw	r2,-12(fp)
    9960:	10c00217 	ldw	r3,8(r2)
    9964:	e0bfff17 	ldw	r2,-4(fp)
    9968:	1887883a 	add	r3,r3,r2
    996c:	e0bffd17 	ldw	r2,-12(fp)
    9970:	10c00215 	stw	r3,8(r2)
    9974:	e0bffd17 	ldw	r2,-12(fp)
    9978:	10c00217 	ldw	r3,8(r2)
    997c:	d0a78f17 	ldw	r2,-25028(gp)
    9980:	1880032e 	bgeu	r3,r2,9990 <alt_tick+0xd8>
    9984:	e0bffd17 	ldw	r2,-12(fp)
    9988:	00c00044 	movi	r3,1
    998c:	10c00405 	stb	r3,16(r2)
    9990:	e0bffe17 	ldw	r2,-8(fp)
    9994:	e0bffd15 	stw	r2,-12(fp)
    9998:	e0fffd17 	ldw	r3,-12(fp)
    999c:	d0a00d04 	addi	r2,gp,-32716
    99a0:	18bfcf1e 	bne	r3,r2,98e0 <__alt_mem_VGA_Subsystem_Char_Buf_Subsystem_Onchip_SRAM+0xf70098e0>
    99a4:	0001883a 	nop
    99a8:	0001883a 	nop
    99ac:	e037883a 	mov	sp,fp
    99b0:	dfc00117 	ldw	ra,4(sp)
    99b4:	df000017 	ldw	fp,0(sp)
    99b8:	dec00204 	addi	sp,sp,8
    99bc:	f800283a 	ret

000099c0 <altera_nios2_gen2_irq_init>:
    99c0:	deffff04 	addi	sp,sp,-4
    99c4:	df000015 	stw	fp,0(sp)
    99c8:	d839883a 	mov	fp,sp
    99cc:	000170fa 	wrctl	ienable,zero
    99d0:	0001883a 	nop
    99d4:	e037883a 	mov	sp,fp
    99d8:	df000017 	ldw	fp,0(sp)
    99dc:	dec00104 	addi	sp,sp,4
    99e0:	f800283a 	ret

000099e4 <alt_find_file>:
    99e4:	defffb04 	addi	sp,sp,-20
    99e8:	dfc00415 	stw	ra,16(sp)
    99ec:	df000315 	stw	fp,12(sp)
    99f0:	df000304 	addi	fp,sp,12
    99f4:	e13fff15 	stw	r4,-4(fp)
    99f8:	d0a00717 	ldw	r2,-32740(gp)
    99fc:	e0bffd15 	stw	r2,-12(fp)
    9a00:	00003106 	br	9ac8 <alt_find_file+0xe4>
    9a04:	e0bffd17 	ldw	r2,-12(fp)
    9a08:	10800217 	ldw	r2,8(r2)
    9a0c:	1009883a 	mov	r4,r2
    9a10:	000a0800 	call	a080 <strlen>
    9a14:	e0bffe15 	stw	r2,-8(fp)
    9a18:	e0bffd17 	ldw	r2,-12(fp)
    9a1c:	10c00217 	ldw	r3,8(r2)
    9a20:	e0bffe17 	ldw	r2,-8(fp)
    9a24:	10bfffc4 	addi	r2,r2,-1
    9a28:	1885883a 	add	r2,r3,r2
    9a2c:	10800003 	ldbu	r2,0(r2)
    9a30:	10803fcc 	andi	r2,r2,255
    9a34:	1080201c 	xori	r2,r2,128
    9a38:	10bfe004 	addi	r2,r2,-128
    9a3c:	10800bd8 	cmpnei	r2,r2,47
    9a40:	1000031e 	bne	r2,zero,9a50 <alt_find_file+0x6c>
    9a44:	e0bffe17 	ldw	r2,-8(fp)
    9a48:	10bfffc4 	addi	r2,r2,-1
    9a4c:	e0bffe15 	stw	r2,-8(fp)
    9a50:	e0bffe17 	ldw	r2,-8(fp)
    9a54:	e0ffff17 	ldw	r3,-4(fp)
    9a58:	1885883a 	add	r2,r3,r2
    9a5c:	10800003 	ldbu	r2,0(r2)
    9a60:	10803fcc 	andi	r2,r2,255
    9a64:	1080201c 	xori	r2,r2,128
    9a68:	10bfe004 	addi	r2,r2,-128
    9a6c:	10800be0 	cmpeqi	r2,r2,47
    9a70:	1000081e 	bne	r2,zero,9a94 <alt_find_file+0xb0>
    9a74:	e0bffe17 	ldw	r2,-8(fp)
    9a78:	e0ffff17 	ldw	r3,-4(fp)
    9a7c:	1885883a 	add	r2,r3,r2
    9a80:	10800003 	ldbu	r2,0(r2)
    9a84:	10803fcc 	andi	r2,r2,255
    9a88:	1080201c 	xori	r2,r2,128
    9a8c:	10bfe004 	addi	r2,r2,-128
    9a90:	10000a1e 	bne	r2,zero,9abc <alt_find_file+0xd8>
    9a94:	e0bffd17 	ldw	r2,-12(fp)
    9a98:	10800217 	ldw	r2,8(r2)
    9a9c:	e0fffe17 	ldw	r3,-8(fp)
    9aa0:	180d883a 	mov	r6,r3
    9aa4:	e17fff17 	ldw	r5,-4(fp)
    9aa8:	1009883a 	mov	r4,r2
    9aac:	0009d400 	call	9d40 <memcmp>
    9ab0:	1000021e 	bne	r2,zero,9abc <alt_find_file+0xd8>
    9ab4:	e0bffd17 	ldw	r2,-12(fp)
    9ab8:	00000706 	br	9ad8 <alt_find_file+0xf4>
    9abc:	e0bffd17 	ldw	r2,-12(fp)
    9ac0:	10800017 	ldw	r2,0(r2)
    9ac4:	e0bffd15 	stw	r2,-12(fp)
    9ac8:	e0fffd17 	ldw	r3,-12(fp)
    9acc:	d0a00704 	addi	r2,gp,-32740
    9ad0:	18bfcc1e 	bne	r3,r2,9a04 <__alt_mem_VGA_Subsystem_Char_Buf_Subsystem_Onchip_SRAM+0xf7009a04>
    9ad4:	0005883a 	mov	r2,zero
    9ad8:	e037883a 	mov	sp,fp
    9adc:	dfc00117 	ldw	ra,4(sp)
    9ae0:	df000017 	ldw	fp,0(sp)
    9ae4:	dec00204 	addi	sp,sp,8
    9ae8:	f800283a 	ret

00009aec <alt_get_fd>:
    9aec:	defffc04 	addi	sp,sp,-16
    9af0:	df000315 	stw	fp,12(sp)
    9af4:	df000304 	addi	fp,sp,12
    9af8:	e13fff15 	stw	r4,-4(fp)
    9afc:	00bffa04 	movi	r2,-24
    9b00:	e0bffe15 	stw	r2,-8(fp)
    9b04:	e03ffd15 	stw	zero,-12(fp)
    9b08:	00001906 	br	9b70 <alt_get_fd+0x84>
    9b0c:	00800374 	movhi	r2,13
    9b10:	10ac0e04 	addi	r2,r2,-20424
    9b14:	e0fffd17 	ldw	r3,-12(fp)
    9b18:	18c00324 	muli	r3,r3,12
    9b1c:	10c5883a 	add	r2,r2,r3
    9b20:	10800017 	ldw	r2,0(r2)
    9b24:	10000f1e 	bne	r2,zero,9b64 <alt_get_fd+0x78>
    9b28:	00800374 	movhi	r2,13
    9b2c:	10ac0e04 	addi	r2,r2,-20424
    9b30:	e0fffd17 	ldw	r3,-12(fp)
    9b34:	18c00324 	muli	r3,r3,12
    9b38:	10c5883a 	add	r2,r2,r3
    9b3c:	e0ffff17 	ldw	r3,-4(fp)
    9b40:	10c00015 	stw	r3,0(r2)
    9b44:	d0e00b17 	ldw	r3,-32724(gp)
    9b48:	e0bffd17 	ldw	r2,-12(fp)
    9b4c:	1880020e 	bge	r3,r2,9b58 <alt_get_fd+0x6c>
    9b50:	e0bffd17 	ldw	r2,-12(fp)
    9b54:	d0a00b15 	stw	r2,-32724(gp)
    9b58:	e0bffd17 	ldw	r2,-12(fp)
    9b5c:	e0bffe15 	stw	r2,-8(fp)
    9b60:	00000606 	br	9b7c <alt_get_fd+0x90>
    9b64:	e0bffd17 	ldw	r2,-12(fp)
    9b68:	10800044 	addi	r2,r2,1
    9b6c:	e0bffd15 	stw	r2,-12(fp)
    9b70:	e0bffd17 	ldw	r2,-12(fp)
    9b74:	10800810 	cmplti	r2,r2,32
    9b78:	103fe41e 	bne	r2,zero,9b0c <__alt_mem_VGA_Subsystem_Char_Buf_Subsystem_Onchip_SRAM+0xf7009b0c>
    9b7c:	e0bffe17 	ldw	r2,-8(fp)
    9b80:	e037883a 	mov	sp,fp
    9b84:	df000017 	ldw	fp,0(sp)
    9b88:	dec00104 	addi	sp,sp,4
    9b8c:	f800283a 	ret

00009b90 <alt_icache_flush>:
    9b90:	defffb04 	addi	sp,sp,-20
    9b94:	df000415 	stw	fp,16(sp)
    9b98:	df000404 	addi	fp,sp,16
    9b9c:	e13ffe15 	stw	r4,-8(fp)
    9ba0:	e17fff15 	stw	r5,-4(fp)
    9ba4:	e0bfff17 	ldw	r2,-4(fp)
    9ba8:	10840070 	cmpltui	r2,r2,4097
    9bac:	1000021e 	bne	r2,zero,9bb8 <alt_icache_flush+0x28>
    9bb0:	00840004 	movi	r2,4096
    9bb4:	e0bfff15 	stw	r2,-4(fp)
    9bb8:	e0fffe17 	ldw	r3,-8(fp)
    9bbc:	e0bfff17 	ldw	r2,-4(fp)
    9bc0:	1885883a 	add	r2,r3,r2
    9bc4:	e0bffd15 	stw	r2,-12(fp)
    9bc8:	e0bffe17 	ldw	r2,-8(fp)
    9bcc:	e0bffc15 	stw	r2,-16(fp)
    9bd0:	00000506 	br	9be8 <alt_icache_flush+0x58>
    9bd4:	e0bffc17 	ldw	r2,-16(fp)
    9bd8:	1000603a 	flushi	r2
    9bdc:	e0bffc17 	ldw	r2,-16(fp)
    9be0:	10800804 	addi	r2,r2,32
    9be4:	e0bffc15 	stw	r2,-16(fp)
    9be8:	e0fffc17 	ldw	r3,-16(fp)
    9bec:	e0bffd17 	ldw	r2,-12(fp)
    9bf0:	18bff836 	bltu	r3,r2,9bd4 <__alt_mem_VGA_Subsystem_Char_Buf_Subsystem_Onchip_SRAM+0xf7009bd4>
    9bf4:	e0bffe17 	ldw	r2,-8(fp)
    9bf8:	108007cc 	andi	r2,r2,31
    9bfc:	10000226 	beq	r2,zero,9c08 <alt_icache_flush+0x78>
    9c00:	e0bffc17 	ldw	r2,-16(fp)
    9c04:	1000603a 	flushi	r2
    9c08:	0000203a 	flushp
    9c0c:	0001883a 	nop
    9c10:	e037883a 	mov	sp,fp
    9c14:	df000017 	ldw	fp,0(sp)
    9c18:	dec00104 	addi	sp,sp,4
    9c1c:	f800283a 	ret

00009c20 <alt_exception_cause_generated_bad_addr>:
    9c20:	defffe04 	addi	sp,sp,-8
    9c24:	df000115 	stw	fp,4(sp)
    9c28:	df000104 	addi	fp,sp,4
    9c2c:	e13fff15 	stw	r4,-4(fp)
    9c30:	e0bfff17 	ldw	r2,-4(fp)
    9c34:	10bffe84 	addi	r2,r2,-6
    9c38:	10c00428 	cmpgeui	r3,r2,16
    9c3c:	18001a1e 	bne	r3,zero,9ca8 <alt_exception_cause_generated_bad_addr+0x88>
    9c40:	100690ba 	slli	r3,r2,2
    9c44:	00800074 	movhi	r2,1
    9c48:	10a71604 	addi	r2,r2,-25512
    9c4c:	1885883a 	add	r2,r3,r2
    9c50:	10800017 	ldw	r2,0(r2)
    9c54:	1000683a 	jmp	r2
    9c58:	00009c98 	cmpnei	zero,zero,626
    9c5c:	00009c98 	cmpnei	zero,zero,626
    9c60:	00009ca8 	cmpgeui	zero,zero,626
    9c64:	00009ca8 	cmpgeui	zero,zero,626
    9c68:	00009ca8 	cmpgeui	zero,zero,626
    9c6c:	00009c98 	cmpnei	zero,zero,626
    9c70:	00009ca0 	cmpeqi	zero,zero,626
    9c74:	00009ca8 	cmpgeui	zero,zero,626
    9c78:	00009c98 	cmpnei	zero,zero,626
    9c7c:	00009c98 	cmpnei	zero,zero,626
    9c80:	00009ca8 	cmpgeui	zero,zero,626
    9c84:	00009c98 	cmpnei	zero,zero,626
    9c88:	00009ca0 	cmpeqi	zero,zero,626
    9c8c:	00009ca8 	cmpgeui	zero,zero,626
    9c90:	00009ca8 	cmpgeui	zero,zero,626
    9c94:	00009c98 	cmpnei	zero,zero,626
    9c98:	00800044 	movi	r2,1
    9c9c:	00000306 	br	9cac <alt_exception_cause_generated_bad_addr+0x8c>
    9ca0:	0005883a 	mov	r2,zero
    9ca4:	00000106 	br	9cac <alt_exception_cause_generated_bad_addr+0x8c>
    9ca8:	0005883a 	mov	r2,zero
    9cac:	e037883a 	mov	sp,fp
    9cb0:	df000017 	ldw	fp,0(sp)
    9cb4:	dec00104 	addi	sp,sp,4
    9cb8:	f800283a 	ret

00009cbc <atexit>:
    9cbc:	defffd04 	addi	sp,sp,-12
    9cc0:	dfc00215 	stw	ra,8(sp)
    9cc4:	df000115 	stw	fp,4(sp)
    9cc8:	df000104 	addi	fp,sp,4
    9ccc:	e13fff15 	stw	r4,-4(fp)
    9cd0:	000f883a 	mov	r7,zero
    9cd4:	000d883a 	mov	r6,zero
    9cd8:	e17fff17 	ldw	r5,-4(fp)
    9cdc:	0009883a 	mov	r4,zero
    9ce0:	000a4bc0 	call	a4bc <__register_exitproc>
    9ce4:	e037883a 	mov	sp,fp
    9ce8:	dfc00117 	ldw	ra,4(sp)
    9cec:	df000017 	ldw	fp,0(sp)
    9cf0:	dec00204 	addi	sp,sp,8
    9cf4:	f800283a 	ret

00009cf8 <exit>:
    9cf8:	defffd04 	addi	sp,sp,-12
    9cfc:	dfc00215 	stw	ra,8(sp)
    9d00:	df000115 	stw	fp,4(sp)
    9d04:	df000104 	addi	fp,sp,4
    9d08:	e13fff15 	stw	r4,-4(fp)
    9d0c:	000b883a 	mov	r5,zero
    9d10:	e13fff17 	ldw	r4,-4(fp)
    9d14:	000a62c0 	call	a62c <__call_exitprocs>
    9d18:	d0a00517 	ldw	r2,-32748(gp)
    9d1c:	10800f17 	ldw	r2,60(r2)
    9d20:	10000526 	beq	r2,zero,9d38 <exit+0x40>
    9d24:	d0a00517 	ldw	r2,-32748(gp)
    9d28:	10800f17 	ldw	r2,60(r2)
    9d2c:	d0e00517 	ldw	r3,-32748(gp)
    9d30:	1809883a 	mov	r4,r3
    9d34:	103ee83a 	callr	r2
    9d38:	e13fff17 	ldw	r4,-4(fp)
    9d3c:	000d4680 	call	d468 <_exit>

00009d40 <memcmp>:
    9d40:	defff804 	addi	sp,sp,-32
    9d44:	df000715 	stw	fp,28(sp)
    9d48:	df000704 	addi	fp,sp,28
    9d4c:	e13ffd15 	stw	r4,-12(fp)
    9d50:	e17ffe15 	stw	r5,-8(fp)
    9d54:	e1bfff15 	stw	r6,-4(fp)
    9d58:	e0bffd17 	ldw	r2,-12(fp)
    9d5c:	e0bff915 	stw	r2,-28(fp)
    9d60:	e0bffe17 	ldw	r2,-8(fp)
    9d64:	e0bffa15 	stw	r2,-24(fp)
    9d68:	e0bfff17 	ldw	r2,-4(fp)
    9d6c:	10800130 	cmpltui	r2,r2,4
    9d70:	1000371e 	bne	r2,zero,9e50 <memcmp+0x110>
    9d74:	e0fff917 	ldw	r3,-28(fp)
    9d78:	e0bffa17 	ldw	r2,-24(fp)
    9d7c:	1884b03a 	or	r2,r3,r2
    9d80:	108000cc 	andi	r2,r2,3
    9d84:	1000321e 	bne	r2,zero,9e50 <memcmp+0x110>
    9d88:	e0bff917 	ldw	r2,-28(fp)
    9d8c:	e0bffb15 	stw	r2,-20(fp)
    9d90:	e0bffa17 	ldw	r2,-24(fp)
    9d94:	e0bffc15 	stw	r2,-16(fp)
    9d98:	00000e06 	br	9dd4 <memcmp+0x94>
    9d9c:	e0bffb17 	ldw	r2,-20(fp)
    9da0:	10c00017 	ldw	r3,0(r2)
    9da4:	e0bffc17 	ldw	r2,-16(fp)
    9da8:	10800017 	ldw	r2,0(r2)
    9dac:	18800d1e 	bne	r3,r2,9de4 <memcmp+0xa4>
    9db0:	e0bffb17 	ldw	r2,-20(fp)
    9db4:	10800104 	addi	r2,r2,4
    9db8:	e0bffb15 	stw	r2,-20(fp)
    9dbc:	e0bffc17 	ldw	r2,-16(fp)
    9dc0:	10800104 	addi	r2,r2,4
    9dc4:	e0bffc15 	stw	r2,-16(fp)
    9dc8:	e0bfff17 	ldw	r2,-4(fp)
    9dcc:	10bfff04 	addi	r2,r2,-4
    9dd0:	e0bfff15 	stw	r2,-4(fp)
    9dd4:	e0bfff17 	ldw	r2,-4(fp)
    9dd8:	10800128 	cmpgeui	r2,r2,4
    9ddc:	103fef1e 	bne	r2,zero,9d9c <__alt_mem_VGA_Subsystem_Char_Buf_Subsystem_Onchip_SRAM+0xf7009d9c>
    9de0:	00000106 	br	9de8 <memcmp+0xa8>
    9de4:	0001883a 	nop
    9de8:	e0bffb17 	ldw	r2,-20(fp)
    9dec:	e0bff915 	stw	r2,-28(fp)
    9df0:	e0bffc17 	ldw	r2,-16(fp)
    9df4:	e0bffa15 	stw	r2,-24(fp)
    9df8:	00001506 	br	9e50 <memcmp+0x110>
    9dfc:	e0bff917 	ldw	r2,-28(fp)
    9e00:	10c00003 	ldbu	r3,0(r2)
    9e04:	e0bffa17 	ldw	r2,-24(fp)
    9e08:	10800003 	ldbu	r2,0(r2)
    9e0c:	18c03fcc 	andi	r3,r3,255
    9e10:	10803fcc 	andi	r2,r2,255
    9e14:	18800826 	beq	r3,r2,9e38 <memcmp+0xf8>
    9e18:	e0bff917 	ldw	r2,-28(fp)
    9e1c:	10800003 	ldbu	r2,0(r2)
    9e20:	10c03fcc 	andi	r3,r2,255
    9e24:	e0bffa17 	ldw	r2,-24(fp)
    9e28:	10800003 	ldbu	r2,0(r2)
    9e2c:	10803fcc 	andi	r2,r2,255
    9e30:	1885c83a 	sub	r2,r3,r2
    9e34:	00000b06 	br	9e64 <memcmp+0x124>
    9e38:	e0bff917 	ldw	r2,-28(fp)
    9e3c:	10800044 	addi	r2,r2,1
    9e40:	e0bff915 	stw	r2,-28(fp)
    9e44:	e0bffa17 	ldw	r2,-24(fp)
    9e48:	10800044 	addi	r2,r2,1
    9e4c:	e0bffa15 	stw	r2,-24(fp)
    9e50:	e0bfff17 	ldw	r2,-4(fp)
    9e54:	10ffffc4 	addi	r3,r2,-1
    9e58:	e0ffff15 	stw	r3,-4(fp)
    9e5c:	103fe71e 	bne	r2,zero,9dfc <__alt_mem_VGA_Subsystem_Char_Buf_Subsystem_Onchip_SRAM+0xf7009dfc>
    9e60:	0005883a 	mov	r2,zero
    9e64:	e037883a 	mov	sp,fp
    9e68:	df000017 	ldw	fp,0(sp)
    9e6c:	dec00104 	addi	sp,sp,4
    9e70:	f800283a 	ret

00009e74 <_putc_r>:
    9e74:	defff904 	addi	sp,sp,-28
    9e78:	dfc00615 	stw	ra,24(sp)
    9e7c:	df000515 	stw	fp,20(sp)
    9e80:	dc000415 	stw	r16,16(sp)
    9e84:	df000504 	addi	fp,sp,20
    9e88:	e13ffd15 	stw	r4,-12(fp)
    9e8c:	e17ffe15 	stw	r5,-8(fp)
    9e90:	3021883a 	mov	r16,r6
    9e94:	e0bffd17 	ldw	r2,-12(fp)
    9e98:	e0bffb15 	stw	r2,-20(fp)
    9e9c:	e0bffb17 	ldw	r2,-20(fp)
    9ea0:	10000526 	beq	r2,zero,9eb8 <_putc_r+0x44>
    9ea4:	e0bffb17 	ldw	r2,-20(fp)
    9ea8:	10800e17 	ldw	r2,56(r2)
    9eac:	1000021e 	bne	r2,zero,9eb8 <_putc_r+0x44>
    9eb0:	e13ffb17 	ldw	r4,-20(fp)
    9eb4:	000af9c0 	call	af9c <__sinit>
    9eb8:	80800217 	ldw	r2,8(r16)
    9ebc:	10bfffc4 	addi	r2,r2,-1
    9ec0:	80800215 	stw	r2,8(r16)
    9ec4:	80800217 	ldw	r2,8(r16)
    9ec8:	10001b0e 	bge	r2,zero,9f38 <_putc_r+0xc4>
    9ecc:	80c00217 	ldw	r3,8(r16)
    9ed0:	80800617 	ldw	r2,24(r16)
    9ed4:	18801316 	blt	r3,r2,9f24 <_putc_r+0xb0>
    9ed8:	80800017 	ldw	r2,0(r16)
    9edc:	e0fffe17 	ldw	r3,-8(fp)
    9ee0:	10c00005 	stb	r3,0(r2)
    9ee4:	80800017 	ldw	r2,0(r16)
    9ee8:	10800003 	ldbu	r2,0(r2)
    9eec:	10803fcc 	andi	r2,r2,255
    9ef0:	108002a0 	cmpeqi	r2,r2,10
    9ef4:	1000061e 	bne	r2,zero,9f10 <_putc_r+0x9c>
    9ef8:	80800017 	ldw	r2,0(r16)
    9efc:	10c00044 	addi	r3,r2,1
    9f00:	80c00015 	stw	r3,0(r16)
    9f04:	10800003 	ldbu	r2,0(r2)
    9f08:	10803fcc 	andi	r2,r2,255
    9f0c:	00001206 	br	9f58 <_putc_r+0xe4>
    9f10:	800d883a 	mov	r6,r16
    9f14:	01400284 	movi	r5,10
    9f18:	e13ffd17 	ldw	r4,-12(fp)
    9f1c:	000a1740 	call	a174 <__swbuf_r>
    9f20:	00000d06 	br	9f58 <_putc_r+0xe4>
    9f24:	800d883a 	mov	r6,r16
    9f28:	e17ffe17 	ldw	r5,-8(fp)
    9f2c:	e13ffd17 	ldw	r4,-12(fp)
    9f30:	000a1740 	call	a174 <__swbuf_r>
    9f34:	00000806 	br	9f58 <_putc_r+0xe4>
    9f38:	80800017 	ldw	r2,0(r16)
    9f3c:	e0fffe17 	ldw	r3,-8(fp)
    9f40:	10c00005 	stb	r3,0(r2)
    9f44:	80800017 	ldw	r2,0(r16)
    9f48:	10c00044 	addi	r3,r2,1
    9f4c:	80c00015 	stw	r3,0(r16)
    9f50:	10800003 	ldbu	r2,0(r2)
    9f54:	10803fcc 	andi	r2,r2,255
    9f58:	e0bffc15 	stw	r2,-16(fp)
    9f5c:	e0bffc17 	ldw	r2,-16(fp)
    9f60:	e6ffff04 	addi	sp,fp,-4
    9f64:	dfc00217 	ldw	ra,8(sp)
    9f68:	df000117 	ldw	fp,4(sp)
    9f6c:	dc000017 	ldw	r16,0(sp)
    9f70:	dec00304 	addi	sp,sp,12
    9f74:	f800283a 	ret

00009f78 <putc>:
    9f78:	defff904 	addi	sp,sp,-28
    9f7c:	dfc00615 	stw	ra,24(sp)
    9f80:	df000515 	stw	fp,20(sp)
    9f84:	dc000415 	stw	r16,16(sp)
    9f88:	df000504 	addi	fp,sp,20
    9f8c:	e13ffe15 	stw	r4,-8(fp)
    9f90:	2821883a 	mov	r16,r5
    9f94:	d0a00417 	ldw	r2,-32752(gp)
    9f98:	e0bffb15 	stw	r2,-20(fp)
    9f9c:	e0bffb17 	ldw	r2,-20(fp)
    9fa0:	e0bffc15 	stw	r2,-16(fp)
    9fa4:	e0bffc17 	ldw	r2,-16(fp)
    9fa8:	10000526 	beq	r2,zero,9fc0 <putc+0x48>
    9fac:	e0bffc17 	ldw	r2,-16(fp)
    9fb0:	10800e17 	ldw	r2,56(r2)
    9fb4:	1000021e 	bne	r2,zero,9fc0 <putc+0x48>
    9fb8:	e13ffc17 	ldw	r4,-16(fp)
    9fbc:	000af9c0 	call	af9c <__sinit>
    9fc0:	80800217 	ldw	r2,8(r16)
    9fc4:	10bfffc4 	addi	r2,r2,-1
    9fc8:	80800215 	stw	r2,8(r16)
    9fcc:	80800217 	ldw	r2,8(r16)
    9fd0:	10001b0e 	bge	r2,zero,a040 <putc+0xc8>
    9fd4:	80c00217 	ldw	r3,8(r16)
    9fd8:	80800617 	ldw	r2,24(r16)
    9fdc:	18801316 	blt	r3,r2,a02c <putc+0xb4>
    9fe0:	80800017 	ldw	r2,0(r16)
    9fe4:	e0fffe17 	ldw	r3,-8(fp)
    9fe8:	10c00005 	stb	r3,0(r2)
    9fec:	80800017 	ldw	r2,0(r16)
    9ff0:	10800003 	ldbu	r2,0(r2)
    9ff4:	10803fcc 	andi	r2,r2,255
    9ff8:	108002a0 	cmpeqi	r2,r2,10
    9ffc:	1000061e 	bne	r2,zero,a018 <putc+0xa0>
    a000:	80800017 	ldw	r2,0(r16)
    a004:	10c00044 	addi	r3,r2,1
    a008:	80c00015 	stw	r3,0(r16)
    a00c:	10800003 	ldbu	r2,0(r2)
    a010:	10803fcc 	andi	r2,r2,255
    a014:	00001206 	br	a060 <putc+0xe8>
    a018:	800d883a 	mov	r6,r16
    a01c:	01400284 	movi	r5,10
    a020:	e13ffb17 	ldw	r4,-20(fp)
    a024:	000a1740 	call	a174 <__swbuf_r>
    a028:	00000d06 	br	a060 <putc+0xe8>
    a02c:	800d883a 	mov	r6,r16
    a030:	e17ffe17 	ldw	r5,-8(fp)
    a034:	e13ffb17 	ldw	r4,-20(fp)
    a038:	000a1740 	call	a174 <__swbuf_r>
    a03c:	00000806 	br	a060 <putc+0xe8>
    a040:	80800017 	ldw	r2,0(r16)
    a044:	e0fffe17 	ldw	r3,-8(fp)
    a048:	10c00005 	stb	r3,0(r2)
    a04c:	80800017 	ldw	r2,0(r16)
    a050:	10c00044 	addi	r3,r2,1
    a054:	80c00015 	stw	r3,0(r16)
    a058:	10800003 	ldbu	r2,0(r2)
    a05c:	10803fcc 	andi	r2,r2,255
    a060:	e0bffd15 	stw	r2,-12(fp)
    a064:	e0bffd17 	ldw	r2,-12(fp)
    a068:	e6ffff04 	addi	sp,fp,-4
    a06c:	dfc00217 	ldw	ra,8(sp)
    a070:	df000117 	ldw	fp,4(sp)
    a074:	dc000017 	ldw	r16,0(sp)
    a078:	dec00304 	addi	sp,sp,12
    a07c:	f800283a 	ret

0000a080 <strlen>:
    a080:	defffc04 	addi	sp,sp,-16
    a084:	df000315 	stw	fp,12(sp)
    a088:	df000304 	addi	fp,sp,12
    a08c:	e13fff15 	stw	r4,-4(fp)
    a090:	e0bfff17 	ldw	r2,-4(fp)
    a094:	e0bffe15 	stw	r2,-8(fp)
    a098:	00000d06 	br	a0d0 <strlen+0x50>
    a09c:	e0bfff17 	ldw	r2,-4(fp)
    a0a0:	10800003 	ldbu	r2,0(r2)
    a0a4:	10803fcc 	andi	r2,r2,255
    a0a8:	1080201c 	xori	r2,r2,128
    a0ac:	10bfe004 	addi	r2,r2,-128
    a0b0:	1000041e 	bne	r2,zero,a0c4 <strlen+0x44>
    a0b4:	e0ffff17 	ldw	r3,-4(fp)
    a0b8:	e0bffe17 	ldw	r2,-8(fp)
    a0bc:	1885c83a 	sub	r2,r3,r2
    a0c0:	00002806 	br	a164 <strlen+0xe4>
    a0c4:	e0bfff17 	ldw	r2,-4(fp)
    a0c8:	10800044 	addi	r2,r2,1
    a0cc:	e0bfff15 	stw	r2,-4(fp)
    a0d0:	e0bfff17 	ldw	r2,-4(fp)
    a0d4:	108000cc 	andi	r2,r2,3
    a0d8:	103ff01e 	bne	r2,zero,a09c <__alt_mem_VGA_Subsystem_Char_Buf_Subsystem_Onchip_SRAM+0xf700a09c>
    a0dc:	e0bfff17 	ldw	r2,-4(fp)
    a0e0:	e0bffd15 	stw	r2,-12(fp)
    a0e4:	00000306 	br	a0f4 <strlen+0x74>
    a0e8:	e0bffd17 	ldw	r2,-12(fp)
    a0ec:	10800104 	addi	r2,r2,4
    a0f0:	e0bffd15 	stw	r2,-12(fp)
    a0f4:	e0bffd17 	ldw	r2,-12(fp)
    a0f8:	10c00017 	ldw	r3,0(r2)
    a0fc:	00bfbff4 	movhi	r2,65279
    a100:	10bfbfc4 	addi	r2,r2,-257
    a104:	1887883a 	add	r3,r3,r2
    a108:	e0bffd17 	ldw	r2,-12(fp)
    a10c:	10800017 	ldw	r2,0(r2)
    a110:	0084303a 	nor	r2,zero,r2
    a114:	1886703a 	and	r3,r3,r2
    a118:	00a02074 	movhi	r2,32897
    a11c:	10a02004 	addi	r2,r2,-32640
    a120:	1884703a 	and	r2,r3,r2
    a124:	103ff026 	beq	r2,zero,a0e8 <__alt_mem_VGA_Subsystem_Char_Buf_Subsystem_Onchip_SRAM+0xf700a0e8>
    a128:	e0bffd17 	ldw	r2,-12(fp)
    a12c:	e0bfff15 	stw	r2,-4(fp)
    a130:	00000306 	br	a140 <strlen+0xc0>
    a134:	e0bfff17 	ldw	r2,-4(fp)
    a138:	10800044 	addi	r2,r2,1
    a13c:	e0bfff15 	stw	r2,-4(fp)
    a140:	e0bfff17 	ldw	r2,-4(fp)
    a144:	10800003 	ldbu	r2,0(r2)
    a148:	10803fcc 	andi	r2,r2,255
    a14c:	1080201c 	xori	r2,r2,128
    a150:	10bfe004 	addi	r2,r2,-128
    a154:	103ff71e 	bne	r2,zero,a134 <__alt_mem_VGA_Subsystem_Char_Buf_Subsystem_Onchip_SRAM+0xf700a134>
    a158:	e0ffff17 	ldw	r3,-4(fp)
    a15c:	e0bffe17 	ldw	r2,-8(fp)
    a160:	1885c83a 	sub	r2,r3,r2
    a164:	e037883a 	mov	sp,fp
    a168:	df000017 	ldw	fp,0(sp)
    a16c:	dec00104 	addi	sp,sp,4
    a170:	f800283a 	ret

0000a174 <__swbuf_r>:
    a174:	defff904 	addi	sp,sp,-28
    a178:	dfc00615 	stw	ra,24(sp)
    a17c:	df000515 	stw	fp,20(sp)
    a180:	dc800415 	stw	r18,16(sp)
    a184:	dc400315 	stw	r17,12(sp)
    a188:	dc000215 	stw	r16,8(sp)
    a18c:	df000504 	addi	fp,sp,20
    a190:	e13ffc15 	stw	r4,-16(fp)
    a194:	2825883a 	mov	r18,r5
    a198:	3021883a 	mov	r16,r6
    a19c:	e0bffc17 	ldw	r2,-16(fp)
    a1a0:	e0bffb15 	stw	r2,-20(fp)
    a1a4:	e0bffb17 	ldw	r2,-20(fp)
    a1a8:	10000526 	beq	r2,zero,a1c0 <__swbuf_r+0x4c>
    a1ac:	e0bffb17 	ldw	r2,-20(fp)
    a1b0:	10800e17 	ldw	r2,56(r2)
    a1b4:	1000021e 	bne	r2,zero,a1c0 <__swbuf_r+0x4c>
    a1b8:	e13ffb17 	ldw	r4,-20(fp)
    a1bc:	000af9c0 	call	af9c <__sinit>
    a1c0:	80800617 	ldw	r2,24(r16)
    a1c4:	80800215 	stw	r2,8(r16)
    a1c8:	8080030b 	ldhu	r2,12(r16)
    a1cc:	10bfffcc 	andi	r2,r2,65535
    a1d0:	1080020c 	andi	r2,r2,8
    a1d4:	10000226 	beq	r2,zero,a1e0 <__swbuf_r+0x6c>
    a1d8:	80800417 	ldw	r2,16(r16)
    a1dc:	1000061e 	bne	r2,zero,a1f8 <__swbuf_r+0x84>
    a1e0:	800b883a 	mov	r5,r16
    a1e4:	e13ffc17 	ldw	r4,-16(fp)
    a1e8:	000a31c0 	call	a31c <__swsetup_r>
    a1ec:	10000226 	beq	r2,zero,a1f8 <__swbuf_r+0x84>
    a1f0:	00bfffc4 	movi	r2,-1
    a1f4:	00003106 	br	a2bc <__swbuf_r+0x148>
    a1f8:	94803fcc 	andi	r18,r18,255
    a1fc:	8080030b 	ldhu	r2,12(r16)
    a200:	10bfffcc 	andi	r2,r2,65535
    a204:	1088000c 	andi	r2,r2,8192
    a208:	1000071e 	bne	r2,zero,a228 <__swbuf_r+0xb4>
    a20c:	8080030b 	ldhu	r2,12(r16)
    a210:	10880014 	ori	r2,r2,8192
    a214:	8080030d 	sth	r2,12(r16)
    a218:	80c01917 	ldw	r3,100(r16)
    a21c:	00b7ffc4 	movi	r2,-8193
    a220:	1884703a 	and	r2,r3,r2
    a224:	80801915 	stw	r2,100(r16)
    a228:	80800017 	ldw	r2,0(r16)
    a22c:	1007883a 	mov	r3,r2
    a230:	80800417 	ldw	r2,16(r16)
    a234:	18a3c83a 	sub	r17,r3,r2
    a238:	80800517 	ldw	r2,20(r16)
    a23c:	88800716 	blt	r17,r2,a25c <__swbuf_r+0xe8>
    a240:	800b883a 	mov	r5,r16
    a244:	e13ffc17 	ldw	r4,-16(fp)
    a248:	000ab1c0 	call	ab1c <_fflush_r>
    a24c:	10000226 	beq	r2,zero,a258 <__swbuf_r+0xe4>
    a250:	00bfffc4 	movi	r2,-1
    a254:	00001906 	br	a2bc <__swbuf_r+0x148>
    a258:	0023883a 	mov	r17,zero
    a25c:	80800217 	ldw	r2,8(r16)
    a260:	10bfffc4 	addi	r2,r2,-1
    a264:	80800215 	stw	r2,8(r16)
    a268:	80800017 	ldw	r2,0(r16)
    a26c:	10c00044 	addi	r3,r2,1
    a270:	80c00015 	stw	r3,0(r16)
    a274:	9007883a 	mov	r3,r18
    a278:	10c00005 	stb	r3,0(r2)
    a27c:	8c400044 	addi	r17,r17,1
    a280:	80800517 	ldw	r2,20(r16)
    a284:	88800626 	beq	r17,r2,a2a0 <__swbuf_r+0x12c>
    a288:	8080030b 	ldhu	r2,12(r16)
    a28c:	10bfffcc 	andi	r2,r2,65535
    a290:	1080004c 	andi	r2,r2,1
    a294:	10000826 	beq	r2,zero,a2b8 <__swbuf_r+0x144>
    a298:	90800298 	cmpnei	r2,r18,10
    a29c:	1000061e 	bne	r2,zero,a2b8 <__swbuf_r+0x144>
    a2a0:	800b883a 	mov	r5,r16
    a2a4:	e13ffc17 	ldw	r4,-16(fp)
    a2a8:	000ab1c0 	call	ab1c <_fflush_r>
    a2ac:	10000226 	beq	r2,zero,a2b8 <__swbuf_r+0x144>
    a2b0:	00bfffc4 	movi	r2,-1
    a2b4:	00000106 	br	a2bc <__swbuf_r+0x148>
    a2b8:	9005883a 	mov	r2,r18
    a2bc:	e6fffd04 	addi	sp,fp,-12
    a2c0:	dfc00417 	ldw	ra,16(sp)
    a2c4:	df000317 	ldw	fp,12(sp)
    a2c8:	dc800217 	ldw	r18,8(sp)
    a2cc:	dc400117 	ldw	r17,4(sp)
    a2d0:	dc000017 	ldw	r16,0(sp)
    a2d4:	dec00504 	addi	sp,sp,20
    a2d8:	f800283a 	ret

0000a2dc <__swbuf>:
    a2dc:	defffe04 	addi	sp,sp,-8
    a2e0:	dfc00115 	stw	ra,4(sp)
    a2e4:	df000015 	stw	fp,0(sp)
    a2e8:	d839883a 	mov	fp,sp
    a2ec:	2007883a 	mov	r3,r4
    a2f0:	2809883a 	mov	r4,r5
    a2f4:	d0a00417 	ldw	r2,-32752(gp)
    a2f8:	200d883a 	mov	r6,r4
    a2fc:	180b883a 	mov	r5,r3
    a300:	1009883a 	mov	r4,r2
    a304:	000a1740 	call	a174 <__swbuf_r>
    a308:	e037883a 	mov	sp,fp
    a30c:	dfc00117 	ldw	ra,4(sp)
    a310:	df000017 	ldw	fp,0(sp)
    a314:	dec00204 	addi	sp,sp,8
    a318:	f800283a 	ret

0000a31c <__swsetup_r>:
    a31c:	defffb04 	addi	sp,sp,-20
    a320:	dfc00415 	stw	ra,16(sp)
    a324:	df000315 	stw	fp,12(sp)
    a328:	dc000215 	stw	r16,8(sp)
    a32c:	df000304 	addi	fp,sp,12
    a330:	e13ffe15 	stw	r4,-8(fp)
    a334:	2821883a 	mov	r16,r5
    a338:	d0a00417 	ldw	r2,-32752(gp)
    a33c:	e0bffd15 	stw	r2,-12(fp)
    a340:	e0bffd17 	ldw	r2,-12(fp)
    a344:	10000526 	beq	r2,zero,a35c <__swsetup_r+0x40>
    a348:	e0bffd17 	ldw	r2,-12(fp)
    a34c:	10800e17 	ldw	r2,56(r2)
    a350:	1000021e 	bne	r2,zero,a35c <__swsetup_r+0x40>
    a354:	e13ffd17 	ldw	r4,-12(fp)
    a358:	000af9c0 	call	af9c <__sinit>
    a35c:	8080030b 	ldhu	r2,12(r16)
    a360:	10bfffcc 	andi	r2,r2,65535
    a364:	1080020c 	andi	r2,r2,8
    a368:	1000241e 	bne	r2,zero,a3fc <__swsetup_r+0xe0>
    a36c:	8080030b 	ldhu	r2,12(r16)
    a370:	10bfffcc 	andi	r2,r2,65535
    a374:	1080040c 	andi	r2,r2,16
    a378:	1000081e 	bne	r2,zero,a39c <__swsetup_r+0x80>
    a37c:	e0bffe17 	ldw	r2,-8(fp)
    a380:	00c00244 	movi	r3,9
    a384:	10c00015 	stw	r3,0(r2)
    a388:	8080030b 	ldhu	r2,12(r16)
    a38c:	10801014 	ori	r2,r2,64
    a390:	8080030d 	sth	r2,12(r16)
    a394:	00bfffc4 	movi	r2,-1
    a398:	00004206 	br	a4a4 <__swsetup_r+0x188>
    a39c:	8080030b 	ldhu	r2,12(r16)
    a3a0:	10bfffcc 	andi	r2,r2,65535
    a3a4:	1080010c 	andi	r2,r2,4
    a3a8:	10001126 	beq	r2,zero,a3f0 <__swsetup_r+0xd4>
    a3ac:	80800c17 	ldw	r2,48(r16)
    a3b0:	10000826 	beq	r2,zero,a3d4 <__swsetup_r+0xb8>
    a3b4:	80c00c17 	ldw	r3,48(r16)
    a3b8:	80801004 	addi	r2,r16,64
    a3bc:	18800426 	beq	r3,r2,a3d0 <__swsetup_r+0xb4>
    a3c0:	80800c17 	ldw	r2,48(r16)
    a3c4:	100b883a 	mov	r5,r2
    a3c8:	e13ffe17 	ldw	r4,-8(fp)
    a3cc:	000b1bc0 	call	b1bc <_free_r>
    a3d0:	80000c15 	stw	zero,48(r16)
    a3d4:	80c0030b 	ldhu	r3,12(r16)
    a3d8:	00bff6c4 	movi	r2,-37
    a3dc:	1884703a 	and	r2,r3,r2
    a3e0:	8080030d 	sth	r2,12(r16)
    a3e4:	80000115 	stw	zero,4(r16)
    a3e8:	80800417 	ldw	r2,16(r16)
    a3ec:	80800015 	stw	r2,0(r16)
    a3f0:	8080030b 	ldhu	r2,12(r16)
    a3f4:	10800214 	ori	r2,r2,8
    a3f8:	8080030d 	sth	r2,12(r16)
    a3fc:	80800417 	ldw	r2,16(r16)
    a400:	10000b1e 	bne	r2,zero,a430 <__swsetup_r+0x114>
    a404:	8080030b 	ldhu	r2,12(r16)
    a408:	10bfffcc 	andi	r2,r2,65535
    a40c:	1080800c 	andi	r2,r2,512
    a410:	10000426 	beq	r2,zero,a424 <__swsetup_r+0x108>
    a414:	8080030b 	ldhu	r2,12(r16)
    a418:	10bfffcc 	andi	r2,r2,65535
    a41c:	1080200c 	andi	r2,r2,128
    a420:	10000326 	beq	r2,zero,a430 <__swsetup_r+0x114>
    a424:	800b883a 	mov	r5,r16
    a428:	e13ffe17 	ldw	r4,-8(fp)
    a42c:	000ba980 	call	ba98 <__smakebuf_r>
    a430:	8080030b 	ldhu	r2,12(r16)
    a434:	10bfffcc 	andi	r2,r2,65535
    a438:	1080004c 	andi	r2,r2,1
    a43c:	10000526 	beq	r2,zero,a454 <__swsetup_r+0x138>
    a440:	80000215 	stw	zero,8(r16)
    a444:	80800517 	ldw	r2,20(r16)
    a448:	0085c83a 	sub	r2,zero,r2
    a44c:	80800615 	stw	r2,24(r16)
    a450:	00000806 	br	a474 <__swsetup_r+0x158>
    a454:	8080030b 	ldhu	r2,12(r16)
    a458:	10bfffcc 	andi	r2,r2,65535
    a45c:	1080008c 	andi	r2,r2,2
    a460:	1000021e 	bne	r2,zero,a46c <__swsetup_r+0x150>
    a464:	80800517 	ldw	r2,20(r16)
    a468:	00000106 	br	a470 <__swsetup_r+0x154>
    a46c:	0005883a 	mov	r2,zero
    a470:	80800215 	stw	r2,8(r16)
    a474:	80800417 	ldw	r2,16(r16)
    a478:	1000091e 	bne	r2,zero,a4a0 <__swsetup_r+0x184>
    a47c:	8080030b 	ldhu	r2,12(r16)
    a480:	10bfffcc 	andi	r2,r2,65535
    a484:	1080200c 	andi	r2,r2,128
    a488:	10000526 	beq	r2,zero,a4a0 <__swsetup_r+0x184>
    a48c:	8080030b 	ldhu	r2,12(r16)
    a490:	10801014 	ori	r2,r2,64
    a494:	8080030d 	sth	r2,12(r16)
    a498:	00bfffc4 	movi	r2,-1
    a49c:	00000106 	br	a4a4 <__swsetup_r+0x188>
    a4a0:	0005883a 	mov	r2,zero
    a4a4:	e6ffff04 	addi	sp,fp,-4
    a4a8:	dfc00217 	ldw	ra,8(sp)
    a4ac:	df000117 	ldw	fp,4(sp)
    a4b0:	dc000017 	ldw	r16,0(sp)
    a4b4:	dec00304 	addi	sp,sp,12
    a4b8:	f800283a 	ret

0000a4bc <__register_exitproc>:
    a4bc:	defff804 	addi	sp,sp,-32
    a4c0:	dfc00715 	stw	ra,28(sp)
    a4c4:	df000615 	stw	fp,24(sp)
    a4c8:	dc000515 	stw	r16,20(sp)
    a4cc:	df000604 	addi	fp,sp,24
    a4d0:	e13ffb15 	stw	r4,-20(fp)
    a4d4:	e17ffc15 	stw	r5,-16(fp)
    a4d8:	e1bffd15 	stw	r6,-12(fp)
    a4dc:	e1fffe15 	stw	r7,-8(fp)
    a4e0:	d0a00517 	ldw	r2,-32748(gp)
    a4e4:	14005217 	ldw	r16,328(r2)
    a4e8:	8000041e 	bne	r16,zero,a4fc <__register_exitproc+0x40>
    a4ec:	d0a00517 	ldw	r2,-32748(gp)
    a4f0:	d0e00517 	ldw	r3,-32748(gp)
    a4f4:	1c005304 	addi	r16,r3,332
    a4f8:	14005215 	stw	r16,328(r2)
    a4fc:	80800117 	ldw	r2,4(r16)
    a500:	10800810 	cmplti	r2,r2,32
    a504:	1000131e 	bne	r2,zero,a554 <__register_exitproc+0x98>
    a508:	00800034 	movhi	r2,0
    a50c:	10800004 	addi	r2,r2,0
    a510:	1000021e 	bne	r2,zero,a51c <__register_exitproc+0x60>
    a514:	00bfffc4 	movi	r2,-1
    a518:	00003e06 	br	a614 <__register_exitproc+0x158>
    a51c:	01006404 	movi	r4,400
    a520:	00000000 	call	0 <__alt_mem_SDRAM>
    a524:	1021883a 	mov	r16,r2
    a528:	8000021e 	bne	r16,zero,a534 <__register_exitproc+0x78>
    a52c:	00bfffc4 	movi	r2,-1
    a530:	00003806 	br	a614 <__register_exitproc+0x158>
    a534:	80000115 	stw	zero,4(r16)
    a538:	d0a00517 	ldw	r2,-32748(gp)
    a53c:	10805217 	ldw	r2,328(r2)
    a540:	80800015 	stw	r2,0(r16)
    a544:	d0a00517 	ldw	r2,-32748(gp)
    a548:	14005215 	stw	r16,328(r2)
    a54c:	80006215 	stw	zero,392(r16)
    a550:	80006315 	stw	zero,396(r16)
    a554:	e0bffb17 	ldw	r2,-20(fp)
    a558:	10002426 	beq	r2,zero,a5ec <__register_exitproc+0x130>
    a55c:	80802204 	addi	r2,r16,136
    a560:	e0bffa15 	stw	r2,-24(fp)
    a564:	80800117 	ldw	r2,4(r16)
    a568:	e0fffa17 	ldw	r3,-24(fp)
    a56c:	1085883a 	add	r2,r2,r2
    a570:	1085883a 	add	r2,r2,r2
    a574:	1885883a 	add	r2,r3,r2
    a578:	e0fffd17 	ldw	r3,-12(fp)
    a57c:	10c00015 	stw	r3,0(r2)
    a580:	e0bffa17 	ldw	r2,-24(fp)
    a584:	10804017 	ldw	r2,256(r2)
    a588:	80c00117 	ldw	r3,4(r16)
    a58c:	01000044 	movi	r4,1
    a590:	20c6983a 	sll	r3,r4,r3
    a594:	10c6b03a 	or	r3,r2,r3
    a598:	e0bffa17 	ldw	r2,-24(fp)
    a59c:	10c04015 	stw	r3,256(r2)
    a5a0:	80800117 	ldw	r2,4(r16)
    a5a4:	e0fffa17 	ldw	r3,-24(fp)
    a5a8:	10800804 	addi	r2,r2,32
    a5ac:	1085883a 	add	r2,r2,r2
    a5b0:	1085883a 	add	r2,r2,r2
    a5b4:	1885883a 	add	r2,r3,r2
    a5b8:	e0fffe17 	ldw	r3,-8(fp)
    a5bc:	10c00015 	stw	r3,0(r2)
    a5c0:	e0bffb17 	ldw	r2,-20(fp)
    a5c4:	10800098 	cmpnei	r2,r2,2
    a5c8:	1000081e 	bne	r2,zero,a5ec <__register_exitproc+0x130>
    a5cc:	e0bffa17 	ldw	r2,-24(fp)
    a5d0:	10804117 	ldw	r2,260(r2)
    a5d4:	80c00117 	ldw	r3,4(r16)
    a5d8:	01000044 	movi	r4,1
    a5dc:	20c6983a 	sll	r3,r4,r3
    a5e0:	10c6b03a 	or	r3,r2,r3
    a5e4:	e0bffa17 	ldw	r2,-24(fp)
    a5e8:	10c04115 	stw	r3,260(r2)
    a5ec:	80800117 	ldw	r2,4(r16)
    a5f0:	10c00044 	addi	r3,r2,1
    a5f4:	80c00115 	stw	r3,4(r16)
    a5f8:	10800084 	addi	r2,r2,2
    a5fc:	1085883a 	add	r2,r2,r2
    a600:	1085883a 	add	r2,r2,r2
    a604:	8085883a 	add	r2,r16,r2
    a608:	e0fffc17 	ldw	r3,-16(fp)
    a60c:	10c00015 	stw	r3,0(r2)
    a610:	0005883a 	mov	r2,zero
    a614:	e6ffff04 	addi	sp,fp,-4
    a618:	dfc00217 	ldw	ra,8(sp)
    a61c:	df000117 	ldw	fp,4(sp)
    a620:	dc000017 	ldw	r16,0(sp)
    a624:	dec00304 	addi	sp,sp,12
    a628:	f800283a 	ret

0000a62c <__call_exitprocs>:
    a62c:	defff504 	addi	sp,sp,-44
    a630:	dfc00a15 	stw	ra,40(sp)
    a634:	df000915 	stw	fp,36(sp)
    a638:	dc800815 	stw	r18,32(sp)
    a63c:	dc400715 	stw	r17,28(sp)
    a640:	dc000615 	stw	r16,24(sp)
    a644:	df000904 	addi	fp,sp,36
    a648:	e13ffb15 	stw	r4,-20(fp)
    a64c:	e17ffc15 	stw	r5,-16(fp)
    a650:	d0a00517 	ldw	r2,-32748(gp)
    a654:	14005217 	ldw	r16,328(r2)
    a658:	d0a00517 	ldw	r2,-32748(gp)
    a65c:	10805204 	addi	r2,r2,328
    a660:	e0bff715 	stw	r2,-36(fp)
    a664:	00006006 	br	a7e8 <__call_exitprocs+0x1bc>
    a668:	84802204 	addi	r18,r16,136
    a66c:	80800117 	ldw	r2,4(r16)
    a670:	147fffc4 	addi	r17,r2,-1
    a674:	00004a06 	br	a7a0 <__call_exitprocs+0x174>
    a678:	00800044 	movi	r2,1
    a67c:	1444983a 	sll	r2,r2,r17
    a680:	e0bff815 	stw	r2,-32(fp)
    a684:	e0bffc17 	ldw	r2,-16(fp)
    a688:	10000826 	beq	r2,zero,a6ac <__call_exitprocs+0x80>
    a68c:	90004026 	beq	r18,zero,a790 <__call_exitprocs+0x164>
    a690:	88800804 	addi	r2,r17,32
    a694:	1085883a 	add	r2,r2,r2
    a698:	1085883a 	add	r2,r2,r2
    a69c:	9085883a 	add	r2,r18,r2
    a6a0:	10c00017 	ldw	r3,0(r2)
    a6a4:	e0bffc17 	ldw	r2,-16(fp)
    a6a8:	1880391e 	bne	r3,r2,a790 <__call_exitprocs+0x164>
    a6ac:	88800084 	addi	r2,r17,2
    a6b0:	1085883a 	add	r2,r2,r2
    a6b4:	1085883a 	add	r2,r2,r2
    a6b8:	8085883a 	add	r2,r16,r2
    a6bc:	10800017 	ldw	r2,0(r2)
    a6c0:	e0bff915 	stw	r2,-28(fp)
    a6c4:	80800117 	ldw	r2,4(r16)
    a6c8:	10bfffc4 	addi	r2,r2,-1
    a6cc:	1440041e 	bne	r2,r17,a6e0 <__call_exitprocs+0xb4>
    a6d0:	80800117 	ldw	r2,4(r16)
    a6d4:	10bfffc4 	addi	r2,r2,-1
    a6d8:	80800115 	stw	r2,4(r16)
    a6dc:	00000506 	br	a6f4 <__call_exitprocs+0xc8>
    a6e0:	88800084 	addi	r2,r17,2
    a6e4:	1085883a 	add	r2,r2,r2
    a6e8:	1085883a 	add	r2,r2,r2
    a6ec:	8085883a 	add	r2,r16,r2
    a6f0:	10000015 	stw	zero,0(r2)
    a6f4:	e0bff917 	ldw	r2,-28(fp)
    a6f8:	10002726 	beq	r2,zero,a798 <__call_exitprocs+0x16c>
    a6fc:	80800117 	ldw	r2,4(r16)
    a700:	e0bffa15 	stw	r2,-24(fp)
    a704:	90000426 	beq	r18,zero,a718 <__call_exitprocs+0xec>
    a708:	90c04017 	ldw	r3,256(r18)
    a70c:	e0bff817 	ldw	r2,-32(fp)
    a710:	1884703a 	and	r2,r3,r2
    a714:	1000031e 	bne	r2,zero,a724 <__call_exitprocs+0xf8>
    a718:	e0bff917 	ldw	r2,-28(fp)
    a71c:	103ee83a 	callr	r2
    a720:	00001406 	br	a774 <__call_exitprocs+0x148>
    a724:	90c04117 	ldw	r3,260(r18)
    a728:	e0bff817 	ldw	r2,-32(fp)
    a72c:	1884703a 	and	r2,r3,r2
    a730:	1000091e 	bne	r2,zero,a758 <__call_exitprocs+0x12c>
    a734:	8c45883a 	add	r2,r17,r17
    a738:	1085883a 	add	r2,r2,r2
    a73c:	9085883a 	add	r2,r18,r2
    a740:	10c00017 	ldw	r3,0(r2)
    a744:	e0bff917 	ldw	r2,-28(fp)
    a748:	180b883a 	mov	r5,r3
    a74c:	e13ffb17 	ldw	r4,-20(fp)
    a750:	103ee83a 	callr	r2
    a754:	00000706 	br	a774 <__call_exitprocs+0x148>
    a758:	8c45883a 	add	r2,r17,r17
    a75c:	1085883a 	add	r2,r2,r2
    a760:	9085883a 	add	r2,r18,r2
    a764:	10c00017 	ldw	r3,0(r2)
    a768:	e0bff917 	ldw	r2,-28(fp)
    a76c:	1809883a 	mov	r4,r3
    a770:	103ee83a 	callr	r2
    a774:	80c00117 	ldw	r3,4(r16)
    a778:	e0bffa17 	ldw	r2,-24(fp)
    a77c:	18bfb41e 	bne	r3,r2,a650 <__alt_mem_VGA_Subsystem_Char_Buf_Subsystem_Onchip_SRAM+0xf700a650>
    a780:	e0bff717 	ldw	r2,-36(fp)
    a784:	10800017 	ldw	r2,0(r2)
    a788:	143fb11e 	bne	r2,r16,a650 <__alt_mem_VGA_Subsystem_Char_Buf_Subsystem_Onchip_SRAM+0xf700a650>
    a78c:	00000306 	br	a79c <__call_exitprocs+0x170>
    a790:	0001883a 	nop
    a794:	00000106 	br	a79c <__call_exitprocs+0x170>
    a798:	0001883a 	nop
    a79c:	8c7fffc4 	addi	r17,r17,-1
    a7a0:	883fb50e 	bge	r17,zero,a678 <__alt_mem_VGA_Subsystem_Char_Buf_Subsystem_Onchip_SRAM+0xf700a678>
    a7a4:	00800034 	movhi	r2,0
    a7a8:	10800004 	addi	r2,r2,0
    a7ac:	10001026 	beq	r2,zero,a7f0 <__call_exitprocs+0x1c4>
    a7b0:	80800117 	ldw	r2,4(r16)
    a7b4:	10000a1e 	bne	r2,zero,a7e0 <__call_exitprocs+0x1b4>
    a7b8:	80800017 	ldw	r2,0(r16)
    a7bc:	10000826 	beq	r2,zero,a7e0 <__call_exitprocs+0x1b4>
    a7c0:	80c00017 	ldw	r3,0(r16)
    a7c4:	e0bff717 	ldw	r2,-36(fp)
    a7c8:	10c00015 	stw	r3,0(r2)
    a7cc:	8009883a 	mov	r4,r16
    a7d0:	00000000 	call	0 <__alt_mem_SDRAM>
    a7d4:	e0bff717 	ldw	r2,-36(fp)
    a7d8:	14000017 	ldw	r16,0(r2)
    a7dc:	00000206 	br	a7e8 <__call_exitprocs+0x1bc>
    a7e0:	e43ff715 	stw	r16,-36(fp)
    a7e4:	84000017 	ldw	r16,0(r16)
    a7e8:	803f9f1e 	bne	r16,zero,a668 <__alt_mem_VGA_Subsystem_Char_Buf_Subsystem_Onchip_SRAM+0xf700a668>
    a7ec:	00000106 	br	a7f4 <__call_exitprocs+0x1c8>
    a7f0:	0001883a 	nop
    a7f4:	0001883a 	nop
    a7f8:	e6fffd04 	addi	sp,fp,-12
    a7fc:	dfc00417 	ldw	ra,16(sp)
    a800:	df000317 	ldw	fp,12(sp)
    a804:	dc800217 	ldw	r18,8(sp)
    a808:	dc400117 	ldw	r17,4(sp)
    a80c:	dc000017 	ldw	r16,0(sp)
    a810:	dec00504 	addi	sp,sp,20
    a814:	f800283a 	ret

0000a818 <__sflush_r>:
    a818:	defff504 	addi	sp,sp,-44
    a81c:	dfc00a15 	stw	ra,40(sp)
    a820:	df000915 	stw	fp,36(sp)
    a824:	dcc00815 	stw	r19,32(sp)
    a828:	dc800715 	stw	r18,28(sp)
    a82c:	dc400615 	stw	r17,24(sp)
    a830:	dc000515 	stw	r16,20(sp)
    a834:	df000904 	addi	fp,sp,36
    a838:	e13ffb15 	stw	r4,-20(fp)
    a83c:	2821883a 	mov	r16,r5
    a840:	8080030b 	ldhu	r2,12(r16)
    a844:	e0bff90d 	sth	r2,-28(fp)
    a848:	e0bff90b 	ldhu	r2,-28(fp)
    a84c:	10bfffcc 	andi	r2,r2,65535
    a850:	1080020c 	andi	r2,r2,8
    a854:	1000831e 	bne	r2,zero,aa64 <__sflush_r+0x24c>
    a858:	8080030b 	ldhu	r2,12(r16)
    a85c:	10820014 	ori	r2,r2,2048
    a860:	8080030d 	sth	r2,12(r16)
    a864:	80800117 	ldw	r2,4(r16)
    a868:	00800216 	blt	zero,r2,a874 <__sflush_r+0x5c>
    a86c:	80800f17 	ldw	r2,60(r16)
    a870:	00807a0e 	bge	zero,r2,aa5c <__sflush_r+0x244>
    a874:	80800a17 	ldw	r2,40(r16)
    a878:	10007826 	beq	r2,zero,aa5c <__sflush_r+0x244>
    a87c:	e0bffb17 	ldw	r2,-20(fp)
    a880:	10800017 	ldw	r2,0(r2)
    a884:	e0bffa15 	stw	r2,-24(fp)
    a888:	e0bffb17 	ldw	r2,-20(fp)
    a88c:	10000015 	stw	zero,0(r2)
    a890:	8080030b 	ldhu	r2,12(r16)
    a894:	10bfffcc 	andi	r2,r2,65535
    a898:	1084000c 	andi	r2,r2,4096
    a89c:	10000326 	beq	r2,zero,a8ac <__sflush_r+0x94>
    a8a0:	80801417 	ldw	r2,80(r16)
    a8a4:	e0bff715 	stw	r2,-36(fp)
    a8a8:	00002206 	br	a934 <__sflush_r+0x11c>
    a8ac:	80800a17 	ldw	r2,40(r16)
    a8b0:	80c00717 	ldw	r3,28(r16)
    a8b4:	01c00044 	movi	r7,1
    a8b8:	000d883a 	mov	r6,zero
    a8bc:	180b883a 	mov	r5,r3
    a8c0:	e13ffb17 	ldw	r4,-20(fp)
    a8c4:	103ee83a 	callr	r2
    a8c8:	e0bff715 	stw	r2,-36(fp)
    a8cc:	e0bff717 	ldw	r2,-36(fp)
    a8d0:	10bfffd8 	cmpnei	r2,r2,-1
    a8d4:	1000171e 	bne	r2,zero,a934 <__sflush_r+0x11c>
    a8d8:	e0bffb17 	ldw	r2,-20(fp)
    a8dc:	10800017 	ldw	r2,0(r2)
    a8e0:	10001426 	beq	r2,zero,a934 <__sflush_r+0x11c>
    a8e4:	00bfffc4 	movi	r2,-1
    a8e8:	e0bff815 	stw	r2,-32(fp)
    a8ec:	e0bffb17 	ldw	r2,-20(fp)
    a8f0:	10800017 	ldw	r2,0(r2)
    a8f4:	10800760 	cmpeqi	r2,r2,29
    a8f8:	1000041e 	bne	r2,zero,a90c <__sflush_r+0xf4>
    a8fc:	e0bffb17 	ldw	r2,-20(fp)
    a900:	10800017 	ldw	r2,0(r2)
    a904:	10800598 	cmpnei	r2,r2,22
    a908:	1000051e 	bne	r2,zero,a920 <__sflush_r+0x108>
    a90c:	e03ff815 	stw	zero,-32(fp)
    a910:	e0bffb17 	ldw	r2,-20(fp)
    a914:	e0fffa17 	ldw	r3,-24(fp)
    a918:	10c00015 	stw	r3,0(r2)
    a91c:	00000306 	br	a92c <__sflush_r+0x114>
    a920:	8080030b 	ldhu	r2,12(r16)
    a924:	10801014 	ori	r2,r2,64
    a928:	8080030d 	sth	r2,12(r16)
    a92c:	e0bff817 	ldw	r2,-32(fp)
    a930:	00007106 	br	aaf8 <__sflush_r+0x2e0>
    a934:	8080030b 	ldhu	r2,12(r16)
    a938:	10bfffcc 	andi	r2,r2,65535
    a93c:	1080010c 	andi	r2,r2,4
    a940:	10000a26 	beq	r2,zero,a96c <__sflush_r+0x154>
    a944:	80800117 	ldw	r2,4(r16)
    a948:	e0fff717 	ldw	r3,-36(fp)
    a94c:	1885c83a 	sub	r2,r3,r2
    a950:	e0bff715 	stw	r2,-36(fp)
    a954:	80800c17 	ldw	r2,48(r16)
    a958:	10000426 	beq	r2,zero,a96c <__sflush_r+0x154>
    a95c:	80800f17 	ldw	r2,60(r16)
    a960:	e0fff717 	ldw	r3,-36(fp)
    a964:	1885c83a 	sub	r2,r3,r2
    a968:	e0bff715 	stw	r2,-36(fp)
    a96c:	80800a17 	ldw	r2,40(r16)
    a970:	80c00717 	ldw	r3,28(r16)
    a974:	000f883a 	mov	r7,zero
    a978:	e1bff717 	ldw	r6,-36(fp)
    a97c:	180b883a 	mov	r5,r3
    a980:	e13ffb17 	ldw	r4,-20(fp)
    a984:	103ee83a 	callr	r2
    a988:	e0bff715 	stw	r2,-36(fp)
    a98c:	e0bff717 	ldw	r2,-36(fp)
    a990:	10bfffd8 	cmpnei	r2,r2,-1
    a994:	10000b1e 	bne	r2,zero,a9c4 <__sflush_r+0x1ac>
    a998:	e0bffb17 	ldw	r2,-20(fp)
    a99c:	10800017 	ldw	r2,0(r2)
    a9a0:	10000826 	beq	r2,zero,a9c4 <__sflush_r+0x1ac>
    a9a4:	e0bffb17 	ldw	r2,-20(fp)
    a9a8:	10800017 	ldw	r2,0(r2)
    a9ac:	10800760 	cmpeqi	r2,r2,29
    a9b0:	1000041e 	bne	r2,zero,a9c4 <__sflush_r+0x1ac>
    a9b4:	e0bffb17 	ldw	r2,-20(fp)
    a9b8:	10800017 	ldw	r2,0(r2)
    a9bc:	10800598 	cmpnei	r2,r2,22
    a9c0:	1000211e 	bne	r2,zero,aa48 <__sflush_r+0x230>
    a9c4:	80c0030b 	ldhu	r3,12(r16)
    a9c8:	00bdffc4 	movi	r2,-2049
    a9cc:	1884703a 	and	r2,r3,r2
    a9d0:	8080030d 	sth	r2,12(r16)
    a9d4:	80000115 	stw	zero,4(r16)
    a9d8:	80800417 	ldw	r2,16(r16)
    a9dc:	80800015 	stw	r2,0(r16)
    a9e0:	8080030b 	ldhu	r2,12(r16)
    a9e4:	10bfffcc 	andi	r2,r2,65535
    a9e8:	1084000c 	andi	r2,r2,4096
    a9ec:	10000826 	beq	r2,zero,aa10 <__sflush_r+0x1f8>
    a9f0:	e0bff717 	ldw	r2,-36(fp)
    a9f4:	10bfffd8 	cmpnei	r2,r2,-1
    a9f8:	1000031e 	bne	r2,zero,aa08 <__sflush_r+0x1f0>
    a9fc:	e0bffb17 	ldw	r2,-20(fp)
    aa00:	10800017 	ldw	r2,0(r2)
    aa04:	1000021e 	bne	r2,zero,aa10 <__sflush_r+0x1f8>
    aa08:	e0bff717 	ldw	r2,-36(fp)
    aa0c:	80801415 	stw	r2,80(r16)
    aa10:	e0bffb17 	ldw	r2,-20(fp)
    aa14:	e0fffa17 	ldw	r3,-24(fp)
    aa18:	10c00015 	stw	r3,0(r2)
    aa1c:	80800c17 	ldw	r2,48(r16)
    aa20:	10000e26 	beq	r2,zero,aa5c <__sflush_r+0x244>
    aa24:	80c00c17 	ldw	r3,48(r16)
    aa28:	80801004 	addi	r2,r16,64
    aa2c:	18800426 	beq	r3,r2,aa40 <__sflush_r+0x228>
    aa30:	80800c17 	ldw	r2,48(r16)
    aa34:	100b883a 	mov	r5,r2
    aa38:	e13ffb17 	ldw	r4,-20(fp)
    aa3c:	000b1bc0 	call	b1bc <_free_r>
    aa40:	80000c15 	stw	zero,48(r16)
    aa44:	00000506 	br	aa5c <__sflush_r+0x244>
    aa48:	8080030b 	ldhu	r2,12(r16)
    aa4c:	10801014 	ori	r2,r2,64
    aa50:	8080030d 	sth	r2,12(r16)
    aa54:	00bfffc4 	movi	r2,-1
    aa58:	00002706 	br	aaf8 <__sflush_r+0x2e0>
    aa5c:	0005883a 	mov	r2,zero
    aa60:	00002506 	br	aaf8 <__sflush_r+0x2e0>
    aa64:	84400417 	ldw	r17,16(r16)
    aa68:	8800021e 	bne	r17,zero,aa74 <__sflush_r+0x25c>
    aa6c:	0005883a 	mov	r2,zero
    aa70:	00002106 	br	aaf8 <__sflush_r+0x2e0>
    aa74:	80800017 	ldw	r2,0(r16)
    aa78:	1007883a 	mov	r3,r2
    aa7c:	8805883a 	mov	r2,r17
    aa80:	18a5c83a 	sub	r18,r3,r2
    aa84:	84400015 	stw	r17,0(r16)
    aa88:	e0bff90b 	ldhu	r2,-28(fp)
    aa8c:	10bfffcc 	andi	r2,r2,65535
    aa90:	108000cc 	andi	r2,r2,3
    aa94:	1000021e 	bne	r2,zero,aaa0 <__sflush_r+0x288>
    aa98:	80800517 	ldw	r2,20(r16)
    aa9c:	00000106 	br	aaa4 <__sflush_r+0x28c>
    aaa0:	0005883a 	mov	r2,zero
    aaa4:	80800215 	stw	r2,8(r16)
    aaa8:	00001106 	br	aaf0 <__sflush_r+0x2d8>
    aaac:	80800917 	ldw	r2,36(r16)
    aab0:	80c00717 	ldw	r3,28(r16)
    aab4:	900f883a 	mov	r7,r18
    aab8:	880d883a 	mov	r6,r17
    aabc:	180b883a 	mov	r5,r3
    aac0:	e13ffb17 	ldw	r4,-20(fp)
    aac4:	103ee83a 	callr	r2
    aac8:	1027883a 	mov	r19,r2
    aacc:	04c00516 	blt	zero,r19,aae4 <__sflush_r+0x2cc>
    aad0:	8080030b 	ldhu	r2,12(r16)
    aad4:	10801014 	ori	r2,r2,64
    aad8:	8080030d 	sth	r2,12(r16)
    aadc:	00bfffc4 	movi	r2,-1
    aae0:	00000506 	br	aaf8 <__sflush_r+0x2e0>
    aae4:	9805883a 	mov	r2,r19
    aae8:	88a3883a 	add	r17,r17,r2
    aaec:	94e5c83a 	sub	r18,r18,r19
    aaf0:	04bfee16 	blt	zero,r18,aaac <__alt_mem_VGA_Subsystem_Char_Buf_Subsystem_Onchip_SRAM+0xf700aaac>
    aaf4:	0005883a 	mov	r2,zero
    aaf8:	e6fffc04 	addi	sp,fp,-16
    aafc:	dfc00517 	ldw	ra,20(sp)
    ab00:	df000417 	ldw	fp,16(sp)
    ab04:	dcc00317 	ldw	r19,12(sp)
    ab08:	dc800217 	ldw	r18,8(sp)
    ab0c:	dc400117 	ldw	r17,4(sp)
    ab10:	dc000017 	ldw	r16,0(sp)
    ab14:	dec00604 	addi	sp,sp,24
    ab18:	f800283a 	ret

0000ab1c <_fflush_r>:
    ab1c:	defffa04 	addi	sp,sp,-24
    ab20:	dfc00515 	stw	ra,20(sp)
    ab24:	df000415 	stw	fp,16(sp)
    ab28:	dc000315 	stw	r16,12(sp)
    ab2c:	df000404 	addi	fp,sp,16
    ab30:	e13ffe15 	stw	r4,-8(fp)
    ab34:	2821883a 	mov	r16,r5
    ab38:	e0bffe17 	ldw	r2,-8(fp)
    ab3c:	e0bffc15 	stw	r2,-16(fp)
    ab40:	e0bffc17 	ldw	r2,-16(fp)
    ab44:	10000526 	beq	r2,zero,ab5c <_fflush_r+0x40>
    ab48:	e0bffc17 	ldw	r2,-16(fp)
    ab4c:	10800e17 	ldw	r2,56(r2)
    ab50:	1000021e 	bne	r2,zero,ab5c <_fflush_r+0x40>
    ab54:	e13ffc17 	ldw	r4,-16(fp)
    ab58:	000af9c0 	call	af9c <__sinit>
    ab5c:	8080030b 	ldhu	r2,12(r16)
    ab60:	10bfffcc 	andi	r2,r2,65535
    ab64:	10a0001c 	xori	r2,r2,32768
    ab68:	10a00004 	addi	r2,r2,-32768
    ab6c:	1000021e 	bne	r2,zero,ab78 <_fflush_r+0x5c>
    ab70:	0005883a 	mov	r2,zero
    ab74:	00000506 	br	ab8c <_fflush_r+0x70>
    ab78:	800b883a 	mov	r5,r16
    ab7c:	e13ffe17 	ldw	r4,-8(fp)
    ab80:	000a8180 	call	a818 <__sflush_r>
    ab84:	e0bffd15 	stw	r2,-12(fp)
    ab88:	e0bffd17 	ldw	r2,-12(fp)
    ab8c:	e6ffff04 	addi	sp,fp,-4
    ab90:	dfc00217 	ldw	ra,8(sp)
    ab94:	df000117 	ldw	fp,4(sp)
    ab98:	dc000017 	ldw	r16,0(sp)
    ab9c:	dec00304 	addi	sp,sp,12
    aba0:	f800283a 	ret

0000aba4 <fflush>:
    aba4:	defffe04 	addi	sp,sp,-8
    aba8:	dfc00115 	stw	ra,4(sp)
    abac:	df000015 	stw	fp,0(sp)
    abb0:	d839883a 	mov	fp,sp
    abb4:	2005883a 	mov	r2,r4
    abb8:	1000061e 	bne	r2,zero,abd4 <fflush+0x30>
    abbc:	d0a00517 	ldw	r2,-32748(gp)
    abc0:	01400074 	movhi	r5,1
    abc4:	296ac704 	addi	r5,r5,-21732
    abc8:	1009883a 	mov	r4,r2
    abcc:	000b9bc0 	call	b9bc <_fwalk_reent>
    abd0:	00000406 	br	abe4 <fflush+0x40>
    abd4:	d0e00417 	ldw	r3,-32752(gp)
    abd8:	100b883a 	mov	r5,r2
    abdc:	1809883a 	mov	r4,r3
    abe0:	000ab1c0 	call	ab1c <_fflush_r>
    abe4:	e037883a 	mov	sp,fp
    abe8:	dfc00117 	ldw	ra,4(sp)
    abec:	df000017 	ldw	fp,0(sp)
    abf0:	dec00204 	addi	sp,sp,8
    abf4:	f800283a 	ret

0000abf8 <std>:
    abf8:	defffa04 	addi	sp,sp,-24
    abfc:	dfc00515 	stw	ra,20(sp)
    ac00:	df000415 	stw	fp,16(sp)
    ac04:	df000404 	addi	fp,sp,16
    ac08:	e13ffc15 	stw	r4,-16(fp)
    ac0c:	e17ffd15 	stw	r5,-12(fp)
    ac10:	e1bffe15 	stw	r6,-8(fp)
    ac14:	e1ffff15 	stw	r7,-4(fp)
    ac18:	e0bffc17 	ldw	r2,-16(fp)
    ac1c:	10000015 	stw	zero,0(r2)
    ac20:	e0bffc17 	ldw	r2,-16(fp)
    ac24:	10000115 	stw	zero,4(r2)
    ac28:	e0bffc17 	ldw	r2,-16(fp)
    ac2c:	10000215 	stw	zero,8(r2)
    ac30:	e0bffd17 	ldw	r2,-12(fp)
    ac34:	1007883a 	mov	r3,r2
    ac38:	e0bffc17 	ldw	r2,-16(fp)
    ac3c:	10c0030d 	sth	r3,12(r2)
    ac40:	e0bffc17 	ldw	r2,-16(fp)
    ac44:	10001915 	stw	zero,100(r2)
    ac48:	e0bffe17 	ldw	r2,-8(fp)
    ac4c:	1007883a 	mov	r3,r2
    ac50:	e0bffc17 	ldw	r2,-16(fp)
    ac54:	10c0038d 	sth	r3,14(r2)
    ac58:	e0bffc17 	ldw	r2,-16(fp)
    ac5c:	10000415 	stw	zero,16(r2)
    ac60:	e0bffc17 	ldw	r2,-16(fp)
    ac64:	10000515 	stw	zero,20(r2)
    ac68:	e0bffc17 	ldw	r2,-16(fp)
    ac6c:	10000615 	stw	zero,24(r2)
    ac70:	e0bffc17 	ldw	r2,-16(fp)
    ac74:	10801704 	addi	r2,r2,92
    ac78:	01800204 	movi	r6,8
    ac7c:	000b883a 	mov	r5,zero
    ac80:	1009883a 	mov	r4,r2
    ac84:	000cbf40 	call	cbf4 <memset>
    ac88:	e0bffc17 	ldw	r2,-16(fp)
    ac8c:	e0fffc17 	ldw	r3,-16(fp)
    ac90:	10c00715 	stw	r3,28(r2)
    ac94:	e0fffc17 	ldw	r3,-16(fp)
    ac98:	00800074 	movhi	r2,1
    ac9c:	10b38604 	addi	r2,r2,-12776
    aca0:	18800815 	stw	r2,32(r3)
    aca4:	e0fffc17 	ldw	r3,-16(fp)
    aca8:	00800074 	movhi	r2,1
    acac:	10b3b904 	addi	r2,r2,-12572
    acb0:	18800915 	stw	r2,36(r3)
    acb4:	e0fffc17 	ldw	r3,-16(fp)
    acb8:	00800074 	movhi	r2,1
    acbc:	10b3e604 	addi	r2,r2,-12392
    acc0:	18800a15 	stw	r2,40(r3)
    acc4:	e0fffc17 	ldw	r3,-16(fp)
    acc8:	00800074 	movhi	r2,1
    accc:	10b40e04 	addi	r2,r2,-12232
    acd0:	18800b15 	stw	r2,44(r3)
    acd4:	0001883a 	nop
    acd8:	e037883a 	mov	sp,fp
    acdc:	dfc00117 	ldw	ra,4(sp)
    ace0:	df000017 	ldw	fp,0(sp)
    ace4:	dec00204 	addi	sp,sp,8
    ace8:	f800283a 	ret

0000acec <__sfmoreglue>:
    acec:	defffb04 	addi	sp,sp,-20
    acf0:	dfc00415 	stw	ra,16(sp)
    acf4:	df000315 	stw	fp,12(sp)
    acf8:	dc000215 	stw	r16,8(sp)
    acfc:	df000304 	addi	fp,sp,12
    ad00:	e13ffe15 	stw	r4,-8(fp)
    ad04:	2821883a 	mov	r16,r5
    ad08:	80bfffc4 	addi	r2,r16,-1
    ad0c:	10801a24 	muli	r2,r2,104
    ad10:	10801d04 	addi	r2,r2,116
    ad14:	100b883a 	mov	r5,r2
    ad18:	e13ffe17 	ldw	r4,-8(fp)
    ad1c:	000c0780 	call	c078 <_malloc_r>
    ad20:	e0bffd15 	stw	r2,-12(fp)
    ad24:	e0bffd17 	ldw	r2,-12(fp)
    ad28:	1000021e 	bne	r2,zero,ad34 <__sfmoreglue+0x48>
    ad2c:	0005883a 	mov	r2,zero
    ad30:	00001106 	br	ad78 <__sfmoreglue+0x8c>
    ad34:	e0bffd17 	ldw	r2,-12(fp)
    ad38:	10000015 	stw	zero,0(r2)
    ad3c:	e0bffd17 	ldw	r2,-12(fp)
    ad40:	14000115 	stw	r16,4(r2)
    ad44:	e0bffd17 	ldw	r2,-12(fp)
    ad48:	10c00304 	addi	r3,r2,12
    ad4c:	e0bffd17 	ldw	r2,-12(fp)
    ad50:	10c00215 	stw	r3,8(r2)
    ad54:	e0bffd17 	ldw	r2,-12(fp)
    ad58:	10800304 	addi	r2,r2,12
    ad5c:	8007883a 	mov	r3,r16
    ad60:	18c01a24 	muli	r3,r3,104
    ad64:	180d883a 	mov	r6,r3
    ad68:	000b883a 	mov	r5,zero
    ad6c:	1009883a 	mov	r4,r2
    ad70:	000cbf40 	call	cbf4 <memset>
    ad74:	e0bffd17 	ldw	r2,-12(fp)
    ad78:	e6ffff04 	addi	sp,fp,-4
    ad7c:	dfc00217 	ldw	ra,8(sp)
    ad80:	df000117 	ldw	fp,4(sp)
    ad84:	dc000017 	ldw	r16,0(sp)
    ad88:	dec00304 	addi	sp,sp,12
    ad8c:	f800283a 	ret

0000ad90 <__sfp>:
    ad90:	defffa04 	addi	sp,sp,-24
    ad94:	dfc00515 	stw	ra,20(sp)
    ad98:	df000415 	stw	fp,16(sp)
    ad9c:	df000404 	addi	fp,sp,16
    ada0:	e13fff15 	stw	r4,-4(fp)
    ada4:	000b0740 	call	b074 <__sfp_lock_acquire>
    ada8:	d0a00517 	ldw	r2,-32748(gp)
    adac:	10800e17 	ldw	r2,56(r2)
    adb0:	1000031e 	bne	r2,zero,adc0 <__sfp+0x30>
    adb4:	d0a00517 	ldw	r2,-32748(gp)
    adb8:	1009883a 	mov	r4,r2
    adbc:	000af9c0 	call	af9c <__sinit>
    adc0:	d0a00517 	ldw	r2,-32748(gp)
    adc4:	1080b804 	addi	r2,r2,736
    adc8:	e0bffe15 	stw	r2,-8(fp)
    adcc:	e0bffe17 	ldw	r2,-8(fp)
    add0:	10800217 	ldw	r2,8(r2)
    add4:	e0bffc15 	stw	r2,-16(fp)
    add8:	e0bffe17 	ldw	r2,-8(fp)
    addc:	10800117 	ldw	r2,4(r2)
    ade0:	e0bffd15 	stw	r2,-12(fp)
    ade4:	00000906 	br	ae0c <__sfp+0x7c>
    ade8:	e0bffc17 	ldw	r2,-16(fp)
    adec:	1080030b 	ldhu	r2,12(r2)
    adf0:	10bfffcc 	andi	r2,r2,65535
    adf4:	10a0001c 	xori	r2,r2,32768
    adf8:	10a00004 	addi	r2,r2,-32768
    adfc:	10001f26 	beq	r2,zero,ae7c <__sfp+0xec>
    ae00:	e0bffc17 	ldw	r2,-16(fp)
    ae04:	10801a04 	addi	r2,r2,104
    ae08:	e0bffc15 	stw	r2,-16(fp)
    ae0c:	e0bffd17 	ldw	r2,-12(fp)
    ae10:	10bfffc4 	addi	r2,r2,-1
    ae14:	e0bffd15 	stw	r2,-12(fp)
    ae18:	e0bffd17 	ldw	r2,-12(fp)
    ae1c:	103ff20e 	bge	r2,zero,ade8 <__alt_mem_VGA_Subsystem_Char_Buf_Subsystem_Onchip_SRAM+0xf700ade8>
    ae20:	e0bffe17 	ldw	r2,-8(fp)
    ae24:	10800017 	ldw	r2,0(r2)
    ae28:	1000091e 	bne	r2,zero,ae50 <__sfp+0xc0>
    ae2c:	01400104 	movi	r5,4
    ae30:	e13fff17 	ldw	r4,-4(fp)
    ae34:	000acec0 	call	acec <__sfmoreglue>
    ae38:	1007883a 	mov	r3,r2
    ae3c:	e0bffe17 	ldw	r2,-8(fp)
    ae40:	10c00015 	stw	r3,0(r2)
    ae44:	e0bffe17 	ldw	r2,-8(fp)
    ae48:	10800017 	ldw	r2,0(r2)
    ae4c:	10000426 	beq	r2,zero,ae60 <__sfp+0xd0>
    ae50:	e0bffe17 	ldw	r2,-8(fp)
    ae54:	10800017 	ldw	r2,0(r2)
    ae58:	e0bffe15 	stw	r2,-8(fp)
    ae5c:	003fdb06 	br	adcc <__alt_mem_VGA_Subsystem_Char_Buf_Subsystem_Onchip_SRAM+0xf700adcc>
    ae60:	0001883a 	nop
    ae64:	000b0940 	call	b094 <__sfp_lock_release>
    ae68:	e0bfff17 	ldw	r2,-4(fp)
    ae6c:	00c00304 	movi	r3,12
    ae70:	10c00015 	stw	r3,0(r2)
    ae74:	0005883a 	mov	r2,zero
    ae78:	00002506 	br	af10 <__sfp+0x180>
    ae7c:	0001883a 	nop
    ae80:	e0bffc17 	ldw	r2,-16(fp)
    ae84:	00ffffc4 	movi	r3,-1
    ae88:	10c0038d 	sth	r3,14(r2)
    ae8c:	e0bffc17 	ldw	r2,-16(fp)
    ae90:	00c00044 	movi	r3,1
    ae94:	10c0030d 	sth	r3,12(r2)
    ae98:	e0bffc17 	ldw	r2,-16(fp)
    ae9c:	10001915 	stw	zero,100(r2)
    aea0:	000b0940 	call	b094 <__sfp_lock_release>
    aea4:	e0bffc17 	ldw	r2,-16(fp)
    aea8:	10000015 	stw	zero,0(r2)
    aeac:	e0bffc17 	ldw	r2,-16(fp)
    aeb0:	10000215 	stw	zero,8(r2)
    aeb4:	e0bffc17 	ldw	r2,-16(fp)
    aeb8:	10000115 	stw	zero,4(r2)
    aebc:	e0bffc17 	ldw	r2,-16(fp)
    aec0:	10000415 	stw	zero,16(r2)
    aec4:	e0bffc17 	ldw	r2,-16(fp)
    aec8:	10000515 	stw	zero,20(r2)
    aecc:	e0bffc17 	ldw	r2,-16(fp)
    aed0:	10000615 	stw	zero,24(r2)
    aed4:	e0bffc17 	ldw	r2,-16(fp)
    aed8:	10801704 	addi	r2,r2,92
    aedc:	01800204 	movi	r6,8
    aee0:	000b883a 	mov	r5,zero
    aee4:	1009883a 	mov	r4,r2
    aee8:	000cbf40 	call	cbf4 <memset>
    aeec:	e0bffc17 	ldw	r2,-16(fp)
    aef0:	10000c15 	stw	zero,48(r2)
    aef4:	e0bffc17 	ldw	r2,-16(fp)
    aef8:	10000d15 	stw	zero,52(r2)
    aefc:	e0bffc17 	ldw	r2,-16(fp)
    af00:	10001115 	stw	zero,68(r2)
    af04:	e0bffc17 	ldw	r2,-16(fp)
    af08:	10001215 	stw	zero,72(r2)
    af0c:	e0bffc17 	ldw	r2,-16(fp)
    af10:	e037883a 	mov	sp,fp
    af14:	dfc00117 	ldw	ra,4(sp)
    af18:	df000017 	ldw	fp,0(sp)
    af1c:	dec00204 	addi	sp,sp,8
    af20:	f800283a 	ret

0000af24 <_cleanup_r>:
    af24:	defffc04 	addi	sp,sp,-16
    af28:	dfc00315 	stw	ra,12(sp)
    af2c:	df000215 	stw	fp,8(sp)
    af30:	df000204 	addi	fp,sp,8
    af34:	e13fff15 	stw	r4,-4(fp)
    af38:	00800074 	movhi	r2,1
    af3c:	10b45704 	addi	r2,r2,-11940
    af40:	e0bffe15 	stw	r2,-8(fp)
    af44:	e17ffe17 	ldw	r5,-8(fp)
    af48:	e13fff17 	ldw	r4,-4(fp)
    af4c:	000b9bc0 	call	b9bc <_fwalk_reent>
    af50:	0001883a 	nop
    af54:	e037883a 	mov	sp,fp
    af58:	dfc00117 	ldw	ra,4(sp)
    af5c:	df000017 	ldw	fp,0(sp)
    af60:	dec00204 	addi	sp,sp,8
    af64:	f800283a 	ret

0000af68 <_cleanup>:
    af68:	defffe04 	addi	sp,sp,-8
    af6c:	dfc00115 	stw	ra,4(sp)
    af70:	df000015 	stw	fp,0(sp)
    af74:	d839883a 	mov	fp,sp
    af78:	d0a00517 	ldw	r2,-32748(gp)
    af7c:	1009883a 	mov	r4,r2
    af80:	000af240 	call	af24 <_cleanup_r>
    af84:	0001883a 	nop
    af88:	e037883a 	mov	sp,fp
    af8c:	dfc00117 	ldw	ra,4(sp)
    af90:	df000017 	ldw	fp,0(sp)
    af94:	dec00204 	addi	sp,sp,8
    af98:	f800283a 	ret

0000af9c <__sinit>:
    af9c:	defffd04 	addi	sp,sp,-12
    afa0:	dfc00215 	stw	ra,8(sp)
    afa4:	df000115 	stw	fp,4(sp)
    afa8:	df000104 	addi	fp,sp,4
    afac:	e13fff15 	stw	r4,-4(fp)
    afb0:	000b0b40 	call	b0b4 <__sinit_lock_acquire>
    afb4:	e0bfff17 	ldw	r2,-4(fp)
    afb8:	10800e17 	ldw	r2,56(r2)
    afbc:	10000226 	beq	r2,zero,afc8 <__sinit+0x2c>
    afc0:	000b0d40 	call	b0d4 <__sinit_lock_release>
    afc4:	00002606 	br	b060 <__sinit+0xc4>
    afc8:	e0ffff17 	ldw	r3,-4(fp)
    afcc:	00800074 	movhi	r2,1
    afd0:	10abc904 	addi	r2,r2,-20700
    afd4:	18800f15 	stw	r2,60(r3)
    afd8:	e0bfff17 	ldw	r2,-4(fp)
    afdc:	1000b815 	stw	zero,736(r2)
    afe0:	e0bfff17 	ldw	r2,-4(fp)
    afe4:	00c000c4 	movi	r3,3
    afe8:	10c0b915 	stw	r3,740(r2)
    afec:	e0bfff17 	ldw	r2,-4(fp)
    aff0:	10c0bb04 	addi	r3,r2,748
    aff4:	e0bfff17 	ldw	r2,-4(fp)
    aff8:	10c0ba15 	stw	r3,744(r2)
    affc:	e0bfff17 	ldw	r2,-4(fp)
    b000:	10800117 	ldw	r2,4(r2)
    b004:	e1ffff17 	ldw	r7,-4(fp)
    b008:	000d883a 	mov	r6,zero
    b00c:	01400104 	movi	r5,4
    b010:	1009883a 	mov	r4,r2
    b014:	000abf80 	call	abf8 <std>
    b018:	e0bfff17 	ldw	r2,-4(fp)
    b01c:	10800217 	ldw	r2,8(r2)
    b020:	e1ffff17 	ldw	r7,-4(fp)
    b024:	01800044 	movi	r6,1
    b028:	01400284 	movi	r5,10
    b02c:	1009883a 	mov	r4,r2
    b030:	000abf80 	call	abf8 <std>
    b034:	e0bfff17 	ldw	r2,-4(fp)
    b038:	10800317 	ldw	r2,12(r2)
    b03c:	e1ffff17 	ldw	r7,-4(fp)
    b040:	01800084 	movi	r6,2
    b044:	01400484 	movi	r5,18
    b048:	1009883a 	mov	r4,r2
    b04c:	000abf80 	call	abf8 <std>
    b050:	e0bfff17 	ldw	r2,-4(fp)
    b054:	00c00044 	movi	r3,1
    b058:	10c00e15 	stw	r3,56(r2)
    b05c:	000b0d40 	call	b0d4 <__sinit_lock_release>
    b060:	e037883a 	mov	sp,fp
    b064:	dfc00117 	ldw	ra,4(sp)
    b068:	df000017 	ldw	fp,0(sp)
    b06c:	dec00204 	addi	sp,sp,8
    b070:	f800283a 	ret

0000b074 <__sfp_lock_acquire>:
    b074:	deffff04 	addi	sp,sp,-4
    b078:	df000015 	stw	fp,0(sp)
    b07c:	d839883a 	mov	fp,sp
    b080:	0001883a 	nop
    b084:	e037883a 	mov	sp,fp
    b088:	df000017 	ldw	fp,0(sp)
    b08c:	dec00104 	addi	sp,sp,4
    b090:	f800283a 	ret

0000b094 <__sfp_lock_release>:
    b094:	deffff04 	addi	sp,sp,-4
    b098:	df000015 	stw	fp,0(sp)
    b09c:	d839883a 	mov	fp,sp
    b0a0:	0001883a 	nop
    b0a4:	e037883a 	mov	sp,fp
    b0a8:	df000017 	ldw	fp,0(sp)
    b0ac:	dec00104 	addi	sp,sp,4
    b0b0:	f800283a 	ret

0000b0b4 <__sinit_lock_acquire>:
    b0b4:	deffff04 	addi	sp,sp,-4
    b0b8:	df000015 	stw	fp,0(sp)
    b0bc:	d839883a 	mov	fp,sp
    b0c0:	0001883a 	nop
    b0c4:	e037883a 	mov	sp,fp
    b0c8:	df000017 	ldw	fp,0(sp)
    b0cc:	dec00104 	addi	sp,sp,4
    b0d0:	f800283a 	ret

0000b0d4 <__sinit_lock_release>:
    b0d4:	deffff04 	addi	sp,sp,-4
    b0d8:	df000015 	stw	fp,0(sp)
    b0dc:	d839883a 	mov	fp,sp
    b0e0:	0001883a 	nop
    b0e4:	e037883a 	mov	sp,fp
    b0e8:	df000017 	ldw	fp,0(sp)
    b0ec:	dec00104 	addi	sp,sp,4
    b0f0:	f800283a 	ret

0000b0f4 <__fp_lock>:
    b0f4:	defffe04 	addi	sp,sp,-8
    b0f8:	df000115 	stw	fp,4(sp)
    b0fc:	df000104 	addi	fp,sp,4
    b100:	e13fff15 	stw	r4,-4(fp)
    b104:	0005883a 	mov	r2,zero
    b108:	e037883a 	mov	sp,fp
    b10c:	df000017 	ldw	fp,0(sp)
    b110:	dec00104 	addi	sp,sp,4
    b114:	f800283a 	ret

0000b118 <__fp_unlock>:
    b118:	defffe04 	addi	sp,sp,-8
    b11c:	df000115 	stw	fp,4(sp)
    b120:	df000104 	addi	fp,sp,4
    b124:	e13fff15 	stw	r4,-4(fp)
    b128:	0005883a 	mov	r2,zero
    b12c:	e037883a 	mov	sp,fp
    b130:	df000017 	ldw	fp,0(sp)
    b134:	dec00104 	addi	sp,sp,4
    b138:	f800283a 	ret

0000b13c <__fp_lock_all>:
    b13c:	defffe04 	addi	sp,sp,-8
    b140:	dfc00115 	stw	ra,4(sp)
    b144:	df000015 	stw	fp,0(sp)
    b148:	d839883a 	mov	fp,sp
    b14c:	000b0740 	call	b074 <__sfp_lock_acquire>
    b150:	d0a00417 	ldw	r2,-32752(gp)
    b154:	01400074 	movhi	r5,1
    b158:	296c3d04 	addi	r5,r5,-20236
    b15c:	1009883a 	mov	r4,r2
    b160:	000b8e40 	call	b8e4 <_fwalk>
    b164:	0001883a 	nop
    b168:	e037883a 	mov	sp,fp
    b16c:	dfc00117 	ldw	ra,4(sp)
    b170:	df000017 	ldw	fp,0(sp)
    b174:	dec00204 	addi	sp,sp,8
    b178:	f800283a 	ret

0000b17c <__fp_unlock_all>:
    b17c:	defffe04 	addi	sp,sp,-8
    b180:	dfc00115 	stw	ra,4(sp)
    b184:	df000015 	stw	fp,0(sp)
    b188:	d839883a 	mov	fp,sp
    b18c:	d0a00417 	ldw	r2,-32752(gp)
    b190:	01400074 	movhi	r5,1
    b194:	296c4604 	addi	r5,r5,-20200
    b198:	1009883a 	mov	r4,r2
    b19c:	000b8e40 	call	b8e4 <_fwalk>
    b1a0:	000b0940 	call	b094 <__sfp_lock_release>
    b1a4:	0001883a 	nop
    b1a8:	e037883a 	mov	sp,fp
    b1ac:	dfc00117 	ldw	ra,4(sp)
    b1b0:	df000017 	ldw	fp,0(sp)
    b1b4:	dec00204 	addi	sp,sp,8
    b1b8:	f800283a 	ret

0000b1bc <_free_r>:
    b1bc:	defff204 	addi	sp,sp,-56
    b1c0:	dfc00d15 	stw	ra,52(sp)
    b1c4:	df000c15 	stw	fp,48(sp)
    b1c8:	df000c04 	addi	fp,sp,48
    b1cc:	e13ffe15 	stw	r4,-8(fp)
    b1d0:	e17fff15 	stw	r5,-4(fp)
    b1d4:	e0bfff17 	ldw	r2,-4(fp)
    b1d8:	10014a26 	beq	r2,zero,b704 <_free_r+0x548>
    b1dc:	e13ffe17 	ldw	r4,-8(fp)
    b1e0:	000d7780 	call	d778 <__malloc_lock>
    b1e4:	e0bfff17 	ldw	r2,-4(fp)
    b1e8:	10bffe04 	addi	r2,r2,-8
    b1ec:	e0bff415 	stw	r2,-48(fp)
    b1f0:	e0bff417 	ldw	r2,-48(fp)
    b1f4:	10800117 	ldw	r2,4(r2)
    b1f8:	e0bff915 	stw	r2,-28(fp)
    b1fc:	e0fff917 	ldw	r3,-28(fp)
    b200:	00bfff84 	movi	r2,-2
    b204:	1884703a 	and	r2,r3,r2
    b208:	e0bff515 	stw	r2,-44(fp)
    b20c:	e0fff417 	ldw	r3,-48(fp)
    b210:	e0bff517 	ldw	r2,-44(fp)
    b214:	1885883a 	add	r2,r3,r2
    b218:	e0bffa15 	stw	r2,-24(fp)
    b21c:	e0bffa17 	ldw	r2,-24(fp)
    b220:	10c00117 	ldw	r3,4(r2)
    b224:	00bfff04 	movi	r2,-4
    b228:	1884703a 	and	r2,r3,r2
    b22c:	e0bffb15 	stw	r2,-20(fp)
    b230:	00800374 	movhi	r2,13
    b234:	10ac6e04 	addi	r2,r2,-20040
    b238:	10c00217 	ldw	r3,8(r2)
    b23c:	e0bffa17 	ldw	r2,-24(fp)
    b240:	1880311e 	bne	r3,r2,b308 <_free_r+0x14c>
    b244:	e0fff517 	ldw	r3,-44(fp)
    b248:	e0bffb17 	ldw	r2,-20(fp)
    b24c:	1885883a 	add	r2,r3,r2
    b250:	e0bff515 	stw	r2,-44(fp)
    b254:	e0bff917 	ldw	r2,-28(fp)
    b258:	1080004c 	andi	r2,r2,1
    b25c:	1000181e 	bne	r2,zero,b2c0 <_free_r+0x104>
    b260:	e0bff417 	ldw	r2,-48(fp)
    b264:	10800017 	ldw	r2,0(r2)
    b268:	e0bffc15 	stw	r2,-16(fp)
    b26c:	e0bffc17 	ldw	r2,-16(fp)
    b270:	0085c83a 	sub	r2,zero,r2
    b274:	e0fff417 	ldw	r3,-48(fp)
    b278:	1885883a 	add	r2,r3,r2
    b27c:	e0bff415 	stw	r2,-48(fp)
    b280:	e0fff517 	ldw	r3,-44(fp)
    b284:	e0bffc17 	ldw	r2,-16(fp)
    b288:	1885883a 	add	r2,r3,r2
    b28c:	e0bff515 	stw	r2,-44(fp)
    b290:	e0bff417 	ldw	r2,-48(fp)
    b294:	10800317 	ldw	r2,12(r2)
    b298:	e0bff615 	stw	r2,-40(fp)
    b29c:	e0bff417 	ldw	r2,-48(fp)
    b2a0:	10800217 	ldw	r2,8(r2)
    b2a4:	e0bff715 	stw	r2,-36(fp)
    b2a8:	e0bff717 	ldw	r2,-36(fp)
    b2ac:	e0fff617 	ldw	r3,-40(fp)
    b2b0:	10c00315 	stw	r3,12(r2)
    b2b4:	e0bff617 	ldw	r2,-40(fp)
    b2b8:	e0fff717 	ldw	r3,-36(fp)
    b2bc:	10c00215 	stw	r3,8(r2)
    b2c0:	e0bff517 	ldw	r2,-44(fp)
    b2c4:	10c00054 	ori	r3,r2,1
    b2c8:	e0bff417 	ldw	r2,-48(fp)
    b2cc:	10c00115 	stw	r3,4(r2)
    b2d0:	00800374 	movhi	r2,13
    b2d4:	10ac6e04 	addi	r2,r2,-20040
    b2d8:	e0fff417 	ldw	r3,-48(fp)
    b2dc:	10c00215 	stw	r3,8(r2)
    b2e0:	d0a00f17 	ldw	r2,-32708(gp)
    b2e4:	e0fff517 	ldw	r3,-44(fp)
    b2e8:	18800436 	bltu	r3,r2,b2fc <_free_r+0x140>
    b2ec:	d0a79517 	ldw	r2,-25004(gp)
    b2f0:	100b883a 	mov	r5,r2
    b2f4:	e13ffe17 	ldw	r4,-8(fp)
    b2f8:	000b71c0 	call	b71c <_malloc_trim_r>
    b2fc:	e13ffe17 	ldw	r4,-8(fp)
    b300:	000d79c0 	call	d79c <__malloc_unlock>
    b304:	00010006 	br	b708 <_free_r+0x54c>
    b308:	e0bffa17 	ldw	r2,-24(fp)
    b30c:	e0fffb17 	ldw	r3,-20(fp)
    b310:	10c00115 	stw	r3,4(r2)
    b314:	e03ff815 	stw	zero,-32(fp)
    b318:	e0bff917 	ldw	r2,-28(fp)
    b31c:	1080004c 	andi	r2,r2,1
    b320:	1000201e 	bne	r2,zero,b3a4 <_free_r+0x1e8>
    b324:	e0bff417 	ldw	r2,-48(fp)
    b328:	10800017 	ldw	r2,0(r2)
    b32c:	e0bffc15 	stw	r2,-16(fp)
    b330:	e0bffc17 	ldw	r2,-16(fp)
    b334:	0085c83a 	sub	r2,zero,r2
    b338:	e0fff417 	ldw	r3,-48(fp)
    b33c:	1885883a 	add	r2,r3,r2
    b340:	e0bff415 	stw	r2,-48(fp)
    b344:	e0fff517 	ldw	r3,-44(fp)
    b348:	e0bffc17 	ldw	r2,-16(fp)
    b34c:	1885883a 	add	r2,r3,r2
    b350:	e0bff515 	stw	r2,-44(fp)
    b354:	e0bff417 	ldw	r2,-48(fp)
    b358:	10c00217 	ldw	r3,8(r2)
    b35c:	00800374 	movhi	r2,13
    b360:	10ac7004 	addi	r2,r2,-20032
    b364:	1880031e 	bne	r3,r2,b374 <_free_r+0x1b8>
    b368:	00800044 	movi	r2,1
    b36c:	e0bff815 	stw	r2,-32(fp)
    b370:	00000c06 	br	b3a4 <_free_r+0x1e8>
    b374:	e0bff417 	ldw	r2,-48(fp)
    b378:	10800317 	ldw	r2,12(r2)
    b37c:	e0bff615 	stw	r2,-40(fp)
    b380:	e0bff417 	ldw	r2,-48(fp)
    b384:	10800217 	ldw	r2,8(r2)
    b388:	e0bff715 	stw	r2,-36(fp)
    b38c:	e0bff717 	ldw	r2,-36(fp)
    b390:	e0fff617 	ldw	r3,-40(fp)
    b394:	10c00315 	stw	r3,12(r2)
    b398:	e0bff617 	ldw	r2,-40(fp)
    b39c:	e0fff717 	ldw	r3,-36(fp)
    b3a0:	10c00215 	stw	r3,8(r2)
    b3a4:	e0fffa17 	ldw	r3,-24(fp)
    b3a8:	e0bffb17 	ldw	r2,-20(fp)
    b3ac:	1885883a 	add	r2,r3,r2
    b3b0:	10800117 	ldw	r2,4(r2)
    b3b4:	1080004c 	andi	r2,r2,1
    b3b8:	10002a1e 	bne	r2,zero,b464 <_free_r+0x2a8>
    b3bc:	e0fff517 	ldw	r3,-44(fp)
    b3c0:	e0bffb17 	ldw	r2,-20(fp)
    b3c4:	1885883a 	add	r2,r3,r2
    b3c8:	e0bff515 	stw	r2,-44(fp)
    b3cc:	e0bff817 	ldw	r2,-32(fp)
    b3d0:	1000181e 	bne	r2,zero,b434 <_free_r+0x278>
    b3d4:	e0bffa17 	ldw	r2,-24(fp)
    b3d8:	10c00217 	ldw	r3,8(r2)
    b3dc:	00800374 	movhi	r2,13
    b3e0:	10ac7004 	addi	r2,r2,-20032
    b3e4:	1880131e 	bne	r3,r2,b434 <_free_r+0x278>
    b3e8:	00800044 	movi	r2,1
    b3ec:	e0bff815 	stw	r2,-32(fp)
    b3f0:	00c00374 	movhi	r3,13
    b3f4:	18ec7004 	addi	r3,r3,-20032
    b3f8:	00800374 	movhi	r2,13
    b3fc:	10ac7004 	addi	r2,r2,-20032
    b400:	e13ff417 	ldw	r4,-48(fp)
    b404:	11000315 	stw	r4,12(r2)
    b408:	10800317 	ldw	r2,12(r2)
    b40c:	18800215 	stw	r2,8(r3)
    b410:	00800374 	movhi	r2,13
    b414:	10ac7004 	addi	r2,r2,-20032
    b418:	e0fff417 	ldw	r3,-48(fp)
    b41c:	18800315 	stw	r2,12(r3)
    b420:	e0bff417 	ldw	r2,-48(fp)
    b424:	10c00317 	ldw	r3,12(r2)
    b428:	e0bff417 	ldw	r2,-48(fp)
    b42c:	10c00215 	stw	r3,8(r2)
    b430:	00000c06 	br	b464 <_free_r+0x2a8>
    b434:	e0bffa17 	ldw	r2,-24(fp)
    b438:	10800317 	ldw	r2,12(r2)
    b43c:	e0bff615 	stw	r2,-40(fp)
    b440:	e0bffa17 	ldw	r2,-24(fp)
    b444:	10800217 	ldw	r2,8(r2)
    b448:	e0bff715 	stw	r2,-36(fp)
    b44c:	e0bff717 	ldw	r2,-36(fp)
    b450:	e0fff617 	ldw	r3,-40(fp)
    b454:	10c00315 	stw	r3,12(r2)
    b458:	e0bff617 	ldw	r2,-40(fp)
    b45c:	e0fff717 	ldw	r3,-36(fp)
    b460:	10c00215 	stw	r3,8(r2)
    b464:	e0bff517 	ldw	r2,-44(fp)
    b468:	10c00054 	ori	r3,r2,1
    b46c:	e0bff417 	ldw	r2,-48(fp)
    b470:	10c00115 	stw	r3,4(r2)
    b474:	e0fff417 	ldw	r3,-48(fp)
    b478:	e0bff517 	ldw	r2,-44(fp)
    b47c:	1885883a 	add	r2,r3,r2
    b480:	e0fff517 	ldw	r3,-44(fp)
    b484:	10c00015 	stw	r3,0(r2)
    b488:	e0bff817 	ldw	r2,-32(fp)
    b48c:	10009a1e 	bne	r2,zero,b6f8 <_free_r+0x53c>
    b490:	e0bff517 	ldw	r2,-44(fp)
    b494:	10808028 	cmpgeui	r2,r2,512
    b498:	10002c1e 	bne	r2,zero,b54c <_free_r+0x390>
    b49c:	e0bff517 	ldw	r2,-44(fp)
    b4a0:	1004d0fa 	srli	r2,r2,3
    b4a4:	e0bffd15 	stw	r2,-12(fp)
    b4a8:	00c00374 	movhi	r3,13
    b4ac:	18ec6e04 	addi	r3,r3,-20040
    b4b0:	00800374 	movhi	r2,13
    b4b4:	10ac6e04 	addi	r2,r2,-20040
    b4b8:	11000117 	ldw	r4,4(r2)
    b4bc:	e0bffd17 	ldw	r2,-12(fp)
    b4c0:	1000010e 	bge	r2,zero,b4c8 <_free_r+0x30c>
    b4c4:	108000c4 	addi	r2,r2,3
    b4c8:	1005d0ba 	srai	r2,r2,2
    b4cc:	100b883a 	mov	r5,r2
    b4d0:	00800044 	movi	r2,1
    b4d4:	1144983a 	sll	r2,r2,r5
    b4d8:	2084b03a 	or	r2,r4,r2
    b4dc:	18800115 	stw	r2,4(r3)
    b4e0:	e0bffd17 	ldw	r2,-12(fp)
    b4e4:	10800044 	addi	r2,r2,1
    b4e8:	1085883a 	add	r2,r2,r2
    b4ec:	1085883a 	add	r2,r2,r2
    b4f0:	1087883a 	add	r3,r2,r2
    b4f4:	00800374 	movhi	r2,13
    b4f8:	10ac6e04 	addi	r2,r2,-20040
    b4fc:	1885883a 	add	r2,r3,r2
    b500:	10bffe04 	addi	r2,r2,-8
    b504:	e0bff615 	stw	r2,-40(fp)
    b508:	e0bff617 	ldw	r2,-40(fp)
    b50c:	10800217 	ldw	r2,8(r2)
    b510:	e0bff715 	stw	r2,-36(fp)
    b514:	e0bff417 	ldw	r2,-48(fp)
    b518:	e0fff617 	ldw	r3,-40(fp)
    b51c:	10c00315 	stw	r3,12(r2)
    b520:	e0bff417 	ldw	r2,-48(fp)
    b524:	e0fff717 	ldw	r3,-36(fp)
    b528:	10c00215 	stw	r3,8(r2)
    b52c:	e0bff617 	ldw	r2,-40(fp)
    b530:	e0fff417 	ldw	r3,-48(fp)
    b534:	10c00215 	stw	r3,8(r2)
    b538:	e0bff617 	ldw	r2,-40(fp)
    b53c:	10c00217 	ldw	r3,8(r2)
    b540:	e0bff717 	ldw	r2,-36(fp)
    b544:	10c00315 	stw	r3,12(r2)
    b548:	00006b06 	br	b6f8 <_free_r+0x53c>
    b54c:	e0bff517 	ldw	r2,-44(fp)
    b550:	1004d27a 	srli	r2,r2,9
    b554:	1000031e 	bne	r2,zero,b564 <_free_r+0x3a8>
    b558:	e0bff517 	ldw	r2,-44(fp)
    b55c:	1004d0fa 	srli	r2,r2,3
    b560:	00002906 	br	b608 <_free_r+0x44c>
    b564:	e0bff517 	ldw	r2,-44(fp)
    b568:	1004d27a 	srli	r2,r2,9
    b56c:	10800168 	cmpgeui	r2,r2,5
    b570:	1000041e 	bne	r2,zero,b584 <_free_r+0x3c8>
    b574:	e0bff517 	ldw	r2,-44(fp)
    b578:	1004d1ba 	srli	r2,r2,6
    b57c:	10800e04 	addi	r2,r2,56
    b580:	00002106 	br	b608 <_free_r+0x44c>
    b584:	e0bff517 	ldw	r2,-44(fp)
    b588:	1004d27a 	srli	r2,r2,9
    b58c:	10800568 	cmpgeui	r2,r2,21
    b590:	1000041e 	bne	r2,zero,b5a4 <_free_r+0x3e8>
    b594:	e0bff517 	ldw	r2,-44(fp)
    b598:	1004d27a 	srli	r2,r2,9
    b59c:	108016c4 	addi	r2,r2,91
    b5a0:	00001906 	br	b608 <_free_r+0x44c>
    b5a4:	e0bff517 	ldw	r2,-44(fp)
    b5a8:	1004d27a 	srli	r2,r2,9
    b5ac:	10801568 	cmpgeui	r2,r2,85
    b5b0:	1000041e 	bne	r2,zero,b5c4 <_free_r+0x408>
    b5b4:	e0bff517 	ldw	r2,-44(fp)
    b5b8:	1004d33a 	srli	r2,r2,12
    b5bc:	10801b84 	addi	r2,r2,110
    b5c0:	00001106 	br	b608 <_free_r+0x44c>
    b5c4:	e0bff517 	ldw	r2,-44(fp)
    b5c8:	1004d27a 	srli	r2,r2,9
    b5cc:	10805568 	cmpgeui	r2,r2,341
    b5d0:	1000041e 	bne	r2,zero,b5e4 <_free_r+0x428>
    b5d4:	e0bff517 	ldw	r2,-44(fp)
    b5d8:	1004d3fa 	srli	r2,r2,15
    b5dc:	10801dc4 	addi	r2,r2,119
    b5e0:	00000906 	br	b608 <_free_r+0x44c>
    b5e4:	e0bff517 	ldw	r2,-44(fp)
    b5e8:	1004d27a 	srli	r2,r2,9
    b5ec:	10815568 	cmpgeui	r2,r2,1365
    b5f0:	1000041e 	bne	r2,zero,b604 <_free_r+0x448>
    b5f4:	e0bff517 	ldw	r2,-44(fp)
    b5f8:	1004d4ba 	srli	r2,r2,18
    b5fc:	10801f04 	addi	r2,r2,124
    b600:	00000106 	br	b608 <_free_r+0x44c>
    b604:	00801f84 	movi	r2,126
    b608:	e0bffd15 	stw	r2,-12(fp)
    b60c:	e0bffd17 	ldw	r2,-12(fp)
    b610:	10800044 	addi	r2,r2,1
    b614:	1085883a 	add	r2,r2,r2
    b618:	1085883a 	add	r2,r2,r2
    b61c:	1087883a 	add	r3,r2,r2
    b620:	00800374 	movhi	r2,13
    b624:	10ac6e04 	addi	r2,r2,-20040
    b628:	1885883a 	add	r2,r3,r2
    b62c:	10bffe04 	addi	r2,r2,-8
    b630:	e0bff615 	stw	r2,-40(fp)
    b634:	e0bff617 	ldw	r2,-40(fp)
    b638:	10800217 	ldw	r2,8(r2)
    b63c:	e0bff715 	stw	r2,-36(fp)
    b640:	e0fff717 	ldw	r3,-36(fp)
    b644:	e0bff617 	ldw	r2,-40(fp)
    b648:	1880121e 	bne	r3,r2,b694 <_free_r+0x4d8>
    b64c:	00c00374 	movhi	r3,13
    b650:	18ec6e04 	addi	r3,r3,-20040
    b654:	00800374 	movhi	r2,13
    b658:	10ac6e04 	addi	r2,r2,-20040
    b65c:	11000117 	ldw	r4,4(r2)
    b660:	e0bffd17 	ldw	r2,-12(fp)
    b664:	1000010e 	bge	r2,zero,b66c <_free_r+0x4b0>
    b668:	108000c4 	addi	r2,r2,3
    b66c:	1005d0ba 	srai	r2,r2,2
    b670:	100b883a 	mov	r5,r2
    b674:	00800044 	movi	r2,1
    b678:	1144983a 	sll	r2,r2,r5
    b67c:	2084b03a 	or	r2,r4,r2
    b680:	18800115 	stw	r2,4(r3)
    b684:	00000f06 	br	b6c4 <_free_r+0x508>
    b688:	e0bff717 	ldw	r2,-36(fp)
    b68c:	10800217 	ldw	r2,8(r2)
    b690:	e0bff715 	stw	r2,-36(fp)
    b694:	e0fff717 	ldw	r3,-36(fp)
    b698:	e0bff617 	ldw	r2,-40(fp)
    b69c:	18800626 	beq	r3,r2,b6b8 <_free_r+0x4fc>
    b6a0:	e0bff717 	ldw	r2,-36(fp)
    b6a4:	10c00117 	ldw	r3,4(r2)
    b6a8:	00bfff04 	movi	r2,-4
    b6ac:	1884703a 	and	r2,r3,r2
    b6b0:	e0fff517 	ldw	r3,-44(fp)
    b6b4:	18bff436 	bltu	r3,r2,b688 <__alt_mem_VGA_Subsystem_Char_Buf_Subsystem_Onchip_SRAM+0xf700b688>
    b6b8:	e0bff717 	ldw	r2,-36(fp)
    b6bc:	10800317 	ldw	r2,12(r2)
    b6c0:	e0bff615 	stw	r2,-40(fp)
    b6c4:	e0bff417 	ldw	r2,-48(fp)
    b6c8:	e0fff617 	ldw	r3,-40(fp)
    b6cc:	10c00315 	stw	r3,12(r2)
    b6d0:	e0bff417 	ldw	r2,-48(fp)
    b6d4:	e0fff717 	ldw	r3,-36(fp)
    b6d8:	10c00215 	stw	r3,8(r2)
    b6dc:	e0bff617 	ldw	r2,-40(fp)
    b6e0:	e0fff417 	ldw	r3,-48(fp)
    b6e4:	10c00215 	stw	r3,8(r2)
    b6e8:	e0bff617 	ldw	r2,-40(fp)
    b6ec:	10c00217 	ldw	r3,8(r2)
    b6f0:	e0bff717 	ldw	r2,-36(fp)
    b6f4:	10c00315 	stw	r3,12(r2)
    b6f8:	e13ffe17 	ldw	r4,-8(fp)
    b6fc:	000d79c0 	call	d79c <__malloc_unlock>
    b700:	00000106 	br	b708 <_free_r+0x54c>
    b704:	0001883a 	nop
    b708:	e037883a 	mov	sp,fp
    b70c:	dfc00117 	ldw	ra,4(sp)
    b710:	df000017 	ldw	fp,0(sp)
    b714:	dec00204 	addi	sp,sp,8
    b718:	f800283a 	ret

0000b71c <_malloc_trim_r>:
    b71c:	defff704 	addi	sp,sp,-36
    b720:	dfc00815 	stw	ra,32(sp)
    b724:	df000715 	stw	fp,28(sp)
    b728:	df000704 	addi	fp,sp,28
    b72c:	e13ffe15 	stw	r4,-8(fp)
    b730:	e17fff15 	stw	r5,-4(fp)
    b734:	00840004 	movi	r2,4096
    b738:	e0bff915 	stw	r2,-28(fp)
    b73c:	e13ffe17 	ldw	r4,-8(fp)
    b740:	000d7780 	call	d778 <__malloc_lock>
    b744:	00800374 	movhi	r2,13
    b748:	10ac6e04 	addi	r2,r2,-20040
    b74c:	10800217 	ldw	r2,8(r2)
    b750:	10800117 	ldw	r2,4(r2)
    b754:	1007883a 	mov	r3,r2
    b758:	00bfff04 	movi	r2,-4
    b75c:	1884703a 	and	r2,r3,r2
    b760:	e0bffa15 	stw	r2,-24(fp)
    b764:	e0fffa17 	ldw	r3,-24(fp)
    b768:	e0bfff17 	ldw	r2,-4(fp)
    b76c:	1887c83a 	sub	r3,r3,r2
    b770:	e0bff917 	ldw	r2,-28(fp)
    b774:	1885883a 	add	r2,r3,r2
    b778:	10fffbc4 	addi	r3,r2,-17
    b77c:	e0bff917 	ldw	r2,-28(fp)
    b780:	1885203a 	divu	r2,r3,r2
    b784:	10ffffc4 	addi	r3,r2,-1
    b788:	e0bff917 	ldw	r2,-28(fp)
    b78c:	1885383a 	mul	r2,r3,r2
    b790:	e0bffb15 	stw	r2,-20(fp)
    b794:	e0bff917 	ldw	r2,-28(fp)
    b798:	e0fffb17 	ldw	r3,-20(fp)
    b79c:	1880040e 	bge	r3,r2,b7b0 <_malloc_trim_r+0x94>
    b7a0:	e13ffe17 	ldw	r4,-8(fp)
    b7a4:	000d79c0 	call	d79c <__malloc_unlock>
    b7a8:	0005883a 	mov	r2,zero
    b7ac:	00004806 	br	b8d0 <_malloc_trim_r+0x1b4>
    b7b0:	000b883a 	mov	r5,zero
    b7b4:	e13ffe17 	ldw	r4,-8(fp)
    b7b8:	000cdb80 	call	cdb8 <_sbrk_r>
    b7bc:	e0bffc15 	stw	r2,-16(fp)
    b7c0:	00800374 	movhi	r2,13
    b7c4:	10ac6e04 	addi	r2,r2,-20040
    b7c8:	10c00217 	ldw	r3,8(r2)
    b7cc:	e0bffa17 	ldw	r2,-24(fp)
    b7d0:	1887883a 	add	r3,r3,r2
    b7d4:	e0bffc17 	ldw	r2,-16(fp)
    b7d8:	18800426 	beq	r3,r2,b7ec <_malloc_trim_r+0xd0>
    b7dc:	e13ffe17 	ldw	r4,-8(fp)
    b7e0:	000d79c0 	call	d79c <__malloc_unlock>
    b7e4:	0005883a 	mov	r2,zero
    b7e8:	00003906 	br	b8d0 <_malloc_trim_r+0x1b4>
    b7ec:	e0bffb17 	ldw	r2,-20(fp)
    b7f0:	0085c83a 	sub	r2,zero,r2
    b7f4:	100b883a 	mov	r5,r2
    b7f8:	e13ffe17 	ldw	r4,-8(fp)
    b7fc:	000cdb80 	call	cdb8 <_sbrk_r>
    b800:	e0bffd15 	stw	r2,-12(fp)
    b804:	e0bffd17 	ldw	r2,-12(fp)
    b808:	10bfffd8 	cmpnei	r2,r2,-1
    b80c:	10001d1e 	bne	r2,zero,b884 <_malloc_trim_r+0x168>
    b810:	000b883a 	mov	r5,zero
    b814:	e13ffe17 	ldw	r4,-8(fp)
    b818:	000cdb80 	call	cdb8 <_sbrk_r>
    b81c:	e0bffc15 	stw	r2,-16(fp)
    b820:	e0fffc17 	ldw	r3,-16(fp)
    b824:	00800374 	movhi	r2,13
    b828:	10ac6e04 	addi	r2,r2,-20040
    b82c:	10800217 	ldw	r2,8(r2)
    b830:	1885c83a 	sub	r2,r3,r2
    b834:	e0bffa15 	stw	r2,-24(fp)
    b838:	e0bffa17 	ldw	r2,-24(fp)
    b83c:	10800410 	cmplti	r2,r2,16
    b840:	10000c1e 	bne	r2,zero,b874 <_malloc_trim_r+0x158>
    b844:	e0bffc17 	ldw	r2,-16(fp)
    b848:	d0e01017 	ldw	r3,-32704(gp)
    b84c:	10c7c83a 	sub	r3,r2,r3
    b850:	00800374 	movhi	r2,13
    b854:	10b50804 	addi	r2,r2,-11232
    b858:	10c00015 	stw	r3,0(r2)
    b85c:	00800374 	movhi	r2,13
    b860:	10ac6e04 	addi	r2,r2,-20040
    b864:	10800217 	ldw	r2,8(r2)
    b868:	e0fffa17 	ldw	r3,-24(fp)
    b86c:	18c00054 	ori	r3,r3,1
    b870:	10c00115 	stw	r3,4(r2)
    b874:	e13ffe17 	ldw	r4,-8(fp)
    b878:	000d79c0 	call	d79c <__malloc_unlock>
    b87c:	0005883a 	mov	r2,zero
    b880:	00001306 	br	b8d0 <_malloc_trim_r+0x1b4>
    b884:	00800374 	movhi	r2,13
    b888:	10ac6e04 	addi	r2,r2,-20040
    b88c:	10800217 	ldw	r2,8(r2)
    b890:	e13ffa17 	ldw	r4,-24(fp)
    b894:	e0fffb17 	ldw	r3,-20(fp)
    b898:	20c7c83a 	sub	r3,r4,r3
    b89c:	18c00054 	ori	r3,r3,1
    b8a0:	10c00115 	stw	r3,4(r2)
    b8a4:	00800374 	movhi	r2,13
    b8a8:	10b50804 	addi	r2,r2,-11232
    b8ac:	10c00017 	ldw	r3,0(r2)
    b8b0:	e0bffb17 	ldw	r2,-20(fp)
    b8b4:	1887c83a 	sub	r3,r3,r2
    b8b8:	00800374 	movhi	r2,13
    b8bc:	10b50804 	addi	r2,r2,-11232
    b8c0:	10c00015 	stw	r3,0(r2)
    b8c4:	e13ffe17 	ldw	r4,-8(fp)
    b8c8:	000d79c0 	call	d79c <__malloc_unlock>
    b8cc:	00800044 	movi	r2,1
    b8d0:	e037883a 	mov	sp,fp
    b8d4:	dfc00117 	ldw	ra,4(sp)
    b8d8:	df000017 	ldw	fp,0(sp)
    b8dc:	dec00204 	addi	sp,sp,8
    b8e0:	f800283a 	ret

0000b8e4 <_fwalk>:
    b8e4:	defff804 	addi	sp,sp,-32
    b8e8:	dfc00715 	stw	ra,28(sp)
    b8ec:	df000615 	stw	fp,24(sp)
    b8f0:	dd000515 	stw	r20,20(sp)
    b8f4:	dcc00415 	stw	r19,16(sp)
    b8f8:	dc800315 	stw	r18,12(sp)
    b8fc:	dc400215 	stw	r17,8(sp)
    b900:	dc000115 	stw	r16,4(sp)
    b904:	df000604 	addi	fp,sp,24
    b908:	e13ffa15 	stw	r4,-24(fp)
    b90c:	2829883a 	mov	r20,r5
    b910:	0027883a 	mov	r19,zero
    b914:	e0bffa17 	ldw	r2,-24(fp)
    b918:	1440b804 	addi	r17,r2,736
    b91c:	00001b06 	br	b98c <_fwalk+0xa8>
    b920:	8c000217 	ldw	r16,8(r17)
    b924:	8c800117 	ldw	r18,4(r17)
    b928:	00001506 	br	b980 <_fwalk+0x9c>
    b92c:	8080030b 	ldhu	r2,12(r16)
    b930:	10bfffcc 	andi	r2,r2,65535
    b934:	10a0001c 	xori	r2,r2,32768
    b938:	10a00004 	addi	r2,r2,-32768
    b93c:	10000f26 	beq	r2,zero,b97c <_fwalk+0x98>
    b940:	8080030b 	ldhu	r2,12(r16)
    b944:	10bfffcc 	andi	r2,r2,65535
    b948:	10a0001c 	xori	r2,r2,32768
    b94c:	10a00004 	addi	r2,r2,-32768
    b950:	10800060 	cmpeqi	r2,r2,1
    b954:	1000091e 	bne	r2,zero,b97c <_fwalk+0x98>
    b958:	8080038b 	ldhu	r2,14(r16)
    b95c:	10bfffcc 	andi	r2,r2,65535
    b960:	10a0001c 	xori	r2,r2,32768
    b964:	10a00004 	addi	r2,r2,-32768
    b968:	10bfffe0 	cmpeqi	r2,r2,-1
    b96c:	1000031e 	bne	r2,zero,b97c <_fwalk+0x98>
    b970:	8009883a 	mov	r4,r16
    b974:	a03ee83a 	callr	r20
    b978:	98a6b03a 	or	r19,r19,r2
    b97c:	84001a04 	addi	r16,r16,104
    b980:	94bfffc4 	addi	r18,r18,-1
    b984:	903fe90e 	bge	r18,zero,b92c <__alt_mem_VGA_Subsystem_Char_Buf_Subsystem_Onchip_SRAM+0xf700b92c>
    b988:	8c400017 	ldw	r17,0(r17)
    b98c:	883fe41e 	bne	r17,zero,b920 <__alt_mem_VGA_Subsystem_Char_Buf_Subsystem_Onchip_SRAM+0xf700b920>
    b990:	9805883a 	mov	r2,r19
    b994:	e6fffb04 	addi	sp,fp,-20
    b998:	dfc00617 	ldw	ra,24(sp)
    b99c:	df000517 	ldw	fp,20(sp)
    b9a0:	dd000417 	ldw	r20,16(sp)
    b9a4:	dcc00317 	ldw	r19,12(sp)
    b9a8:	dc800217 	ldw	r18,8(sp)
    b9ac:	dc400117 	ldw	r17,4(sp)
    b9b0:	dc000017 	ldw	r16,0(sp)
    b9b4:	dec00704 	addi	sp,sp,28
    b9b8:	f800283a 	ret

0000b9bc <_fwalk_reent>:
    b9bc:	defff804 	addi	sp,sp,-32
    b9c0:	dfc00715 	stw	ra,28(sp)
    b9c4:	df000615 	stw	fp,24(sp)
    b9c8:	dd000515 	stw	r20,20(sp)
    b9cc:	dcc00415 	stw	r19,16(sp)
    b9d0:	dc800315 	stw	r18,12(sp)
    b9d4:	dc400215 	stw	r17,8(sp)
    b9d8:	dc000115 	stw	r16,4(sp)
    b9dc:	df000604 	addi	fp,sp,24
    b9e0:	e13ffa15 	stw	r4,-24(fp)
    b9e4:	2829883a 	mov	r20,r5
    b9e8:	0027883a 	mov	r19,zero
    b9ec:	e0bffa17 	ldw	r2,-24(fp)
    b9f0:	1440b804 	addi	r17,r2,736
    b9f4:	00001c06 	br	ba68 <_fwalk_reent+0xac>
    b9f8:	8c000217 	ldw	r16,8(r17)
    b9fc:	8c800117 	ldw	r18,4(r17)
    ba00:	00001606 	br	ba5c <_fwalk_reent+0xa0>
    ba04:	8080030b 	ldhu	r2,12(r16)
    ba08:	10bfffcc 	andi	r2,r2,65535
    ba0c:	10a0001c 	xori	r2,r2,32768
    ba10:	10a00004 	addi	r2,r2,-32768
    ba14:	10001026 	beq	r2,zero,ba58 <_fwalk_reent+0x9c>
    ba18:	8080030b 	ldhu	r2,12(r16)
    ba1c:	10bfffcc 	andi	r2,r2,65535
    ba20:	10a0001c 	xori	r2,r2,32768
    ba24:	10a00004 	addi	r2,r2,-32768
    ba28:	10800060 	cmpeqi	r2,r2,1
    ba2c:	10000a1e 	bne	r2,zero,ba58 <_fwalk_reent+0x9c>
    ba30:	8080038b 	ldhu	r2,14(r16)
    ba34:	10bfffcc 	andi	r2,r2,65535
    ba38:	10a0001c 	xori	r2,r2,32768
    ba3c:	10a00004 	addi	r2,r2,-32768
    ba40:	10bfffe0 	cmpeqi	r2,r2,-1
    ba44:	1000041e 	bne	r2,zero,ba58 <_fwalk_reent+0x9c>
    ba48:	800b883a 	mov	r5,r16
    ba4c:	e13ffa17 	ldw	r4,-24(fp)
    ba50:	a03ee83a 	callr	r20
    ba54:	98a6b03a 	or	r19,r19,r2
    ba58:	84001a04 	addi	r16,r16,104
    ba5c:	94bfffc4 	addi	r18,r18,-1
    ba60:	903fe80e 	bge	r18,zero,ba04 <__alt_mem_VGA_Subsystem_Char_Buf_Subsystem_Onchip_SRAM+0xf700ba04>
    ba64:	8c400017 	ldw	r17,0(r17)
    ba68:	883fe31e 	bne	r17,zero,b9f8 <__alt_mem_VGA_Subsystem_Char_Buf_Subsystem_Onchip_SRAM+0xf700b9f8>
    ba6c:	9805883a 	mov	r2,r19
    ba70:	e6fffb04 	addi	sp,fp,-20
    ba74:	dfc00617 	ldw	ra,24(sp)
    ba78:	df000517 	ldw	fp,20(sp)
    ba7c:	dd000417 	ldw	r20,16(sp)
    ba80:	dcc00317 	ldw	r19,12(sp)
    ba84:	dc800217 	ldw	r18,8(sp)
    ba88:	dc400117 	ldw	r17,4(sp)
    ba8c:	dc000017 	ldw	r16,0(sp)
    ba90:	dec00704 	addi	sp,sp,28
    ba94:	f800283a 	ret

0000ba98 <__smakebuf_r>:
    ba98:	deffea04 	addi	sp,sp,-88
    ba9c:	dfc01515 	stw	ra,84(sp)
    baa0:	df001415 	stw	fp,80(sp)
    baa4:	dcc01315 	stw	r19,76(sp)
    baa8:	dc801215 	stw	r18,72(sp)
    baac:	dc401115 	stw	r17,68(sp)
    bab0:	dc001015 	stw	r16,64(sp)
    bab4:	df001404 	addi	fp,sp,80
    bab8:	e13ffb15 	stw	r4,-20(fp)
    babc:	2821883a 	mov	r16,r5
    bac0:	8080030b 	ldhu	r2,12(r16)
    bac4:	10bfffcc 	andi	r2,r2,65535
    bac8:	1080008c 	andi	r2,r2,2
    bacc:	10000726 	beq	r2,zero,baec <__smakebuf_r+0x54>
    bad0:	808010c4 	addi	r2,r16,67
    bad4:	80800015 	stw	r2,0(r16)
    bad8:	80800017 	ldw	r2,0(r16)
    badc:	80800415 	stw	r2,16(r16)
    bae0:	00800044 	movi	r2,1
    bae4:	80800515 	stw	r2,20(r16)
    bae8:	00006d06 	br	bca0 <__smakebuf_r+0x208>
    baec:	8080038b 	ldhu	r2,14(r16)
    baf0:	10bfffcc 	andi	r2,r2,65535
    baf4:	10a0001c 	xori	r2,r2,32768
    baf8:	10a00004 	addi	r2,r2,-32768
    bafc:	10000916 	blt	r2,zero,bb24 <__smakebuf_r+0x8c>
    bb00:	8080038b 	ldhu	r2,14(r16)
    bb04:	10bfffcc 	andi	r2,r2,65535
    bb08:	10a0001c 	xori	r2,r2,32768
    bb0c:	10a00004 	addi	r2,r2,-32768
    bb10:	e1bfec04 	addi	r6,fp,-80
    bb14:	100b883a 	mov	r5,r2
    bb18:	e13ffb17 	ldw	r4,-20(fp)
    bb1c:	000d2c00 	call	d2c0 <_fstat_r>
    bb20:	10000c0e 	bge	r2,zero,bb54 <__smakebuf_r+0xbc>
    bb24:	0025883a 	mov	r18,zero
    bb28:	8080030b 	ldhu	r2,12(r16)
    bb2c:	10bfffcc 	andi	r2,r2,65535
    bb30:	1080200c 	andi	r2,r2,128
    bb34:	10000226 	beq	r2,zero,bb40 <__smakebuf_r+0xa8>
    bb38:	04401004 	movi	r17,64
    bb3c:	00000106 	br	bb44 <__smakebuf_r+0xac>
    bb40:	04410004 	movi	r17,1024
    bb44:	8080030b 	ldhu	r2,12(r16)
    bb48:	10820014 	ori	r2,r2,2048
    bb4c:	8080030d 	sth	r2,12(r16)
    bb50:	00001606 	br	bbac <__smakebuf_r+0x114>
    bb54:	e0bfed17 	ldw	r2,-76(fp)
    bb58:	10bc000c 	andi	r2,r2,61440
    bb5c:	10880020 	cmpeqi	r2,r2,8192
    bb60:	14803fcc 	andi	r18,r2,255
    bb64:	04410004 	movi	r17,1024
    bb68:	e0bfed17 	ldw	r2,-76(fp)
    bb6c:	10fc000c 	andi	r3,r2,61440
    bb70:	00a00014 	movui	r2,32768
    bb74:	18800a1e 	bne	r3,r2,bba0 <__smakebuf_r+0x108>
    bb78:	80c00a17 	ldw	r3,40(r16)
    bb7c:	00800074 	movhi	r2,1
    bb80:	10b3e604 	addi	r2,r2,-12392
    bb84:	1880061e 	bne	r3,r2,bba0 <__smakebuf_r+0x108>
    bb88:	8080030b 	ldhu	r2,12(r16)
    bb8c:	10810014 	ori	r2,r2,1024
    bb90:	8080030d 	sth	r2,12(r16)
    bb94:	00810004 	movi	r2,1024
    bb98:	80801315 	stw	r2,76(r16)
    bb9c:	00000306 	br	bbac <__smakebuf_r+0x114>
    bba0:	8080030b 	ldhu	r2,12(r16)
    bba4:	10820014 	ori	r2,r2,2048
    bba8:	8080030d 	sth	r2,12(r16)
    bbac:	90001126 	beq	r18,zero,bbf4 <__smakebuf_r+0x15c>
    bbb0:	8080038b 	ldhu	r2,14(r16)
    bbb4:	10bfffcc 	andi	r2,r2,65535
    bbb8:	10a0001c 	xori	r2,r2,32768
    bbbc:	10a00004 	addi	r2,r2,-32768
    bbc0:	100b883a 	mov	r5,r2
    bbc4:	e13ffb17 	ldw	r4,-20(fp)
    bbc8:	000d3280 	call	d328 <_isatty_r>
    bbcc:	10000926 	beq	r2,zero,bbf4 <__smakebuf_r+0x15c>
    bbd0:	8080030b 	ldhu	r2,12(r16)
    bbd4:	10800054 	ori	r2,r2,1
    bbd8:	8080030d 	sth	r2,12(r16)
    bbdc:	808010c4 	addi	r2,r16,67
    bbe0:	80800015 	stw	r2,0(r16)
    bbe4:	80800017 	ldw	r2,0(r16)
    bbe8:	80800415 	stw	r2,16(r16)
    bbec:	00800044 	movi	r2,1
    bbf0:	80800515 	stw	r2,20(r16)
    bbf4:	880b883a 	mov	r5,r17
    bbf8:	e13ffb17 	ldw	r4,-20(fp)
    bbfc:	000c0780 	call	c078 <_malloc_r>
    bc00:	1027883a 	mov	r19,r2
    bc04:	98000e1e 	bne	r19,zero,bc40 <__smakebuf_r+0x1a8>
    bc08:	8080030b 	ldhu	r2,12(r16)
    bc0c:	10bfffcc 	andi	r2,r2,65535
    bc10:	1080800c 	andi	r2,r2,512
    bc14:	1000221e 	bne	r2,zero,bca0 <__smakebuf_r+0x208>
    bc18:	8080030b 	ldhu	r2,12(r16)
    bc1c:	10800094 	ori	r2,r2,2
    bc20:	8080030d 	sth	r2,12(r16)
    bc24:	808010c4 	addi	r2,r16,67
    bc28:	80800015 	stw	r2,0(r16)
    bc2c:	80800017 	ldw	r2,0(r16)
    bc30:	80800415 	stw	r2,16(r16)
    bc34:	00800044 	movi	r2,1
    bc38:	80800515 	stw	r2,20(r16)
    bc3c:	00001806 	br	bca0 <__smakebuf_r+0x208>
    bc40:	e0fffb17 	ldw	r3,-20(fp)
    bc44:	00800074 	movhi	r2,1
    bc48:	10abc904 	addi	r2,r2,-20700
    bc4c:	18800f15 	stw	r2,60(r3)
    bc50:	8080030b 	ldhu	r2,12(r16)
    bc54:	10802014 	ori	r2,r2,128
    bc58:	8080030d 	sth	r2,12(r16)
    bc5c:	84c00015 	stw	r19,0(r16)
    bc60:	80800017 	ldw	r2,0(r16)
    bc64:	80800415 	stw	r2,16(r16)
    bc68:	8805883a 	mov	r2,r17
    bc6c:	80800515 	stw	r2,20(r16)
    bc70:	90000b26 	beq	r18,zero,bca0 <__smakebuf_r+0x208>
    bc74:	8080038b 	ldhu	r2,14(r16)
    bc78:	10bfffcc 	andi	r2,r2,65535
    bc7c:	10a0001c 	xori	r2,r2,32768
    bc80:	10a00004 	addi	r2,r2,-32768
    bc84:	100b883a 	mov	r5,r2
    bc88:	e13ffb17 	ldw	r4,-20(fp)
    bc8c:	000d3280 	call	d328 <_isatty_r>
    bc90:	10000326 	beq	r2,zero,bca0 <__smakebuf_r+0x208>
    bc94:	8080030b 	ldhu	r2,12(r16)
    bc98:	10800054 	ori	r2,r2,1
    bc9c:	8080030d 	sth	r2,12(r16)
    bca0:	e6fffc04 	addi	sp,fp,-16
    bca4:	dfc00517 	ldw	ra,20(sp)
    bca8:	df000417 	ldw	fp,16(sp)
    bcac:	dcc00317 	ldw	r19,12(sp)
    bcb0:	dc800217 	ldw	r18,8(sp)
    bcb4:	dc400117 	ldw	r17,4(sp)
    bcb8:	dc000017 	ldw	r16,0(sp)
    bcbc:	dec00604 	addi	sp,sp,24
    bcc0:	f800283a 	ret

0000bcc4 <malloc_extend_top>:
    bcc4:	defff104 	addi	sp,sp,-60
    bcc8:	dfc00e15 	stw	ra,56(sp)
    bccc:	df000d15 	stw	fp,52(sp)
    bcd0:	df000d04 	addi	fp,sp,52
    bcd4:	e13ffe15 	stw	r4,-8(fp)
    bcd8:	e17fff15 	stw	r5,-4(fp)
    bcdc:	e03ff715 	stw	zero,-36(fp)
    bce0:	00800374 	movhi	r2,13
    bce4:	10ac6e04 	addi	r2,r2,-20040
    bce8:	10800217 	ldw	r2,8(r2)
    bcec:	e0bff815 	stw	r2,-32(fp)
    bcf0:	e0bff817 	ldw	r2,-32(fp)
    bcf4:	10c00117 	ldw	r3,4(r2)
    bcf8:	00bfff04 	movi	r2,-4
    bcfc:	1884703a 	and	r2,r3,r2
    bd00:	e0bff915 	stw	r2,-28(fp)
    bd04:	e0fff817 	ldw	r3,-32(fp)
    bd08:	e0bff917 	ldw	r2,-28(fp)
    bd0c:	1885883a 	add	r2,r3,r2
    bd10:	e0bffa15 	stw	r2,-24(fp)
    bd14:	d0e79517 	ldw	r3,-25004(gp)
    bd18:	e0bfff17 	ldw	r2,-4(fp)
    bd1c:	1885883a 	add	r2,r3,r2
    bd20:	10800404 	addi	r2,r2,16
    bd24:	e0bff615 	stw	r2,-40(fp)
    bd28:	00840004 	movi	r2,4096
    bd2c:	e0bffb15 	stw	r2,-20(fp)
    bd30:	d0a01017 	ldw	r2,-32704(gp)
    bd34:	10bfffe0 	cmpeqi	r2,r2,-1
    bd38:	1000081e 	bne	r2,zero,bd5c <malloc_extend_top+0x98>
    bd3c:	e0fffb17 	ldw	r3,-20(fp)
    bd40:	e0bff617 	ldw	r2,-40(fp)
    bd44:	1885883a 	add	r2,r3,r2
    bd48:	10ffffc4 	addi	r3,r2,-1
    bd4c:	e0bffb17 	ldw	r2,-20(fp)
    bd50:	0085c83a 	sub	r2,zero,r2
    bd54:	1884703a 	and	r2,r3,r2
    bd58:	e0bff615 	stw	r2,-40(fp)
    bd5c:	e0bff617 	ldw	r2,-40(fp)
    bd60:	100b883a 	mov	r5,r2
    bd64:	e13ffe17 	ldw	r4,-8(fp)
    bd68:	000cdb80 	call	cdb8 <_sbrk_r>
    bd6c:	e0bff315 	stw	r2,-52(fp)
    bd70:	e0bff317 	ldw	r2,-52(fp)
    bd74:	10bfffe0 	cmpeqi	r2,r2,-1
    bd78:	1000b91e 	bne	r2,zero,c060 <malloc_extend_top+0x39c>
    bd7c:	e0fff317 	ldw	r3,-52(fp)
    bd80:	e0bffa17 	ldw	r2,-24(fp)
    bd84:	1880042e 	bgeu	r3,r2,bd98 <malloc_extend_top+0xd4>
    bd88:	00800374 	movhi	r2,13
    bd8c:	10ac6e04 	addi	r2,r2,-20040
    bd90:	e0fff817 	ldw	r3,-32(fp)
    bd94:	1880b21e 	bne	r3,r2,c060 <malloc_extend_top+0x39c>
    bd98:	00800374 	movhi	r2,13
    bd9c:	10b50804 	addi	r2,r2,-11232
    bda0:	10800017 	ldw	r2,0(r2)
    bda4:	1007883a 	mov	r3,r2
    bda8:	e0bff617 	ldw	r2,-40(fp)
    bdac:	1885883a 	add	r2,r3,r2
    bdb0:	1007883a 	mov	r3,r2
    bdb4:	00800374 	movhi	r2,13
    bdb8:	10b50804 	addi	r2,r2,-11232
    bdbc:	10c00015 	stw	r3,0(r2)
    bdc0:	e0fff317 	ldw	r3,-52(fp)
    bdc4:	e0bffa17 	ldw	r2,-24(fp)
    bdc8:	1880101e 	bne	r3,r2,be0c <malloc_extend_top+0x148>
    bdcc:	e0bffb17 	ldw	r2,-20(fp)
    bdd0:	10ffffc4 	addi	r3,r2,-1
    bdd4:	e0bffa17 	ldw	r2,-24(fp)
    bdd8:	1884703a 	and	r2,r3,r2
    bddc:	10000b1e 	bne	r2,zero,be0c <malloc_extend_top+0x148>
    bde0:	e0fff617 	ldw	r3,-40(fp)
    bde4:	e0bff917 	ldw	r2,-28(fp)
    bde8:	1885883a 	add	r2,r3,r2
    bdec:	e0bffc15 	stw	r2,-16(fp)
    bdf0:	00800374 	movhi	r2,13
    bdf4:	10ac6e04 	addi	r2,r2,-20040
    bdf8:	10800217 	ldw	r2,8(r2)
    bdfc:	e0fffc17 	ldw	r3,-16(fp)
    be00:	18c00054 	ori	r3,r3,1
    be04:	10c00115 	stw	r3,4(r2)
    be08:	00008006 	br	c00c <malloc_extend_top+0x348>
    be0c:	d0a01017 	ldw	r2,-32704(gp)
    be10:	10bfffd8 	cmpnei	r2,r2,-1
    be14:	1000031e 	bne	r2,zero,be24 <malloc_extend_top+0x160>
    be18:	e0bff317 	ldw	r2,-52(fp)
    be1c:	d0a01015 	stw	r2,-32704(gp)
    be20:	00000a06 	br	be4c <malloc_extend_top+0x188>
    be24:	00800374 	movhi	r2,13
    be28:	10b50804 	addi	r2,r2,-11232
    be2c:	10c00017 	ldw	r3,0(r2)
    be30:	e13ff317 	ldw	r4,-52(fp)
    be34:	e0bffa17 	ldw	r2,-24(fp)
    be38:	2085c83a 	sub	r2,r4,r2
    be3c:	1887883a 	add	r3,r3,r2
    be40:	00800374 	movhi	r2,13
    be44:	10b50804 	addi	r2,r2,-11232
    be48:	10c00015 	stw	r3,0(r2)
    be4c:	e0bff317 	ldw	r2,-52(fp)
    be50:	10800204 	addi	r2,r2,8
    be54:	108001cc 	andi	r2,r2,7
    be58:	e0bffd15 	stw	r2,-12(fp)
    be5c:	e0bffd17 	ldw	r2,-12(fp)
    be60:	10000926 	beq	r2,zero,be88 <malloc_extend_top+0x1c4>
    be64:	00c00204 	movi	r3,8
    be68:	e0bffd17 	ldw	r2,-12(fp)
    be6c:	1885c83a 	sub	r2,r3,r2
    be70:	e0bff415 	stw	r2,-48(fp)
    be74:	e0fff317 	ldw	r3,-52(fp)
    be78:	e0bff417 	ldw	r2,-48(fp)
    be7c:	1885883a 	add	r2,r3,r2
    be80:	e0bff315 	stw	r2,-52(fp)
    be84:	00000106 	br	be8c <malloc_extend_top+0x1c8>
    be88:	e03ff415 	stw	zero,-48(fp)
    be8c:	e0fff317 	ldw	r3,-52(fp)
    be90:	e0bff617 	ldw	r2,-40(fp)
    be94:	1885883a 	add	r2,r3,r2
    be98:	1007883a 	mov	r3,r2
    be9c:	e0bffb17 	ldw	r2,-20(fp)
    bea0:	10bfffc4 	addi	r2,r2,-1
    bea4:	1884703a 	and	r2,r3,r2
    bea8:	e0fffb17 	ldw	r3,-20(fp)
    beac:	1885c83a 	sub	r2,r3,r2
    beb0:	e0fff417 	ldw	r3,-48(fp)
    beb4:	1885883a 	add	r2,r3,r2
    beb8:	e0bff415 	stw	r2,-48(fp)
    bebc:	e0bff417 	ldw	r2,-48(fp)
    bec0:	100b883a 	mov	r5,r2
    bec4:	e13ffe17 	ldw	r4,-8(fp)
    bec8:	000cdb80 	call	cdb8 <_sbrk_r>
    becc:	e0bff515 	stw	r2,-44(fp)
    bed0:	e0bff517 	ldw	r2,-44(fp)
    bed4:	10bfffd8 	cmpnei	r2,r2,-1
    bed8:	1000051e 	bne	r2,zero,bef0 <malloc_extend_top+0x22c>
    bedc:	e03ff415 	stw	zero,-48(fp)
    bee0:	00800044 	movi	r2,1
    bee4:	e0bff715 	stw	r2,-36(fp)
    bee8:	e0bff317 	ldw	r2,-52(fp)
    beec:	e0bff515 	stw	r2,-44(fp)
    bef0:	00800374 	movhi	r2,13
    bef4:	10b50804 	addi	r2,r2,-11232
    bef8:	10800017 	ldw	r2,0(r2)
    befc:	1007883a 	mov	r3,r2
    bf00:	e0bff417 	ldw	r2,-48(fp)
    bf04:	1885883a 	add	r2,r3,r2
    bf08:	1007883a 	mov	r3,r2
    bf0c:	00800374 	movhi	r2,13
    bf10:	10b50804 	addi	r2,r2,-11232
    bf14:	10c00015 	stw	r3,0(r2)
    bf18:	00800374 	movhi	r2,13
    bf1c:	10ac6e04 	addi	r2,r2,-20040
    bf20:	e0fff317 	ldw	r3,-52(fp)
    bf24:	10c00215 	stw	r3,8(r2)
    bf28:	e0fff517 	ldw	r3,-44(fp)
    bf2c:	e0bff317 	ldw	r2,-52(fp)
    bf30:	1885c83a 	sub	r2,r3,r2
    bf34:	1007883a 	mov	r3,r2
    bf38:	e0bff417 	ldw	r2,-48(fp)
    bf3c:	1885883a 	add	r2,r3,r2
    bf40:	e0bffc15 	stw	r2,-16(fp)
    bf44:	00800374 	movhi	r2,13
    bf48:	10ac6e04 	addi	r2,r2,-20040
    bf4c:	10800217 	ldw	r2,8(r2)
    bf50:	e0fffc17 	ldw	r3,-16(fp)
    bf54:	18c00054 	ori	r3,r3,1
    bf58:	10c00115 	stw	r3,4(r2)
    bf5c:	00800374 	movhi	r2,13
    bf60:	10ac6e04 	addi	r2,r2,-20040
    bf64:	e0fff817 	ldw	r3,-32(fp)
    bf68:	18802826 	beq	r3,r2,c00c <malloc_extend_top+0x348>
    bf6c:	e0bff917 	ldw	r2,-28(fp)
    bf70:	10800428 	cmpgeui	r2,r2,16
    bf74:	1000061e 	bne	r2,zero,bf90 <malloc_extend_top+0x2cc>
    bf78:	00800374 	movhi	r2,13
    bf7c:	10ac6e04 	addi	r2,r2,-20040
    bf80:	10800217 	ldw	r2,8(r2)
    bf84:	00c00044 	movi	r3,1
    bf88:	10c00115 	stw	r3,4(r2)
    bf8c:	00003506 	br	c064 <malloc_extend_top+0x3a0>
    bf90:	e0bff917 	ldw	r2,-28(fp)
    bf94:	10fffd04 	addi	r3,r2,-12
    bf98:	00bffe04 	movi	r2,-8
    bf9c:	1884703a 	and	r2,r3,r2
    bfa0:	e0bff915 	stw	r2,-28(fp)
    bfa4:	e0bff817 	ldw	r2,-32(fp)
    bfa8:	10800117 	ldw	r2,4(r2)
    bfac:	10c0004c 	andi	r3,r2,1
    bfb0:	e0bff917 	ldw	r2,-28(fp)
    bfb4:	1886b03a 	or	r3,r3,r2
    bfb8:	e0bff817 	ldw	r2,-32(fp)
    bfbc:	10c00115 	stw	r3,4(r2)
    bfc0:	e0fff817 	ldw	r3,-32(fp)
    bfc4:	e0bff917 	ldw	r2,-28(fp)
    bfc8:	1885883a 	add	r2,r3,r2
    bfcc:	00c00144 	movi	r3,5
    bfd0:	10c00115 	stw	r3,4(r2)
    bfd4:	e0bff917 	ldw	r2,-28(fp)
    bfd8:	10800104 	addi	r2,r2,4
    bfdc:	e0fff817 	ldw	r3,-32(fp)
    bfe0:	1885883a 	add	r2,r3,r2
    bfe4:	00c00144 	movi	r3,5
    bfe8:	10c00115 	stw	r3,4(r2)
    bfec:	e0bff917 	ldw	r2,-28(fp)
    bff0:	10800430 	cmpltui	r2,r2,16
    bff4:	1000051e 	bne	r2,zero,c00c <malloc_extend_top+0x348>
    bff8:	e0bff817 	ldw	r2,-32(fp)
    bffc:	10800204 	addi	r2,r2,8
    c000:	100b883a 	mov	r5,r2
    c004:	e13ffe17 	ldw	r4,-8(fp)
    c008:	000b1bc0 	call	b1bc <_free_r>
    c00c:	00800374 	movhi	r2,13
    c010:	10b50804 	addi	r2,r2,-11232
    c014:	10800017 	ldw	r2,0(r2)
    c018:	1007883a 	mov	r3,r2
    c01c:	d0a79617 	ldw	r2,-25000(gp)
    c020:	10c0042e 	bgeu	r2,r3,c034 <malloc_extend_top+0x370>
    c024:	00800374 	movhi	r2,13
    c028:	10b50804 	addi	r2,r2,-11232
    c02c:	10800017 	ldw	r2,0(r2)
    c030:	d0a79615 	stw	r2,-25000(gp)
    c034:	00800374 	movhi	r2,13
    c038:	10b50804 	addi	r2,r2,-11232
    c03c:	10800017 	ldw	r2,0(r2)
    c040:	1007883a 	mov	r3,r2
    c044:	d0a79717 	ldw	r2,-24996(gp)
    c048:	10c0062e 	bgeu	r2,r3,c064 <malloc_extend_top+0x3a0>
    c04c:	00800374 	movhi	r2,13
    c050:	10b50804 	addi	r2,r2,-11232
    c054:	10800017 	ldw	r2,0(r2)
    c058:	d0a79715 	stw	r2,-24996(gp)
    c05c:	00000106 	br	c064 <malloc_extend_top+0x3a0>
    c060:	0001883a 	nop
    c064:	e037883a 	mov	sp,fp
    c068:	dfc00117 	ldw	ra,4(sp)
    c06c:	df000017 	ldw	fp,0(sp)
    c070:	dec00204 	addi	sp,sp,8
    c074:	f800283a 	ret

0000c078 <_malloc_r>:
    c078:	deffef04 	addi	sp,sp,-68
    c07c:	dfc01015 	stw	ra,64(sp)
    c080:	df000f15 	stw	fp,60(sp)
    c084:	df000f04 	addi	fp,sp,60
    c088:	e13ffe15 	stw	r4,-8(fp)
    c08c:	e17fff15 	stw	r5,-4(fp)
    c090:	e0bfff17 	ldw	r2,-4(fp)
    c094:	108002c4 	addi	r2,r2,11
    c098:	108005f0 	cmpltui	r2,r2,23
    c09c:	1000051e 	bne	r2,zero,c0b4 <_malloc_r+0x3c>
    c0a0:	e0bfff17 	ldw	r2,-4(fp)
    c0a4:	10c002c4 	addi	r3,r2,11
    c0a8:	00bffe04 	movi	r2,-8
    c0ac:	1884703a 	and	r2,r3,r2
    c0b0:	00000106 	br	c0b8 <_malloc_r+0x40>
    c0b4:	00800404 	movi	r2,16
    c0b8:	e0bffa15 	stw	r2,-24(fp)
    c0bc:	e0bffa17 	ldw	r2,-24(fp)
    c0c0:	10000316 	blt	r2,zero,c0d0 <_malloc_r+0x58>
    c0c4:	e0fffa17 	ldw	r3,-24(fp)
    c0c8:	e0bfff17 	ldw	r2,-4(fp)
    c0cc:	1880052e 	bgeu	r3,r2,c0e4 <_malloc_r+0x6c>
    c0d0:	e0bffe17 	ldw	r2,-8(fp)
    c0d4:	00c00304 	movi	r3,12
    c0d8:	10c00015 	stw	r3,0(r2)
    c0dc:	0005883a 	mov	r2,zero
    c0e0:	0002bf06 	br	cbe0 <_malloc_r+0xb68>
    c0e4:	e13ffe17 	ldw	r4,-8(fp)
    c0e8:	000d7780 	call	d778 <__malloc_lock>
    c0ec:	e0bffa17 	ldw	r2,-24(fp)
    c0f0:	10807e28 	cmpgeui	r2,r2,504
    c0f4:	10003f1e 	bne	r2,zero,c1f4 <_malloc_r+0x17c>
    c0f8:	e0bffa17 	ldw	r2,-24(fp)
    c0fc:	1004d0fa 	srli	r2,r2,3
    c100:	e0bff215 	stw	r2,-56(fp)
    c104:	e0bff217 	ldw	r2,-56(fp)
    c108:	10800044 	addi	r2,r2,1
    c10c:	1085883a 	add	r2,r2,r2
    c110:	1085883a 	add	r2,r2,r2
    c114:	1087883a 	add	r3,r2,r2
    c118:	00800374 	movhi	r2,13
    c11c:	10ac6e04 	addi	r2,r2,-20040
    c120:	1885883a 	add	r2,r3,r2
    c124:	10bffe04 	addi	r2,r2,-8
    c128:	e0bff915 	stw	r2,-28(fp)
    c12c:	e0bff917 	ldw	r2,-28(fp)
    c130:	10800317 	ldw	r2,12(r2)
    c134:	e0bff115 	stw	r2,-60(fp)
    c138:	e0fff117 	ldw	r3,-60(fp)
    c13c:	e0bff917 	ldw	r2,-28(fp)
    c140:	1880061e 	bne	r3,r2,c15c <_malloc_r+0xe4>
    c144:	e0bff917 	ldw	r2,-28(fp)
    c148:	10800204 	addi	r2,r2,8
    c14c:	e0bff915 	stw	r2,-28(fp)
    c150:	e0bff917 	ldw	r2,-28(fp)
    c154:	10800317 	ldw	r2,12(r2)
    c158:	e0bff115 	stw	r2,-60(fp)
    c15c:	e0fff117 	ldw	r3,-60(fp)
    c160:	e0bff917 	ldw	r2,-28(fp)
    c164:	18801f26 	beq	r3,r2,c1e4 <_malloc_r+0x16c>
    c168:	e0bff117 	ldw	r2,-60(fp)
    c16c:	10c00117 	ldw	r3,4(r2)
    c170:	00bfff04 	movi	r2,-4
    c174:	1884703a 	and	r2,r3,r2
    c178:	e0bffb15 	stw	r2,-20(fp)
    c17c:	e0bff117 	ldw	r2,-60(fp)
    c180:	10800317 	ldw	r2,12(r2)
    c184:	e0bff815 	stw	r2,-32(fp)
    c188:	e0bff117 	ldw	r2,-60(fp)
    c18c:	10800217 	ldw	r2,8(r2)
    c190:	e0bff715 	stw	r2,-36(fp)
    c194:	e0bff717 	ldw	r2,-36(fp)
    c198:	e0fff817 	ldw	r3,-32(fp)
    c19c:	10c00315 	stw	r3,12(r2)
    c1a0:	e0bff817 	ldw	r2,-32(fp)
    c1a4:	e0fff717 	ldw	r3,-36(fp)
    c1a8:	10c00215 	stw	r3,8(r2)
    c1ac:	e0fff117 	ldw	r3,-60(fp)
    c1b0:	e0bffb17 	ldw	r2,-20(fp)
    c1b4:	1885883a 	add	r2,r3,r2
    c1b8:	e13ff117 	ldw	r4,-60(fp)
    c1bc:	e0fffb17 	ldw	r3,-20(fp)
    c1c0:	20c7883a 	add	r3,r4,r3
    c1c4:	18c00117 	ldw	r3,4(r3)
    c1c8:	18c00054 	ori	r3,r3,1
    c1cc:	10c00115 	stw	r3,4(r2)
    c1d0:	e13ffe17 	ldw	r4,-8(fp)
    c1d4:	000d79c0 	call	d79c <__malloc_unlock>
    c1d8:	e0bff117 	ldw	r2,-60(fp)
    c1dc:	10800204 	addi	r2,r2,8
    c1e0:	00027f06 	br	cbe0 <_malloc_r+0xb68>
    c1e4:	e0bff217 	ldw	r2,-56(fp)
    c1e8:	10800084 	addi	r2,r2,2
    c1ec:	e0bff215 	stw	r2,-56(fp)
    c1f0:	00007306 	br	c3c0 <_malloc_r+0x348>
    c1f4:	e0bffa17 	ldw	r2,-24(fp)
    c1f8:	1004d27a 	srli	r2,r2,9
    c1fc:	1000031e 	bne	r2,zero,c20c <_malloc_r+0x194>
    c200:	e0bffa17 	ldw	r2,-24(fp)
    c204:	1004d0fa 	srli	r2,r2,3
    c208:	00002906 	br	c2b0 <_malloc_r+0x238>
    c20c:	e0bffa17 	ldw	r2,-24(fp)
    c210:	1004d27a 	srli	r2,r2,9
    c214:	10800168 	cmpgeui	r2,r2,5
    c218:	1000041e 	bne	r2,zero,c22c <_malloc_r+0x1b4>
    c21c:	e0bffa17 	ldw	r2,-24(fp)
    c220:	1004d1ba 	srli	r2,r2,6
    c224:	10800e04 	addi	r2,r2,56
    c228:	00002106 	br	c2b0 <_malloc_r+0x238>
    c22c:	e0bffa17 	ldw	r2,-24(fp)
    c230:	1004d27a 	srli	r2,r2,9
    c234:	10800568 	cmpgeui	r2,r2,21
    c238:	1000041e 	bne	r2,zero,c24c <_malloc_r+0x1d4>
    c23c:	e0bffa17 	ldw	r2,-24(fp)
    c240:	1004d27a 	srli	r2,r2,9
    c244:	108016c4 	addi	r2,r2,91
    c248:	00001906 	br	c2b0 <_malloc_r+0x238>
    c24c:	e0bffa17 	ldw	r2,-24(fp)
    c250:	1004d27a 	srli	r2,r2,9
    c254:	10801568 	cmpgeui	r2,r2,85
    c258:	1000041e 	bne	r2,zero,c26c <_malloc_r+0x1f4>
    c25c:	e0bffa17 	ldw	r2,-24(fp)
    c260:	1004d33a 	srli	r2,r2,12
    c264:	10801b84 	addi	r2,r2,110
    c268:	00001106 	br	c2b0 <_malloc_r+0x238>
    c26c:	e0bffa17 	ldw	r2,-24(fp)
    c270:	1004d27a 	srli	r2,r2,9
    c274:	10805568 	cmpgeui	r2,r2,341
    c278:	1000041e 	bne	r2,zero,c28c <_malloc_r+0x214>
    c27c:	e0bffa17 	ldw	r2,-24(fp)
    c280:	1004d3fa 	srli	r2,r2,15
    c284:	10801dc4 	addi	r2,r2,119
    c288:	00000906 	br	c2b0 <_malloc_r+0x238>
    c28c:	e0bffa17 	ldw	r2,-24(fp)
    c290:	1004d27a 	srli	r2,r2,9
    c294:	10815568 	cmpgeui	r2,r2,1365
    c298:	1000041e 	bne	r2,zero,c2ac <_malloc_r+0x234>
    c29c:	e0bffa17 	ldw	r2,-24(fp)
    c2a0:	1004d4ba 	srli	r2,r2,18
    c2a4:	10801f04 	addi	r2,r2,124
    c2a8:	00000106 	br	c2b0 <_malloc_r+0x238>
    c2ac:	00801f84 	movi	r2,126
    c2b0:	e0bff215 	stw	r2,-56(fp)
    c2b4:	e0bff217 	ldw	r2,-56(fp)
    c2b8:	10800044 	addi	r2,r2,1
    c2bc:	1085883a 	add	r2,r2,r2
    c2c0:	1085883a 	add	r2,r2,r2
    c2c4:	1087883a 	add	r3,r2,r2
    c2c8:	00800374 	movhi	r2,13
    c2cc:	10ac6e04 	addi	r2,r2,-20040
    c2d0:	1885883a 	add	r2,r3,r2
    c2d4:	10bffe04 	addi	r2,r2,-8
    c2d8:	e0bff315 	stw	r2,-52(fp)
    c2dc:	e0bff317 	ldw	r2,-52(fp)
    c2e0:	10800317 	ldw	r2,12(r2)
    c2e4:	e0bff115 	stw	r2,-60(fp)
    c2e8:	00002f06 	br	c3a8 <_malloc_r+0x330>
    c2ec:	e0bff117 	ldw	r2,-60(fp)
    c2f0:	10c00117 	ldw	r3,4(r2)
    c2f4:	00bfff04 	movi	r2,-4
    c2f8:	1884703a 	and	r2,r3,r2
    c2fc:	e0bffb15 	stw	r2,-20(fp)
    c300:	e0fffb17 	ldw	r3,-20(fp)
    c304:	e0bffa17 	ldw	r2,-24(fp)
    c308:	1885c83a 	sub	r2,r3,r2
    c30c:	e0bff415 	stw	r2,-48(fp)
    c310:	e0bff417 	ldw	r2,-48(fp)
    c314:	10800410 	cmplti	r2,r2,16
    c318:	1000041e 	bne	r2,zero,c32c <_malloc_r+0x2b4>
    c31c:	e0bff217 	ldw	r2,-56(fp)
    c320:	10bfffc4 	addi	r2,r2,-1
    c324:	e0bff215 	stw	r2,-56(fp)
    c328:	00002206 	br	c3b4 <_malloc_r+0x33c>
    c32c:	e0bff417 	ldw	r2,-48(fp)
    c330:	10001a16 	blt	r2,zero,c39c <_malloc_r+0x324>
    c334:	e0bff117 	ldw	r2,-60(fp)
    c338:	10800317 	ldw	r2,12(r2)
    c33c:	e0bff815 	stw	r2,-32(fp)
    c340:	e0bff117 	ldw	r2,-60(fp)
    c344:	10800217 	ldw	r2,8(r2)
    c348:	e0bff715 	stw	r2,-36(fp)
    c34c:	e0bff717 	ldw	r2,-36(fp)
    c350:	e0fff817 	ldw	r3,-32(fp)
    c354:	10c00315 	stw	r3,12(r2)
    c358:	e0bff817 	ldw	r2,-32(fp)
    c35c:	e0fff717 	ldw	r3,-36(fp)
    c360:	10c00215 	stw	r3,8(r2)
    c364:	e0fff117 	ldw	r3,-60(fp)
    c368:	e0bffb17 	ldw	r2,-20(fp)
    c36c:	1885883a 	add	r2,r3,r2
    c370:	e13ff117 	ldw	r4,-60(fp)
    c374:	e0fffb17 	ldw	r3,-20(fp)
    c378:	20c7883a 	add	r3,r4,r3
    c37c:	18c00117 	ldw	r3,4(r3)
    c380:	18c00054 	ori	r3,r3,1
    c384:	10c00115 	stw	r3,4(r2)
    c388:	e13ffe17 	ldw	r4,-8(fp)
    c38c:	000d79c0 	call	d79c <__malloc_unlock>
    c390:	e0bff117 	ldw	r2,-60(fp)
    c394:	10800204 	addi	r2,r2,8
    c398:	00021106 	br	cbe0 <_malloc_r+0xb68>
    c39c:	e0bff117 	ldw	r2,-60(fp)
    c3a0:	10800317 	ldw	r2,12(r2)
    c3a4:	e0bff115 	stw	r2,-60(fp)
    c3a8:	e0fff117 	ldw	r3,-60(fp)
    c3ac:	e0bff317 	ldw	r2,-52(fp)
    c3b0:	18bfce1e 	bne	r3,r2,c2ec <__alt_mem_VGA_Subsystem_Char_Buf_Subsystem_Onchip_SRAM+0xf700c2ec>
    c3b4:	e0bff217 	ldw	r2,-56(fp)
    c3b8:	10800044 	addi	r2,r2,1
    c3bc:	e0bff215 	stw	r2,-56(fp)
    c3c0:	00800374 	movhi	r2,13
    c3c4:	10ac7004 	addi	r2,r2,-20032
    c3c8:	10800217 	ldw	r2,8(r2)
    c3cc:	e0bff115 	stw	r2,-60(fp)
    c3d0:	00800374 	movhi	r2,13
    c3d4:	10ac7004 	addi	r2,r2,-20032
    c3d8:	e0fff117 	ldw	r3,-60(fp)
    c3dc:	1880e626 	beq	r3,r2,c778 <_malloc_r+0x700>
    c3e0:	e0bff117 	ldw	r2,-60(fp)
    c3e4:	10c00117 	ldw	r3,4(r2)
    c3e8:	00bfff04 	movi	r2,-4
    c3ec:	1884703a 	and	r2,r3,r2
    c3f0:	e0bffb15 	stw	r2,-20(fp)
    c3f4:	e0fffb17 	ldw	r3,-20(fp)
    c3f8:	e0bffa17 	ldw	r2,-24(fp)
    c3fc:	1885c83a 	sub	r2,r3,r2
    c400:	e0bff415 	stw	r2,-48(fp)
    c404:	e0bff417 	ldw	r2,-48(fp)
    c408:	10800410 	cmplti	r2,r2,16
    c40c:	1000271e 	bne	r2,zero,c4ac <_malloc_r+0x434>
    c410:	e0fff117 	ldw	r3,-60(fp)
    c414:	e0bffa17 	ldw	r2,-24(fp)
    c418:	1885883a 	add	r2,r3,r2
    c41c:	e0bffc15 	stw	r2,-16(fp)
    c420:	e0bffa17 	ldw	r2,-24(fp)
    c424:	10c00054 	ori	r3,r2,1
    c428:	e0bff117 	ldw	r2,-60(fp)
    c42c:	10c00115 	stw	r3,4(r2)
    c430:	00c00374 	movhi	r3,13
    c434:	18ec7004 	addi	r3,r3,-20032
    c438:	00800374 	movhi	r2,13
    c43c:	10ac7004 	addi	r2,r2,-20032
    c440:	e13ffc17 	ldw	r4,-16(fp)
    c444:	11000315 	stw	r4,12(r2)
    c448:	10800317 	ldw	r2,12(r2)
    c44c:	18800215 	stw	r2,8(r3)
    c450:	00800374 	movhi	r2,13
    c454:	10ac7004 	addi	r2,r2,-20032
    c458:	e0fffc17 	ldw	r3,-16(fp)
    c45c:	18800315 	stw	r2,12(r3)
    c460:	e0bffc17 	ldw	r2,-16(fp)
    c464:	10c00317 	ldw	r3,12(r2)
    c468:	e0bffc17 	ldw	r2,-16(fp)
    c46c:	10c00215 	stw	r3,8(r2)
    c470:	e0bff417 	ldw	r2,-48(fp)
    c474:	10800054 	ori	r2,r2,1
    c478:	1007883a 	mov	r3,r2
    c47c:	e0bffc17 	ldw	r2,-16(fp)
    c480:	10c00115 	stw	r3,4(r2)
    c484:	e0bff417 	ldw	r2,-48(fp)
    c488:	e0fffc17 	ldw	r3,-16(fp)
    c48c:	1885883a 	add	r2,r3,r2
    c490:	e0fff417 	ldw	r3,-48(fp)
    c494:	10c00015 	stw	r3,0(r2)
    c498:	e13ffe17 	ldw	r4,-8(fp)
    c49c:	000d79c0 	call	d79c <__malloc_unlock>
    c4a0:	e0bff117 	ldw	r2,-60(fp)
    c4a4:	10800204 	addi	r2,r2,8
    c4a8:	0001cd06 	br	cbe0 <_malloc_r+0xb68>
    c4ac:	00c00374 	movhi	r3,13
    c4b0:	18ec7004 	addi	r3,r3,-20032
    c4b4:	00800374 	movhi	r2,13
    c4b8:	10ac7004 	addi	r2,r2,-20032
    c4bc:	01000374 	movhi	r4,13
    c4c0:	212c7004 	addi	r4,r4,-20032
    c4c4:	11000315 	stw	r4,12(r2)
    c4c8:	10800317 	ldw	r2,12(r2)
    c4cc:	18800215 	stw	r2,8(r3)
    c4d0:	e0bff417 	ldw	r2,-48(fp)
    c4d4:	10000e16 	blt	r2,zero,c510 <_malloc_r+0x498>
    c4d8:	e0fff117 	ldw	r3,-60(fp)
    c4dc:	e0bffb17 	ldw	r2,-20(fp)
    c4e0:	1885883a 	add	r2,r3,r2
    c4e4:	e13ff117 	ldw	r4,-60(fp)
    c4e8:	e0fffb17 	ldw	r3,-20(fp)
    c4ec:	20c7883a 	add	r3,r4,r3
    c4f0:	18c00117 	ldw	r3,4(r3)
    c4f4:	18c00054 	ori	r3,r3,1
    c4f8:	10c00115 	stw	r3,4(r2)
    c4fc:	e13ffe17 	ldw	r4,-8(fp)
    c500:	000d79c0 	call	d79c <__malloc_unlock>
    c504:	e0bff117 	ldw	r2,-60(fp)
    c508:	10800204 	addi	r2,r2,8
    c50c:	0001b406 	br	cbe0 <_malloc_r+0xb68>
    c510:	e0bffb17 	ldw	r2,-20(fp)
    c514:	10808028 	cmpgeui	r2,r2,512
    c518:	10002c1e 	bne	r2,zero,c5cc <_malloc_r+0x554>
    c51c:	e0bffb17 	ldw	r2,-20(fp)
    c520:	1004d0fa 	srli	r2,r2,3
    c524:	e0bffd15 	stw	r2,-12(fp)
    c528:	00c00374 	movhi	r3,13
    c52c:	18ec6e04 	addi	r3,r3,-20040
    c530:	00800374 	movhi	r2,13
    c534:	10ac6e04 	addi	r2,r2,-20040
    c538:	11000117 	ldw	r4,4(r2)
    c53c:	e0bffd17 	ldw	r2,-12(fp)
    c540:	1000010e 	bge	r2,zero,c548 <_malloc_r+0x4d0>
    c544:	108000c4 	addi	r2,r2,3
    c548:	1005d0ba 	srai	r2,r2,2
    c54c:	100b883a 	mov	r5,r2
    c550:	00800044 	movi	r2,1
    c554:	1144983a 	sll	r2,r2,r5
    c558:	2084b03a 	or	r2,r4,r2
    c55c:	18800115 	stw	r2,4(r3)
    c560:	e0bffd17 	ldw	r2,-12(fp)
    c564:	10800044 	addi	r2,r2,1
    c568:	1085883a 	add	r2,r2,r2
    c56c:	1085883a 	add	r2,r2,r2
    c570:	1087883a 	add	r3,r2,r2
    c574:	00800374 	movhi	r2,13
    c578:	10ac6e04 	addi	r2,r2,-20040
    c57c:	1885883a 	add	r2,r3,r2
    c580:	10bffe04 	addi	r2,r2,-8
    c584:	e0bff815 	stw	r2,-32(fp)
    c588:	e0bff817 	ldw	r2,-32(fp)
    c58c:	10800217 	ldw	r2,8(r2)
    c590:	e0bff715 	stw	r2,-36(fp)
    c594:	e0bff117 	ldw	r2,-60(fp)
    c598:	e0fff817 	ldw	r3,-32(fp)
    c59c:	10c00315 	stw	r3,12(r2)
    c5a0:	e0bff117 	ldw	r2,-60(fp)
    c5a4:	e0fff717 	ldw	r3,-36(fp)
    c5a8:	10c00215 	stw	r3,8(r2)
    c5ac:	e0bff817 	ldw	r2,-32(fp)
    c5b0:	e0fff117 	ldw	r3,-60(fp)
    c5b4:	10c00215 	stw	r3,8(r2)
    c5b8:	e0bff817 	ldw	r2,-32(fp)
    c5bc:	10c00217 	ldw	r3,8(r2)
    c5c0:	e0bff717 	ldw	r2,-36(fp)
    c5c4:	10c00315 	stw	r3,12(r2)
    c5c8:	00006b06 	br	c778 <_malloc_r+0x700>
    c5cc:	e0bffb17 	ldw	r2,-20(fp)
    c5d0:	1004d27a 	srli	r2,r2,9
    c5d4:	1000031e 	bne	r2,zero,c5e4 <_malloc_r+0x56c>
    c5d8:	e0bffb17 	ldw	r2,-20(fp)
    c5dc:	1004d0fa 	srli	r2,r2,3
    c5e0:	00002906 	br	c688 <_malloc_r+0x610>
    c5e4:	e0bffb17 	ldw	r2,-20(fp)
    c5e8:	1004d27a 	srli	r2,r2,9
    c5ec:	10800168 	cmpgeui	r2,r2,5
    c5f0:	1000041e 	bne	r2,zero,c604 <_malloc_r+0x58c>
    c5f4:	e0bffb17 	ldw	r2,-20(fp)
    c5f8:	1004d1ba 	srli	r2,r2,6
    c5fc:	10800e04 	addi	r2,r2,56
    c600:	00002106 	br	c688 <_malloc_r+0x610>
    c604:	e0bffb17 	ldw	r2,-20(fp)
    c608:	1004d27a 	srli	r2,r2,9
    c60c:	10800568 	cmpgeui	r2,r2,21
    c610:	1000041e 	bne	r2,zero,c624 <_malloc_r+0x5ac>
    c614:	e0bffb17 	ldw	r2,-20(fp)
    c618:	1004d27a 	srli	r2,r2,9
    c61c:	108016c4 	addi	r2,r2,91
    c620:	00001906 	br	c688 <_malloc_r+0x610>
    c624:	e0bffb17 	ldw	r2,-20(fp)
    c628:	1004d27a 	srli	r2,r2,9
    c62c:	10801568 	cmpgeui	r2,r2,85
    c630:	1000041e 	bne	r2,zero,c644 <_malloc_r+0x5cc>
    c634:	e0bffb17 	ldw	r2,-20(fp)
    c638:	1004d33a 	srli	r2,r2,12
    c63c:	10801b84 	addi	r2,r2,110
    c640:	00001106 	br	c688 <_malloc_r+0x610>
    c644:	e0bffb17 	ldw	r2,-20(fp)
    c648:	1004d27a 	srli	r2,r2,9
    c64c:	10805568 	cmpgeui	r2,r2,341
    c650:	1000041e 	bne	r2,zero,c664 <_malloc_r+0x5ec>
    c654:	e0bffb17 	ldw	r2,-20(fp)
    c658:	1004d3fa 	srli	r2,r2,15
    c65c:	10801dc4 	addi	r2,r2,119
    c660:	00000906 	br	c688 <_malloc_r+0x610>
    c664:	e0bffb17 	ldw	r2,-20(fp)
    c668:	1004d27a 	srli	r2,r2,9
    c66c:	10815568 	cmpgeui	r2,r2,1365
    c670:	1000041e 	bne	r2,zero,c684 <_malloc_r+0x60c>
    c674:	e0bffb17 	ldw	r2,-20(fp)
    c678:	1004d4ba 	srli	r2,r2,18
    c67c:	10801f04 	addi	r2,r2,124
    c680:	00000106 	br	c688 <_malloc_r+0x610>
    c684:	00801f84 	movi	r2,126
    c688:	e0bffd15 	stw	r2,-12(fp)
    c68c:	e0bffd17 	ldw	r2,-12(fp)
    c690:	10800044 	addi	r2,r2,1
    c694:	1085883a 	add	r2,r2,r2
    c698:	1085883a 	add	r2,r2,r2
    c69c:	1087883a 	add	r3,r2,r2
    c6a0:	00800374 	movhi	r2,13
    c6a4:	10ac6e04 	addi	r2,r2,-20040
    c6a8:	1885883a 	add	r2,r3,r2
    c6ac:	10bffe04 	addi	r2,r2,-8
    c6b0:	e0bff815 	stw	r2,-32(fp)
    c6b4:	e0bff817 	ldw	r2,-32(fp)
    c6b8:	10800217 	ldw	r2,8(r2)
    c6bc:	e0bff715 	stw	r2,-36(fp)
    c6c0:	e0fff717 	ldw	r3,-36(fp)
    c6c4:	e0bff817 	ldw	r2,-32(fp)
    c6c8:	1880121e 	bne	r3,r2,c714 <_malloc_r+0x69c>
    c6cc:	00c00374 	movhi	r3,13
    c6d0:	18ec6e04 	addi	r3,r3,-20040
    c6d4:	00800374 	movhi	r2,13
    c6d8:	10ac6e04 	addi	r2,r2,-20040
    c6dc:	11000117 	ldw	r4,4(r2)
    c6e0:	e0bffd17 	ldw	r2,-12(fp)
    c6e4:	1000010e 	bge	r2,zero,c6ec <_malloc_r+0x674>
    c6e8:	108000c4 	addi	r2,r2,3
    c6ec:	1005d0ba 	srai	r2,r2,2
    c6f0:	100b883a 	mov	r5,r2
    c6f4:	00800044 	movi	r2,1
    c6f8:	1144983a 	sll	r2,r2,r5
    c6fc:	2084b03a 	or	r2,r4,r2
    c700:	18800115 	stw	r2,4(r3)
    c704:	00000f06 	br	c744 <_malloc_r+0x6cc>
    c708:	e0bff717 	ldw	r2,-36(fp)
    c70c:	10800217 	ldw	r2,8(r2)
    c710:	e0bff715 	stw	r2,-36(fp)
    c714:	e0fff717 	ldw	r3,-36(fp)
    c718:	e0bff817 	ldw	r2,-32(fp)
    c71c:	18800626 	beq	r3,r2,c738 <_malloc_r+0x6c0>
    c720:	e0bff717 	ldw	r2,-36(fp)
    c724:	10c00117 	ldw	r3,4(r2)
    c728:	00bfff04 	movi	r2,-4
    c72c:	1884703a 	and	r2,r3,r2
    c730:	e0fffb17 	ldw	r3,-20(fp)
    c734:	18bff436 	bltu	r3,r2,c708 <__alt_mem_VGA_Subsystem_Char_Buf_Subsystem_Onchip_SRAM+0xf700c708>
    c738:	e0bff717 	ldw	r2,-36(fp)
    c73c:	10800317 	ldw	r2,12(r2)
    c740:	e0bff815 	stw	r2,-32(fp)
    c744:	e0bff117 	ldw	r2,-60(fp)
    c748:	e0fff817 	ldw	r3,-32(fp)
    c74c:	10c00315 	stw	r3,12(r2)
    c750:	e0bff117 	ldw	r2,-60(fp)
    c754:	e0fff717 	ldw	r3,-36(fp)
    c758:	10c00215 	stw	r3,8(r2)
    c75c:	e0bff817 	ldw	r2,-32(fp)
    c760:	e0fff117 	ldw	r3,-60(fp)
    c764:	10c00215 	stw	r3,8(r2)
    c768:	e0bff817 	ldw	r2,-32(fp)
    c76c:	10c00217 	ldw	r3,8(r2)
    c770:	e0bff717 	ldw	r2,-36(fp)
    c774:	10c00315 	stw	r3,12(r2)
    c778:	e0bff217 	ldw	r2,-56(fp)
    c77c:	1000010e 	bge	r2,zero,c784 <_malloc_r+0x70c>
    c780:	108000c4 	addi	r2,r2,3
    c784:	1005d0ba 	srai	r2,r2,2
    c788:	1007883a 	mov	r3,r2
    c78c:	00800044 	movi	r2,1
    c790:	10c4983a 	sll	r2,r2,r3
    c794:	e0bff515 	stw	r2,-44(fp)
    c798:	00800374 	movhi	r2,13
    c79c:	10ac6e04 	addi	r2,r2,-20040
    c7a0:	10c00117 	ldw	r3,4(r2)
    c7a4:	e0bff517 	ldw	r2,-44(fp)
    c7a8:	1880c636 	bltu	r3,r2,cac4 <_malloc_r+0xa4c>
    c7ac:	00800374 	movhi	r2,13
    c7b0:	10ac6e04 	addi	r2,r2,-20040
    c7b4:	10c00117 	ldw	r3,4(r2)
    c7b8:	e0bff517 	ldw	r2,-44(fp)
    c7bc:	1884703a 	and	r2,r3,r2
    c7c0:	1000151e 	bne	r2,zero,c818 <_malloc_r+0x7a0>
    c7c4:	e0fff217 	ldw	r3,-56(fp)
    c7c8:	00bfff04 	movi	r2,-4
    c7cc:	1884703a 	and	r2,r3,r2
    c7d0:	10800104 	addi	r2,r2,4
    c7d4:	e0bff215 	stw	r2,-56(fp)
    c7d8:	e0bff517 	ldw	r2,-44(fp)
    c7dc:	1085883a 	add	r2,r2,r2
    c7e0:	e0bff515 	stw	r2,-44(fp)
    c7e4:	00000606 	br	c800 <_malloc_r+0x788>
    c7e8:	e0bff217 	ldw	r2,-56(fp)
    c7ec:	10800104 	addi	r2,r2,4
    c7f0:	e0bff215 	stw	r2,-56(fp)
    c7f4:	e0bff517 	ldw	r2,-44(fp)
    c7f8:	1085883a 	add	r2,r2,r2
    c7fc:	e0bff515 	stw	r2,-44(fp)
    c800:	00800374 	movhi	r2,13
    c804:	10ac6e04 	addi	r2,r2,-20040
    c808:	10c00117 	ldw	r3,4(r2)
    c80c:	e0bff517 	ldw	r2,-44(fp)
    c810:	1884703a 	and	r2,r3,r2
    c814:	103ff426 	beq	r2,zero,c7e8 <__alt_mem_VGA_Subsystem_Char_Buf_Subsystem_Onchip_SRAM+0xf700c7e8>
    c818:	e0bff217 	ldw	r2,-56(fp)
    c81c:	e0bff615 	stw	r2,-40(fp)
    c820:	e0bff217 	ldw	r2,-56(fp)
    c824:	10800044 	addi	r2,r2,1
    c828:	1085883a 	add	r2,r2,r2
    c82c:	1085883a 	add	r2,r2,r2
    c830:	1087883a 	add	r3,r2,r2
    c834:	00800374 	movhi	r2,13
    c838:	10ac6e04 	addi	r2,r2,-20040
    c83c:	1885883a 	add	r2,r3,r2
    c840:	10bffe04 	addi	r2,r2,-8
    c844:	e0bff315 	stw	r2,-52(fp)
    c848:	e0bff317 	ldw	r2,-52(fp)
    c84c:	e0bff915 	stw	r2,-28(fp)
    c850:	e0bff317 	ldw	r2,-52(fp)
    c854:	10800317 	ldw	r2,12(r2)
    c858:	e0bff115 	stw	r2,-60(fp)
    c85c:	00005e06 	br	c9d8 <_malloc_r+0x960>
    c860:	e0bff117 	ldw	r2,-60(fp)
    c864:	10c00117 	ldw	r3,4(r2)
    c868:	00bfff04 	movi	r2,-4
    c86c:	1884703a 	and	r2,r3,r2
    c870:	e0bffb15 	stw	r2,-20(fp)
    c874:	e0fffb17 	ldw	r3,-20(fp)
    c878:	e0bffa17 	ldw	r2,-24(fp)
    c87c:	1885c83a 	sub	r2,r3,r2
    c880:	e0bff415 	stw	r2,-48(fp)
    c884:	e0bff417 	ldw	r2,-48(fp)
    c888:	10800410 	cmplti	r2,r2,16
    c88c:	1000331e 	bne	r2,zero,c95c <_malloc_r+0x8e4>
    c890:	e0fff117 	ldw	r3,-60(fp)
    c894:	e0bffa17 	ldw	r2,-24(fp)
    c898:	1885883a 	add	r2,r3,r2
    c89c:	e0bffc15 	stw	r2,-16(fp)
    c8a0:	e0bffa17 	ldw	r2,-24(fp)
    c8a4:	10c00054 	ori	r3,r2,1
    c8a8:	e0bff117 	ldw	r2,-60(fp)
    c8ac:	10c00115 	stw	r3,4(r2)
    c8b0:	e0bff117 	ldw	r2,-60(fp)
    c8b4:	10800317 	ldw	r2,12(r2)
    c8b8:	e0bff815 	stw	r2,-32(fp)
    c8bc:	e0bff117 	ldw	r2,-60(fp)
    c8c0:	10800217 	ldw	r2,8(r2)
    c8c4:	e0bff715 	stw	r2,-36(fp)
    c8c8:	e0bff717 	ldw	r2,-36(fp)
    c8cc:	e0fff817 	ldw	r3,-32(fp)
    c8d0:	10c00315 	stw	r3,12(r2)
    c8d4:	e0bff817 	ldw	r2,-32(fp)
    c8d8:	e0fff717 	ldw	r3,-36(fp)
    c8dc:	10c00215 	stw	r3,8(r2)
    c8e0:	00c00374 	movhi	r3,13
    c8e4:	18ec7004 	addi	r3,r3,-20032
    c8e8:	00800374 	movhi	r2,13
    c8ec:	10ac7004 	addi	r2,r2,-20032
    c8f0:	e13ffc17 	ldw	r4,-16(fp)
    c8f4:	11000315 	stw	r4,12(r2)
    c8f8:	10800317 	ldw	r2,12(r2)
    c8fc:	18800215 	stw	r2,8(r3)
    c900:	00800374 	movhi	r2,13
    c904:	10ac7004 	addi	r2,r2,-20032
    c908:	e0fffc17 	ldw	r3,-16(fp)
    c90c:	18800315 	stw	r2,12(r3)
    c910:	e0bffc17 	ldw	r2,-16(fp)
    c914:	10c00317 	ldw	r3,12(r2)
    c918:	e0bffc17 	ldw	r2,-16(fp)
    c91c:	10c00215 	stw	r3,8(r2)
    c920:	e0bff417 	ldw	r2,-48(fp)
    c924:	10800054 	ori	r2,r2,1
    c928:	1007883a 	mov	r3,r2
    c92c:	e0bffc17 	ldw	r2,-16(fp)
    c930:	10c00115 	stw	r3,4(r2)
    c934:	e0bff417 	ldw	r2,-48(fp)
    c938:	e0fffc17 	ldw	r3,-16(fp)
    c93c:	1885883a 	add	r2,r3,r2
    c940:	e0fff417 	ldw	r3,-48(fp)
    c944:	10c00015 	stw	r3,0(r2)
    c948:	e13ffe17 	ldw	r4,-8(fp)
    c94c:	000d79c0 	call	d79c <__malloc_unlock>
    c950:	e0bff117 	ldw	r2,-60(fp)
    c954:	10800204 	addi	r2,r2,8
    c958:	0000a106 	br	cbe0 <_malloc_r+0xb68>
    c95c:	e0bff417 	ldw	r2,-48(fp)
    c960:	10001a16 	blt	r2,zero,c9cc <_malloc_r+0x954>
    c964:	e0fff117 	ldw	r3,-60(fp)
    c968:	e0bffb17 	ldw	r2,-20(fp)
    c96c:	1885883a 	add	r2,r3,r2
    c970:	e13ff117 	ldw	r4,-60(fp)
    c974:	e0fffb17 	ldw	r3,-20(fp)
    c978:	20c7883a 	add	r3,r4,r3
    c97c:	18c00117 	ldw	r3,4(r3)
    c980:	18c00054 	ori	r3,r3,1
    c984:	10c00115 	stw	r3,4(r2)
    c988:	e0bff117 	ldw	r2,-60(fp)
    c98c:	10800317 	ldw	r2,12(r2)
    c990:	e0bff815 	stw	r2,-32(fp)
    c994:	e0bff117 	ldw	r2,-60(fp)
    c998:	10800217 	ldw	r2,8(r2)
    c99c:	e0bff715 	stw	r2,-36(fp)
    c9a0:	e0bff717 	ldw	r2,-36(fp)
    c9a4:	e0fff817 	ldw	r3,-32(fp)
    c9a8:	10c00315 	stw	r3,12(r2)
    c9ac:	e0bff817 	ldw	r2,-32(fp)
    c9b0:	e0fff717 	ldw	r3,-36(fp)
    c9b4:	10c00215 	stw	r3,8(r2)
    c9b8:	e13ffe17 	ldw	r4,-8(fp)
    c9bc:	000d79c0 	call	d79c <__malloc_unlock>
    c9c0:	e0bff117 	ldw	r2,-60(fp)
    c9c4:	10800204 	addi	r2,r2,8
    c9c8:	00008506 	br	cbe0 <_malloc_r+0xb68>
    c9cc:	e0bff117 	ldw	r2,-60(fp)
    c9d0:	10800317 	ldw	r2,12(r2)
    c9d4:	e0bff115 	stw	r2,-60(fp)
    c9d8:	e0fff117 	ldw	r3,-60(fp)
    c9dc:	e0bff317 	ldw	r2,-52(fp)
    c9e0:	18bf9f1e 	bne	r3,r2,c860 <__alt_mem_VGA_Subsystem_Char_Buf_Subsystem_Onchip_SRAM+0xf700c860>
    c9e4:	e0bff317 	ldw	r2,-52(fp)
    c9e8:	10800204 	addi	r2,r2,8
    c9ec:	e0bff315 	stw	r2,-52(fp)
    c9f0:	e0bff217 	ldw	r2,-56(fp)
    c9f4:	10800044 	addi	r2,r2,1
    c9f8:	e0bff215 	stw	r2,-56(fp)
    c9fc:	e0bff217 	ldw	r2,-56(fp)
    ca00:	108000cc 	andi	r2,r2,3
    ca04:	103f921e 	bne	r2,zero,c850 <__alt_mem_VGA_Subsystem_Char_Buf_Subsystem_Onchip_SRAM+0xf700c850>
    ca08:	e0bff617 	ldw	r2,-40(fp)
    ca0c:	108000cc 	andi	r2,r2,3
    ca10:	10000a1e 	bne	r2,zero,ca3c <_malloc_r+0x9c4>
    ca14:	00800374 	movhi	r2,13
    ca18:	10ac6e04 	addi	r2,r2,-20040
    ca1c:	00c00374 	movhi	r3,13
    ca20:	18ec6e04 	addi	r3,r3,-20040
    ca24:	19000117 	ldw	r4,4(r3)
    ca28:	e0fff517 	ldw	r3,-44(fp)
    ca2c:	00c6303a 	nor	r3,zero,r3
    ca30:	20c6703a 	and	r3,r4,r3
    ca34:	10c00115 	stw	r3,4(r2)
    ca38:	00000a06 	br	ca64 <_malloc_r+0x9ec>
    ca3c:	e0bff617 	ldw	r2,-40(fp)
    ca40:	10bfffc4 	addi	r2,r2,-1
    ca44:	e0bff615 	stw	r2,-40(fp)
    ca48:	e0bff917 	ldw	r2,-28(fp)
    ca4c:	10bffe04 	addi	r2,r2,-8
    ca50:	e0bff915 	stw	r2,-28(fp)
    ca54:	e0bff917 	ldw	r2,-28(fp)
    ca58:	10c00217 	ldw	r3,8(r2)
    ca5c:	e0bff917 	ldw	r2,-28(fp)
    ca60:	18bfe926 	beq	r3,r2,ca08 <__alt_mem_VGA_Subsystem_Char_Buf_Subsystem_Onchip_SRAM+0xf700ca08>
    ca64:	e0bff517 	ldw	r2,-44(fp)
    ca68:	1085883a 	add	r2,r2,r2
    ca6c:	e0bff515 	stw	r2,-44(fp)
    ca70:	00800374 	movhi	r2,13
    ca74:	10ac6e04 	addi	r2,r2,-20040
    ca78:	10c00117 	ldw	r3,4(r2)
    ca7c:	e0bff517 	ldw	r2,-44(fp)
    ca80:	18801036 	bltu	r3,r2,cac4 <_malloc_r+0xa4c>
    ca84:	e0bff517 	ldw	r2,-44(fp)
    ca88:	10000e26 	beq	r2,zero,cac4 <_malloc_r+0xa4c>
    ca8c:	00000606 	br	caa8 <_malloc_r+0xa30>
    ca90:	e0bff217 	ldw	r2,-56(fp)
    ca94:	10800104 	addi	r2,r2,4
    ca98:	e0bff215 	stw	r2,-56(fp)
    ca9c:	e0bff517 	ldw	r2,-44(fp)
    caa0:	1085883a 	add	r2,r2,r2
    caa4:	e0bff515 	stw	r2,-44(fp)
    caa8:	00800374 	movhi	r2,13
    caac:	10ac6e04 	addi	r2,r2,-20040
    cab0:	10c00117 	ldw	r3,4(r2)
    cab4:	e0bff517 	ldw	r2,-44(fp)
    cab8:	1884703a 	and	r2,r3,r2
    cabc:	103ff426 	beq	r2,zero,ca90 <__alt_mem_VGA_Subsystem_Char_Buf_Subsystem_Onchip_SRAM+0xf700ca90>
    cac0:	003f5506 	br	c818 <__alt_mem_VGA_Subsystem_Char_Buf_Subsystem_Onchip_SRAM+0xf700c818>
    cac4:	00800374 	movhi	r2,13
    cac8:	10ac6e04 	addi	r2,r2,-20040
    cacc:	10800217 	ldw	r2,8(r2)
    cad0:	10c00117 	ldw	r3,4(r2)
    cad4:	00bfff04 	movi	r2,-4
    cad8:	1886703a 	and	r3,r3,r2
    cadc:	e0bffa17 	ldw	r2,-24(fp)
    cae0:	1885c83a 	sub	r2,r3,r2
    cae4:	e0bff415 	stw	r2,-48(fp)
    cae8:	00800374 	movhi	r2,13
    caec:	10ac6e04 	addi	r2,r2,-20040
    caf0:	10800217 	ldw	r2,8(r2)
    caf4:	10c00117 	ldw	r3,4(r2)
    caf8:	00bfff04 	movi	r2,-4
    cafc:	1886703a 	and	r3,r3,r2
    cb00:	e0bffa17 	ldw	r2,-24(fp)
    cb04:	18800336 	bltu	r3,r2,cb14 <_malloc_r+0xa9c>
    cb08:	e0bff417 	ldw	r2,-48(fp)
    cb0c:	10800408 	cmpgei	r2,r2,16
    cb10:	10001b1e 	bne	r2,zero,cb80 <_malloc_r+0xb08>
    cb14:	e17ffa17 	ldw	r5,-24(fp)
    cb18:	e13ffe17 	ldw	r4,-8(fp)
    cb1c:	000bcc40 	call	bcc4 <malloc_extend_top>
    cb20:	00800374 	movhi	r2,13
    cb24:	10ac6e04 	addi	r2,r2,-20040
    cb28:	10800217 	ldw	r2,8(r2)
    cb2c:	10c00117 	ldw	r3,4(r2)
    cb30:	00bfff04 	movi	r2,-4
    cb34:	1886703a 	and	r3,r3,r2
    cb38:	e0bffa17 	ldw	r2,-24(fp)
    cb3c:	1885c83a 	sub	r2,r3,r2
    cb40:	e0bff415 	stw	r2,-48(fp)
    cb44:	00800374 	movhi	r2,13
    cb48:	10ac6e04 	addi	r2,r2,-20040
    cb4c:	10800217 	ldw	r2,8(r2)
    cb50:	10c00117 	ldw	r3,4(r2)
    cb54:	00bfff04 	movi	r2,-4
    cb58:	1886703a 	and	r3,r3,r2
    cb5c:	e0bffa17 	ldw	r2,-24(fp)
    cb60:	18800336 	bltu	r3,r2,cb70 <_malloc_r+0xaf8>
    cb64:	e0bff417 	ldw	r2,-48(fp)
    cb68:	10800408 	cmpgei	r2,r2,16
    cb6c:	1000041e 	bne	r2,zero,cb80 <_malloc_r+0xb08>
    cb70:	e13ffe17 	ldw	r4,-8(fp)
    cb74:	000d79c0 	call	d79c <__malloc_unlock>
    cb78:	0005883a 	mov	r2,zero
    cb7c:	00001806 	br	cbe0 <_malloc_r+0xb68>
    cb80:	00800374 	movhi	r2,13
    cb84:	10ac6e04 	addi	r2,r2,-20040
    cb88:	10800217 	ldw	r2,8(r2)
    cb8c:	e0bff115 	stw	r2,-60(fp)
    cb90:	e0bffa17 	ldw	r2,-24(fp)
    cb94:	10c00054 	ori	r3,r2,1
    cb98:	e0bff117 	ldw	r2,-60(fp)
    cb9c:	10c00115 	stw	r3,4(r2)
    cba0:	00800374 	movhi	r2,13
    cba4:	10ac6e04 	addi	r2,r2,-20040
    cba8:	e13ff117 	ldw	r4,-60(fp)
    cbac:	e0fffa17 	ldw	r3,-24(fp)
    cbb0:	20c7883a 	add	r3,r4,r3
    cbb4:	10c00215 	stw	r3,8(r2)
    cbb8:	00800374 	movhi	r2,13
    cbbc:	10ac6e04 	addi	r2,r2,-20040
    cbc0:	10800217 	ldw	r2,8(r2)
    cbc4:	e0fff417 	ldw	r3,-48(fp)
    cbc8:	18c00054 	ori	r3,r3,1
    cbcc:	10c00115 	stw	r3,4(r2)
    cbd0:	e13ffe17 	ldw	r4,-8(fp)
    cbd4:	000d79c0 	call	d79c <__malloc_unlock>
    cbd8:	e0bff117 	ldw	r2,-60(fp)
    cbdc:	10800204 	addi	r2,r2,8
    cbe0:	e037883a 	mov	sp,fp
    cbe4:	dfc00117 	ldw	ra,4(sp)
    cbe8:	df000017 	ldw	fp,0(sp)
    cbec:	dec00204 	addi	sp,sp,8
    cbf0:	f800283a 	ret

0000cbf4 <memset>:
    cbf4:	defff704 	addi	sp,sp,-36
    cbf8:	df000815 	stw	fp,32(sp)
    cbfc:	df000804 	addi	fp,sp,32
    cc00:	e13ffd15 	stw	r4,-12(fp)
    cc04:	e17ffe15 	stw	r5,-8(fp)
    cc08:	e1bfff15 	stw	r6,-4(fp)
    cc0c:	e0bffd17 	ldw	r2,-12(fp)
    cc10:	e0bff815 	stw	r2,-32(fp)
    cc14:	e0bffe17 	ldw	r2,-8(fp)
    cc18:	10803fcc 	andi	r2,r2,255
    cc1c:	e0bffc15 	stw	r2,-16(fp)
    cc20:	00000c06 	br	cc54 <memset+0x60>
    cc24:	e0bfff17 	ldw	r2,-4(fp)
    cc28:	10ffffc4 	addi	r3,r2,-1
    cc2c:	e0ffff15 	stw	r3,-4(fp)
    cc30:	10000626 	beq	r2,zero,cc4c <memset+0x58>
    cc34:	e0bff817 	ldw	r2,-32(fp)
    cc38:	10c00044 	addi	r3,r2,1
    cc3c:	e0fff815 	stw	r3,-32(fp)
    cc40:	e0fffe17 	ldw	r3,-8(fp)
    cc44:	10c00005 	stb	r3,0(r2)
    cc48:	00000206 	br	cc54 <memset+0x60>
    cc4c:	e0bffd17 	ldw	r2,-12(fp)
    cc50:	00005506 	br	cda8 <memset+0x1b4>
    cc54:	e0bff817 	ldw	r2,-32(fp)
    cc58:	108000cc 	andi	r2,r2,3
    cc5c:	103ff11e 	bne	r2,zero,cc24 <__alt_mem_VGA_Subsystem_Char_Buf_Subsystem_Onchip_SRAM+0xf700cc24>
    cc60:	e0bfff17 	ldw	r2,-4(fp)
    cc64:	10800130 	cmpltui	r2,r2,4
    cc68:	10004a1e 	bne	r2,zero,cd94 <memset+0x1a0>
    cc6c:	e0bff817 	ldw	r2,-32(fp)
    cc70:	e0bffb15 	stw	r2,-20(fp)
    cc74:	e0bffc17 	ldw	r2,-16(fp)
    cc78:	1006923a 	slli	r3,r2,8
    cc7c:	e0bffc17 	ldw	r2,-16(fp)
    cc80:	1884b03a 	or	r2,r3,r2
    cc84:	e0bffa15 	stw	r2,-24(fp)
    cc88:	e0bffa17 	ldw	r2,-24(fp)
    cc8c:	1004943a 	slli	r2,r2,16
    cc90:	e0fffa17 	ldw	r3,-24(fp)
    cc94:	1884b03a 	or	r2,r3,r2
    cc98:	e0bffa15 	stw	r2,-24(fp)
    cc9c:	00800804 	movi	r2,32
    cca0:	e0bff915 	stw	r2,-28(fp)
    cca4:	00000906 	br	cccc <memset+0xd8>
    cca8:	e0fffa17 	ldw	r3,-24(fp)
    ccac:	e0bff917 	ldw	r2,-28(fp)
    ccb0:	1884983a 	sll	r2,r3,r2
    ccb4:	e0fffa17 	ldw	r3,-24(fp)
    ccb8:	1884b03a 	or	r2,r3,r2
    ccbc:	e0bffa15 	stw	r2,-24(fp)
    ccc0:	e0bff917 	ldw	r2,-28(fp)
    ccc4:	1085883a 	add	r2,r2,r2
    ccc8:	e0bff915 	stw	r2,-28(fp)
    cccc:	e0bff917 	ldw	r2,-28(fp)
    ccd0:	10800830 	cmpltui	r2,r2,32
    ccd4:	103ff41e 	bne	r2,zero,cca8 <__alt_mem_VGA_Subsystem_Char_Buf_Subsystem_Onchip_SRAM+0xf700cca8>
    ccd8:	00001706 	br	cd38 <memset+0x144>
    ccdc:	e0bffb17 	ldw	r2,-20(fp)
    cce0:	10c00104 	addi	r3,r2,4
    cce4:	e0fffb15 	stw	r3,-20(fp)
    cce8:	e0fffa17 	ldw	r3,-24(fp)
    ccec:	10c00015 	stw	r3,0(r2)
    ccf0:	e0bffb17 	ldw	r2,-20(fp)
    ccf4:	10c00104 	addi	r3,r2,4
    ccf8:	e0fffb15 	stw	r3,-20(fp)
    ccfc:	e0fffa17 	ldw	r3,-24(fp)
    cd00:	10c00015 	stw	r3,0(r2)
    cd04:	e0bffb17 	ldw	r2,-20(fp)
    cd08:	10c00104 	addi	r3,r2,4
    cd0c:	e0fffb15 	stw	r3,-20(fp)
    cd10:	e0fffa17 	ldw	r3,-24(fp)
    cd14:	10c00015 	stw	r3,0(r2)
    cd18:	e0bffb17 	ldw	r2,-20(fp)
    cd1c:	10c00104 	addi	r3,r2,4
    cd20:	e0fffb15 	stw	r3,-20(fp)
    cd24:	e0fffa17 	ldw	r3,-24(fp)
    cd28:	10c00015 	stw	r3,0(r2)
    cd2c:	e0bfff17 	ldw	r2,-4(fp)
    cd30:	10bffc04 	addi	r2,r2,-16
    cd34:	e0bfff15 	stw	r2,-4(fp)
    cd38:	e0bfff17 	ldw	r2,-4(fp)
    cd3c:	10800428 	cmpgeui	r2,r2,16
    cd40:	103fe61e 	bne	r2,zero,ccdc <__alt_mem_VGA_Subsystem_Char_Buf_Subsystem_Onchip_SRAM+0xf700ccdc>
    cd44:	00000806 	br	cd68 <memset+0x174>
    cd48:	e0bffb17 	ldw	r2,-20(fp)
    cd4c:	10c00104 	addi	r3,r2,4
    cd50:	e0fffb15 	stw	r3,-20(fp)
    cd54:	e0fffa17 	ldw	r3,-24(fp)
    cd58:	10c00015 	stw	r3,0(r2)
    cd5c:	e0bfff17 	ldw	r2,-4(fp)
    cd60:	10bfff04 	addi	r2,r2,-4
    cd64:	e0bfff15 	stw	r2,-4(fp)
    cd68:	e0bfff17 	ldw	r2,-4(fp)
    cd6c:	10800128 	cmpgeui	r2,r2,4
    cd70:	103ff51e 	bne	r2,zero,cd48 <__alt_mem_VGA_Subsystem_Char_Buf_Subsystem_Onchip_SRAM+0xf700cd48>
    cd74:	e0bffb17 	ldw	r2,-20(fp)
    cd78:	e0bff815 	stw	r2,-32(fp)
    cd7c:	00000506 	br	cd94 <memset+0x1a0>
    cd80:	e0bff817 	ldw	r2,-32(fp)
    cd84:	10c00044 	addi	r3,r2,1
    cd88:	e0fff815 	stw	r3,-32(fp)
    cd8c:	e0fffe17 	ldw	r3,-8(fp)
    cd90:	10c00005 	stb	r3,0(r2)
    cd94:	e0bfff17 	ldw	r2,-4(fp)
    cd98:	10ffffc4 	addi	r3,r2,-1
    cd9c:	e0ffff15 	stw	r3,-4(fp)
    cda0:	103ff71e 	bne	r2,zero,cd80 <__alt_mem_VGA_Subsystem_Char_Buf_Subsystem_Onchip_SRAM+0xf700cd80>
    cda4:	e0bffd17 	ldw	r2,-12(fp)
    cda8:	e037883a 	mov	sp,fp
    cdac:	df000017 	ldw	fp,0(sp)
    cdb0:	dec00104 	addi	sp,sp,4
    cdb4:	f800283a 	ret

0000cdb8 <_sbrk_r>:
    cdb8:	defffb04 	addi	sp,sp,-20
    cdbc:	dfc00415 	stw	ra,16(sp)
    cdc0:	df000315 	stw	fp,12(sp)
    cdc4:	df000304 	addi	fp,sp,12
    cdc8:	e13ffe15 	stw	r4,-8(fp)
    cdcc:	e17fff15 	stw	r5,-4(fp)
    cdd0:	d0279115 	stw	zero,-25020(gp)
    cdd4:	e13fff17 	ldw	r4,-4(fp)
    cdd8:	000d8f80 	call	d8f8 <sbrk>
    cddc:	e0bffd15 	stw	r2,-12(fp)
    cde0:	e0bffd17 	ldw	r2,-12(fp)
    cde4:	10bfffd8 	cmpnei	r2,r2,-1
    cde8:	1000051e 	bne	r2,zero,ce00 <_sbrk_r+0x48>
    cdec:	d0a79117 	ldw	r2,-25020(gp)
    cdf0:	10000326 	beq	r2,zero,ce00 <_sbrk_r+0x48>
    cdf4:	d0e79117 	ldw	r3,-25020(gp)
    cdf8:	e0bffe17 	ldw	r2,-8(fp)
    cdfc:	10c00015 	stw	r3,0(r2)
    ce00:	e0bffd17 	ldw	r2,-12(fp)
    ce04:	e037883a 	mov	sp,fp
    ce08:	dfc00117 	ldw	ra,4(sp)
    ce0c:	df000017 	ldw	fp,0(sp)
    ce10:	dec00204 	addi	sp,sp,8
    ce14:	f800283a 	ret

0000ce18 <__sread>:
    ce18:	defff804 	addi	sp,sp,-32
    ce1c:	dfc00715 	stw	ra,28(sp)
    ce20:	df000615 	stw	fp,24(sp)
    ce24:	dc400515 	stw	r17,20(sp)
    ce28:	dc000415 	stw	r16,16(sp)
    ce2c:	df000604 	addi	fp,sp,24
    ce30:	e13ffa15 	stw	r4,-24(fp)
    ce34:	e17ffb15 	stw	r5,-20(fp)
    ce38:	e1bffc15 	stw	r6,-16(fp)
    ce3c:	e1fffd15 	stw	r7,-12(fp)
    ce40:	e43ffb17 	ldw	r16,-20(fp)
    ce44:	8080038b 	ldhu	r2,14(r16)
    ce48:	10bfffcc 	andi	r2,r2,65535
    ce4c:	10a0001c 	xori	r2,r2,32768
    ce50:	10a00004 	addi	r2,r2,-32768
    ce54:	e0fffd17 	ldw	r3,-12(fp)
    ce58:	180f883a 	mov	r7,r3
    ce5c:	e1bffc17 	ldw	r6,-16(fp)
    ce60:	100b883a 	mov	r5,r2
    ce64:	e13ffa17 	ldw	r4,-24(fp)
    ce68:	000d3f80 	call	d3f8 <_read_r>
    ce6c:	1023883a 	mov	r17,r2
    ce70:	88000416 	blt	r17,zero,ce84 <__sread+0x6c>
    ce74:	80801417 	ldw	r2,80(r16)
    ce78:	1445883a 	add	r2,r2,r17
    ce7c:	80801415 	stw	r2,80(r16)
    ce80:	00000406 	br	ce94 <__sread+0x7c>
    ce84:	80c0030b 	ldhu	r3,12(r16)
    ce88:	00bbffc4 	movi	r2,-4097
    ce8c:	1884703a 	and	r2,r3,r2
    ce90:	8080030d 	sth	r2,12(r16)
    ce94:	8805883a 	mov	r2,r17
    ce98:	e6fffe04 	addi	sp,fp,-8
    ce9c:	dfc00317 	ldw	ra,12(sp)
    cea0:	df000217 	ldw	fp,8(sp)
    cea4:	dc400117 	ldw	r17,4(sp)
    cea8:	dc000017 	ldw	r16,0(sp)
    ceac:	dec00404 	addi	sp,sp,16
    ceb0:	f800283a 	ret

0000ceb4 <__seofread>:
    ceb4:	defffb04 	addi	sp,sp,-20
    ceb8:	df000415 	stw	fp,16(sp)
    cebc:	df000404 	addi	fp,sp,16
    cec0:	e13ffc15 	stw	r4,-16(fp)
    cec4:	e17ffd15 	stw	r5,-12(fp)
    cec8:	e1bffe15 	stw	r6,-8(fp)
    cecc:	e1ffff15 	stw	r7,-4(fp)
    ced0:	0005883a 	mov	r2,zero
    ced4:	e037883a 	mov	sp,fp
    ced8:	df000017 	ldw	fp,0(sp)
    cedc:	dec00104 	addi	sp,sp,4
    cee0:	f800283a 	ret

0000cee4 <__swrite>:
    cee4:	defff804 	addi	sp,sp,-32
    cee8:	dfc00715 	stw	ra,28(sp)
    ceec:	df000615 	stw	fp,24(sp)
    cef0:	dc000515 	stw	r16,20(sp)
    cef4:	df000604 	addi	fp,sp,24
    cef8:	e13ffb15 	stw	r4,-20(fp)
    cefc:	e17ffc15 	stw	r5,-16(fp)
    cf00:	e1bffd15 	stw	r6,-12(fp)
    cf04:	e1fffe15 	stw	r7,-8(fp)
    cf08:	e43ffc17 	ldw	r16,-16(fp)
    cf0c:	8080030b 	ldhu	r2,12(r16)
    cf10:	10bfffcc 	andi	r2,r2,65535
    cf14:	1080400c 	andi	r2,r2,256
    cf18:	10000926 	beq	r2,zero,cf40 <__swrite+0x5c>
    cf1c:	8080038b 	ldhu	r2,14(r16)
    cf20:	10bfffcc 	andi	r2,r2,65535
    cf24:	10a0001c 	xori	r2,r2,32768
    cf28:	10a00004 	addi	r2,r2,-32768
    cf2c:	01c00084 	movi	r7,2
    cf30:	000d883a 	mov	r6,zero
    cf34:	100b883a 	mov	r5,r2
    cf38:	e13ffb17 	ldw	r4,-20(fp)
    cf3c:	000d3880 	call	d388 <_lseek_r>
    cf40:	80c0030b 	ldhu	r3,12(r16)
    cf44:	00bbffc4 	movi	r2,-4097
    cf48:	1884703a 	and	r2,r3,r2
    cf4c:	8080030d 	sth	r2,12(r16)
    cf50:	8080038b 	ldhu	r2,14(r16)
    cf54:	10bfffcc 	andi	r2,r2,65535
    cf58:	10a0001c 	xori	r2,r2,32768
    cf5c:	10a00004 	addi	r2,r2,-32768
    cf60:	e0fffe17 	ldw	r3,-8(fp)
    cf64:	180f883a 	mov	r7,r3
    cf68:	e1bffd17 	ldw	r6,-12(fp)
    cf6c:	100b883a 	mov	r5,r2
    cf70:	e13ffb17 	ldw	r4,-20(fp)
    cf74:	000d08c0 	call	d08c <_write_r>
    cf78:	e0bffa15 	stw	r2,-24(fp)
    cf7c:	e0bffa17 	ldw	r2,-24(fp)
    cf80:	e6ffff04 	addi	sp,fp,-4
    cf84:	dfc00217 	ldw	ra,8(sp)
    cf88:	df000117 	ldw	fp,4(sp)
    cf8c:	dc000017 	ldw	r16,0(sp)
    cf90:	dec00304 	addi	sp,sp,12
    cf94:	f800283a 	ret

0000cf98 <__sseek>:
    cf98:	defff804 	addi	sp,sp,-32
    cf9c:	dfc00715 	stw	ra,28(sp)
    cfa0:	df000615 	stw	fp,24(sp)
    cfa4:	dc400515 	stw	r17,20(sp)
    cfa8:	dc000415 	stw	r16,16(sp)
    cfac:	df000604 	addi	fp,sp,24
    cfb0:	e13ffa15 	stw	r4,-24(fp)
    cfb4:	e17ffb15 	stw	r5,-20(fp)
    cfb8:	e1bffc15 	stw	r6,-16(fp)
    cfbc:	e1fffd15 	stw	r7,-12(fp)
    cfc0:	e43ffb17 	ldw	r16,-20(fp)
    cfc4:	8080038b 	ldhu	r2,14(r16)
    cfc8:	10bfffcc 	andi	r2,r2,65535
    cfcc:	10a0001c 	xori	r2,r2,32768
    cfd0:	10a00004 	addi	r2,r2,-32768
    cfd4:	e1fffd17 	ldw	r7,-12(fp)
    cfd8:	e1bffc17 	ldw	r6,-16(fp)
    cfdc:	100b883a 	mov	r5,r2
    cfe0:	e13ffa17 	ldw	r4,-24(fp)
    cfe4:	000d3880 	call	d388 <_lseek_r>
    cfe8:	1023883a 	mov	r17,r2
    cfec:	88bfffd8 	cmpnei	r2,r17,-1
    cff0:	1000051e 	bne	r2,zero,d008 <__sseek+0x70>
    cff4:	80c0030b 	ldhu	r3,12(r16)
    cff8:	00bbffc4 	movi	r2,-4097
    cffc:	1884703a 	and	r2,r3,r2
    d000:	8080030d 	sth	r2,12(r16)
    d004:	00000406 	br	d018 <__sseek+0x80>
    d008:	8080030b 	ldhu	r2,12(r16)
    d00c:	10840014 	ori	r2,r2,4096
    d010:	8080030d 	sth	r2,12(r16)
    d014:	84401415 	stw	r17,80(r16)
    d018:	8805883a 	mov	r2,r17
    d01c:	e6fffe04 	addi	sp,fp,-8
    d020:	dfc00317 	ldw	ra,12(sp)
    d024:	df000217 	ldw	fp,8(sp)
    d028:	dc400117 	ldw	r17,4(sp)
    d02c:	dc000017 	ldw	r16,0(sp)
    d030:	dec00404 	addi	sp,sp,16
    d034:	f800283a 	ret

0000d038 <__sclose>:
    d038:	defffb04 	addi	sp,sp,-20
    d03c:	dfc00415 	stw	ra,16(sp)
    d040:	df000315 	stw	fp,12(sp)
    d044:	df000304 	addi	fp,sp,12
    d048:	e13ffe15 	stw	r4,-8(fp)
    d04c:	e17fff15 	stw	r5,-4(fp)
    d050:	e0bfff17 	ldw	r2,-4(fp)
    d054:	e0bffd15 	stw	r2,-12(fp)
    d058:	e0bffd17 	ldw	r2,-12(fp)
    d05c:	1080038b 	ldhu	r2,14(r2)
    d060:	10bfffcc 	andi	r2,r2,65535
    d064:	10a0001c 	xori	r2,r2,32768
    d068:	10a00004 	addi	r2,r2,-32768
    d06c:	100b883a 	mov	r5,r2
    d070:	e13ffe17 	ldw	r4,-8(fp)
    d074:	000d0fc0 	call	d0fc <_close_r>
    d078:	e037883a 	mov	sp,fp
    d07c:	dfc00117 	ldw	ra,4(sp)
    d080:	df000017 	ldw	fp,0(sp)
    d084:	dec00204 	addi	sp,sp,8
    d088:	f800283a 	ret

0000d08c <_write_r>:
    d08c:	defff904 	addi	sp,sp,-28
    d090:	dfc00615 	stw	ra,24(sp)
    d094:	df000515 	stw	fp,20(sp)
    d098:	df000504 	addi	fp,sp,20
    d09c:	e13ffc15 	stw	r4,-16(fp)
    d0a0:	e17ffd15 	stw	r5,-12(fp)
    d0a4:	e1bffe15 	stw	r6,-8(fp)
    d0a8:	e1ffff15 	stw	r7,-4(fp)
    d0ac:	d0279115 	stw	zero,-25020(gp)
    d0b0:	e1bfff17 	ldw	r6,-4(fp)
    d0b4:	e17ffe17 	ldw	r5,-8(fp)
    d0b8:	e13ffd17 	ldw	r4,-12(fp)
    d0bc:	000d9e40 	call	d9e4 <write>
    d0c0:	e0bffb15 	stw	r2,-20(fp)
    d0c4:	e0bffb17 	ldw	r2,-20(fp)
    d0c8:	10bfffd8 	cmpnei	r2,r2,-1
    d0cc:	1000051e 	bne	r2,zero,d0e4 <_write_r+0x58>
    d0d0:	d0a79117 	ldw	r2,-25020(gp)
    d0d4:	10000326 	beq	r2,zero,d0e4 <_write_r+0x58>
    d0d8:	d0e79117 	ldw	r3,-25020(gp)
    d0dc:	e0bffc17 	ldw	r2,-16(fp)
    d0e0:	10c00015 	stw	r3,0(r2)
    d0e4:	e0bffb17 	ldw	r2,-20(fp)
    d0e8:	e037883a 	mov	sp,fp
    d0ec:	dfc00117 	ldw	ra,4(sp)
    d0f0:	df000017 	ldw	fp,0(sp)
    d0f4:	dec00204 	addi	sp,sp,8
    d0f8:	f800283a 	ret

0000d0fc <_close_r>:
    d0fc:	defffb04 	addi	sp,sp,-20
    d100:	dfc00415 	stw	ra,16(sp)
    d104:	df000315 	stw	fp,12(sp)
    d108:	df000304 	addi	fp,sp,12
    d10c:	e13ffe15 	stw	r4,-8(fp)
    d110:	e17fff15 	stw	r5,-4(fp)
    d114:	d0279115 	stw	zero,-25020(gp)
    d118:	e13fff17 	ldw	r4,-4(fp)
    d11c:	00090a40 	call	90a4 <close>
    d120:	e0bffd15 	stw	r2,-12(fp)
    d124:	e0bffd17 	ldw	r2,-12(fp)
    d128:	10bfffd8 	cmpnei	r2,r2,-1
    d12c:	1000051e 	bne	r2,zero,d144 <_close_r+0x48>
    d130:	d0a79117 	ldw	r2,-25020(gp)
    d134:	10000326 	beq	r2,zero,d144 <_close_r+0x48>
    d138:	d0e79117 	ldw	r3,-25020(gp)
    d13c:	e0bffe17 	ldw	r2,-8(fp)
    d140:	10c00015 	stw	r3,0(r2)
    d144:	e0bffd17 	ldw	r2,-12(fp)
    d148:	e037883a 	mov	sp,fp
    d14c:	dfc00117 	ldw	ra,4(sp)
    d150:	df000017 	ldw	fp,0(sp)
    d154:	dec00204 	addi	sp,sp,8
    d158:	f800283a 	ret

0000d15c <_fclose_r>:
    d15c:	defffa04 	addi	sp,sp,-24
    d160:	dfc00515 	stw	ra,20(sp)
    d164:	df000415 	stw	fp,16(sp)
    d168:	dc000315 	stw	r16,12(sp)
    d16c:	df000404 	addi	fp,sp,16
    d170:	e13ffe15 	stw	r4,-8(fp)
    d174:	2821883a 	mov	r16,r5
    d178:	8000021e 	bne	r16,zero,d184 <_fclose_r+0x28>
    d17c:	0005883a 	mov	r2,zero
    d180:	00003b06 	br	d270 <_fclose_r+0x114>
    d184:	e0bffe17 	ldw	r2,-8(fp)
    d188:	e0bffd15 	stw	r2,-12(fp)
    d18c:	e0bffd17 	ldw	r2,-12(fp)
    d190:	10000526 	beq	r2,zero,d1a8 <_fclose_r+0x4c>
    d194:	e0bffd17 	ldw	r2,-12(fp)
    d198:	10800e17 	ldw	r2,56(r2)
    d19c:	1000021e 	bne	r2,zero,d1a8 <_fclose_r+0x4c>
    d1a0:	e13ffd17 	ldw	r4,-12(fp)
    d1a4:	000af9c0 	call	af9c <__sinit>
    d1a8:	8080030b 	ldhu	r2,12(r16)
    d1ac:	10bfffcc 	andi	r2,r2,65535
    d1b0:	10a0001c 	xori	r2,r2,32768
    d1b4:	10a00004 	addi	r2,r2,-32768
    d1b8:	1000021e 	bne	r2,zero,d1c4 <_fclose_r+0x68>
    d1bc:	0005883a 	mov	r2,zero
    d1c0:	00002b06 	br	d270 <_fclose_r+0x114>
    d1c4:	800b883a 	mov	r5,r16
    d1c8:	e13ffe17 	ldw	r4,-8(fp)
    d1cc:	000a8180 	call	a818 <__sflush_r>
    d1d0:	e0bffc15 	stw	r2,-16(fp)
    d1d4:	80800b17 	ldw	r2,44(r16)
    d1d8:	10000826 	beq	r2,zero,d1fc <_fclose_r+0xa0>
    d1dc:	80800b17 	ldw	r2,44(r16)
    d1e0:	80c00717 	ldw	r3,28(r16)
    d1e4:	180b883a 	mov	r5,r3
    d1e8:	e13ffe17 	ldw	r4,-8(fp)
    d1ec:	103ee83a 	callr	r2
    d1f0:	1000020e 	bge	r2,zero,d1fc <_fclose_r+0xa0>
    d1f4:	00bfffc4 	movi	r2,-1
    d1f8:	e0bffc15 	stw	r2,-16(fp)
    d1fc:	8080030b 	ldhu	r2,12(r16)
    d200:	10bfffcc 	andi	r2,r2,65535
    d204:	1080200c 	andi	r2,r2,128
    d208:	10000426 	beq	r2,zero,d21c <_fclose_r+0xc0>
    d20c:	80800417 	ldw	r2,16(r16)
    d210:	100b883a 	mov	r5,r2
    d214:	e13ffe17 	ldw	r4,-8(fp)
    d218:	000b1bc0 	call	b1bc <_free_r>
    d21c:	80800c17 	ldw	r2,48(r16)
    d220:	10000826 	beq	r2,zero,d244 <_fclose_r+0xe8>
    d224:	80c00c17 	ldw	r3,48(r16)
    d228:	80801004 	addi	r2,r16,64
    d22c:	18800426 	beq	r3,r2,d240 <_fclose_r+0xe4>
    d230:	80800c17 	ldw	r2,48(r16)
    d234:	100b883a 	mov	r5,r2
    d238:	e13ffe17 	ldw	r4,-8(fp)
    d23c:	000b1bc0 	call	b1bc <_free_r>
    d240:	80000c15 	stw	zero,48(r16)
    d244:	80801117 	ldw	r2,68(r16)
    d248:	10000526 	beq	r2,zero,d260 <_fclose_r+0x104>
    d24c:	80801117 	ldw	r2,68(r16)
    d250:	100b883a 	mov	r5,r2
    d254:	e13ffe17 	ldw	r4,-8(fp)
    d258:	000b1bc0 	call	b1bc <_free_r>
    d25c:	80001115 	stw	zero,68(r16)
    d260:	000b0740 	call	b074 <__sfp_lock_acquire>
    d264:	8000030d 	sth	zero,12(r16)
    d268:	000b0940 	call	b094 <__sfp_lock_release>
    d26c:	e0bffc17 	ldw	r2,-16(fp)
    d270:	e6ffff04 	addi	sp,fp,-4
    d274:	dfc00217 	ldw	ra,8(sp)
    d278:	df000117 	ldw	fp,4(sp)
    d27c:	dc000017 	ldw	r16,0(sp)
    d280:	dec00304 	addi	sp,sp,12
    d284:	f800283a 	ret

0000d288 <fclose>:
    d288:	defffe04 	addi	sp,sp,-8
    d28c:	dfc00115 	stw	ra,4(sp)
    d290:	df000015 	stw	fp,0(sp)
    d294:	d839883a 	mov	fp,sp
    d298:	2007883a 	mov	r3,r4
    d29c:	d0a00417 	ldw	r2,-32752(gp)
    d2a0:	180b883a 	mov	r5,r3
    d2a4:	1009883a 	mov	r4,r2
    d2a8:	000d15c0 	call	d15c <_fclose_r>
    d2ac:	e037883a 	mov	sp,fp
    d2b0:	dfc00117 	ldw	ra,4(sp)
    d2b4:	df000017 	ldw	fp,0(sp)
    d2b8:	dec00204 	addi	sp,sp,8
    d2bc:	f800283a 	ret

0000d2c0 <_fstat_r>:
    d2c0:	defffa04 	addi	sp,sp,-24
    d2c4:	dfc00515 	stw	ra,20(sp)
    d2c8:	df000415 	stw	fp,16(sp)
    d2cc:	df000404 	addi	fp,sp,16
    d2d0:	e13ffd15 	stw	r4,-12(fp)
    d2d4:	e17ffe15 	stw	r5,-8(fp)
    d2d8:	e1bfff15 	stw	r6,-4(fp)
    d2dc:	d0279115 	stw	zero,-25020(gp)
    d2e0:	e17fff17 	ldw	r5,-4(fp)
    d2e4:	e13ffe17 	ldw	r4,-8(fp)
    d2e8:	000d4d80 	call	d4d8 <fstat>
    d2ec:	e0bffc15 	stw	r2,-16(fp)
    d2f0:	e0bffc17 	ldw	r2,-16(fp)
    d2f4:	10bfffd8 	cmpnei	r2,r2,-1
    d2f8:	1000051e 	bne	r2,zero,d310 <_fstat_r+0x50>
    d2fc:	d0a79117 	ldw	r2,-25020(gp)
    d300:	10000326 	beq	r2,zero,d310 <_fstat_r+0x50>
    d304:	d0e79117 	ldw	r3,-25020(gp)
    d308:	e0bffd17 	ldw	r2,-12(fp)
    d30c:	10c00015 	stw	r3,0(r2)
    d310:	e0bffc17 	ldw	r2,-16(fp)
    d314:	e037883a 	mov	sp,fp
    d318:	dfc00117 	ldw	ra,4(sp)
    d31c:	df000017 	ldw	fp,0(sp)
    d320:	dec00204 	addi	sp,sp,8
    d324:	f800283a 	ret

0000d328 <_isatty_r>:
    d328:	defffb04 	addi	sp,sp,-20
    d32c:	dfc00415 	stw	ra,16(sp)
    d330:	df000315 	stw	fp,12(sp)
    d334:	df000304 	addi	fp,sp,12
    d338:	e13ffe15 	stw	r4,-8(fp)
    d33c:	e17fff15 	stw	r5,-4(fp)
    d340:	d0279115 	stw	zero,-25020(gp)
    d344:	e13fff17 	ldw	r4,-4(fp)
    d348:	000d5c40 	call	d5c4 <isatty>
    d34c:	e0bffd15 	stw	r2,-12(fp)
    d350:	e0bffd17 	ldw	r2,-12(fp)
    d354:	10bfffd8 	cmpnei	r2,r2,-1
    d358:	1000051e 	bne	r2,zero,d370 <_isatty_r+0x48>
    d35c:	d0a79117 	ldw	r2,-25020(gp)
    d360:	10000326 	beq	r2,zero,d370 <_isatty_r+0x48>
    d364:	d0e79117 	ldw	r3,-25020(gp)
    d368:	e0bffe17 	ldw	r2,-8(fp)
    d36c:	10c00015 	stw	r3,0(r2)
    d370:	e0bffd17 	ldw	r2,-12(fp)
    d374:	e037883a 	mov	sp,fp
    d378:	dfc00117 	ldw	ra,4(sp)
    d37c:	df000017 	ldw	fp,0(sp)
    d380:	dec00204 	addi	sp,sp,8
    d384:	f800283a 	ret

0000d388 <_lseek_r>:
    d388:	defff904 	addi	sp,sp,-28
    d38c:	dfc00615 	stw	ra,24(sp)
    d390:	df000515 	stw	fp,20(sp)
    d394:	df000504 	addi	fp,sp,20
    d398:	e13ffc15 	stw	r4,-16(fp)
    d39c:	e17ffd15 	stw	r5,-12(fp)
    d3a0:	e1bffe15 	stw	r6,-8(fp)
    d3a4:	e1ffff15 	stw	r7,-4(fp)
    d3a8:	d0279115 	stw	zero,-25020(gp)
    d3ac:	e1bfff17 	ldw	r6,-4(fp)
    d3b0:	e17ffe17 	ldw	r5,-8(fp)
    d3b4:	e13ffd17 	ldw	r4,-12(fp)
    d3b8:	000d6a40 	call	d6a4 <lseek>
    d3bc:	e0bffb15 	stw	r2,-20(fp)
    d3c0:	e0bffb17 	ldw	r2,-20(fp)
    d3c4:	10bfffd8 	cmpnei	r2,r2,-1
    d3c8:	1000051e 	bne	r2,zero,d3e0 <_lseek_r+0x58>
    d3cc:	d0a79117 	ldw	r2,-25020(gp)
    d3d0:	10000326 	beq	r2,zero,d3e0 <_lseek_r+0x58>
    d3d4:	d0e79117 	ldw	r3,-25020(gp)
    d3d8:	e0bffc17 	ldw	r2,-16(fp)
    d3dc:	10c00015 	stw	r3,0(r2)
    d3e0:	e0bffb17 	ldw	r2,-20(fp)
    d3e4:	e037883a 	mov	sp,fp
    d3e8:	dfc00117 	ldw	ra,4(sp)
    d3ec:	df000017 	ldw	fp,0(sp)
    d3f0:	dec00204 	addi	sp,sp,8
    d3f4:	f800283a 	ret

0000d3f8 <_read_r>:
    d3f8:	defff904 	addi	sp,sp,-28
    d3fc:	dfc00615 	stw	ra,24(sp)
    d400:	df000515 	stw	fp,20(sp)
    d404:	df000504 	addi	fp,sp,20
    d408:	e13ffc15 	stw	r4,-16(fp)
    d40c:	e17ffd15 	stw	r5,-12(fp)
    d410:	e1bffe15 	stw	r6,-8(fp)
    d414:	e1ffff15 	stw	r7,-4(fp)
    d418:	d0279115 	stw	zero,-25020(gp)
    d41c:	e1bfff17 	ldw	r6,-4(fp)
    d420:	e17ffe17 	ldw	r5,-8(fp)
    d424:	e13ffd17 	ldw	r4,-12(fp)
    d428:	000d7fc0 	call	d7fc <read>
    d42c:	e0bffb15 	stw	r2,-20(fp)
    d430:	e0bffb17 	ldw	r2,-20(fp)
    d434:	10bfffd8 	cmpnei	r2,r2,-1
    d438:	1000051e 	bne	r2,zero,d450 <_read_r+0x58>
    d43c:	d0a79117 	ldw	r2,-25020(gp)
    d440:	10000326 	beq	r2,zero,d450 <_read_r+0x58>
    d444:	d0e79117 	ldw	r3,-25020(gp)
    d448:	e0bffc17 	ldw	r2,-16(fp)
    d44c:	10c00015 	stw	r3,0(r2)
    d450:	e0bffb17 	ldw	r2,-20(fp)
    d454:	e037883a 	mov	sp,fp
    d458:	dfc00117 	ldw	ra,4(sp)
    d45c:	df000017 	ldw	fp,0(sp)
    d460:	dec00204 	addi	sp,sp,8
    d464:	f800283a 	ret

0000d468 <_exit>:
    d468:	defffd04 	addi	sp,sp,-12
    d46c:	df000215 	stw	fp,8(sp)
    d470:	df000204 	addi	fp,sp,8
    d474:	e13fff15 	stw	r4,-4(fp)
    d478:	0001883a 	nop
    d47c:	e0bfff17 	ldw	r2,-4(fp)
    d480:	e0bffe15 	stw	r2,-8(fp)
    d484:	e0bffe17 	ldw	r2,-8(fp)
    d488:	10000226 	beq	r2,zero,d494 <_exit+0x2c>
    d48c:	002af070 	cmpltui	zero,zero,43969
    d490:	00000106 	br	d498 <_exit+0x30>
    d494:	002af0b0 	cmpltui	zero,zero,43970
    d498:	003fff06 	br	d498 <__alt_mem_VGA_Subsystem_Char_Buf_Subsystem_Onchip_SRAM+0xf700d498>

0000d49c <alt_get_errno>:
    d49c:	defffe04 	addi	sp,sp,-8
    d4a0:	dfc00115 	stw	ra,4(sp)
    d4a4:	df000015 	stw	fp,0(sp)
    d4a8:	d839883a 	mov	fp,sp
    d4ac:	d0a00c17 	ldw	r2,-32720(gp)
    d4b0:	10000326 	beq	r2,zero,d4c0 <alt_get_errno+0x24>
    d4b4:	d0a00c17 	ldw	r2,-32720(gp)
    d4b8:	103ee83a 	callr	r2
    d4bc:	00000106 	br	d4c4 <alt_get_errno+0x28>
    d4c0:	d0a79104 	addi	r2,gp,-25020
    d4c4:	e037883a 	mov	sp,fp
    d4c8:	dfc00117 	ldw	ra,4(sp)
    d4cc:	df000017 	ldw	fp,0(sp)
    d4d0:	dec00204 	addi	sp,sp,8
    d4d4:	f800283a 	ret

0000d4d8 <fstat>:
    d4d8:	defffb04 	addi	sp,sp,-20
    d4dc:	dfc00415 	stw	ra,16(sp)
    d4e0:	df000315 	stw	fp,12(sp)
    d4e4:	df000304 	addi	fp,sp,12
    d4e8:	e13ffe15 	stw	r4,-8(fp)
    d4ec:	e17fff15 	stw	r5,-4(fp)
    d4f0:	e0bffe17 	ldw	r2,-8(fp)
    d4f4:	10000616 	blt	r2,zero,d510 <fstat+0x38>
    d4f8:	e0bffe17 	ldw	r2,-8(fp)
    d4fc:	10c00324 	muli	r3,r2,12
    d500:	00800374 	movhi	r2,13
    d504:	10ac0e04 	addi	r2,r2,-20424
    d508:	1885883a 	add	r2,r3,r2
    d50c:	00000106 	br	d514 <fstat+0x3c>
    d510:	0005883a 	mov	r2,zero
    d514:	e0bffd15 	stw	r2,-12(fp)
    d518:	e0bffd17 	ldw	r2,-12(fp)
    d51c:	10001026 	beq	r2,zero,d560 <fstat+0x88>
    d520:	e0bffd17 	ldw	r2,-12(fp)
    d524:	10800017 	ldw	r2,0(r2)
    d528:	10800817 	ldw	r2,32(r2)
    d52c:	10000726 	beq	r2,zero,d54c <fstat+0x74>
    d530:	e0bffd17 	ldw	r2,-12(fp)
    d534:	10800017 	ldw	r2,0(r2)
    d538:	10800817 	ldw	r2,32(r2)
    d53c:	e17fff17 	ldw	r5,-4(fp)
    d540:	e13ffd17 	ldw	r4,-12(fp)
    d544:	103ee83a 	callr	r2
    d548:	00000a06 	br	d574 <fstat+0x9c>
    d54c:	e0bfff17 	ldw	r2,-4(fp)
    d550:	00c80004 	movi	r3,8192
    d554:	10c00115 	stw	r3,4(r2)
    d558:	0005883a 	mov	r2,zero
    d55c:	00000506 	br	d574 <fstat+0x9c>
    d560:	000d49c0 	call	d49c <alt_get_errno>
    d564:	1007883a 	mov	r3,r2
    d568:	00801444 	movi	r2,81
    d56c:	18800015 	stw	r2,0(r3)
    d570:	00bfffc4 	movi	r2,-1
    d574:	e037883a 	mov	sp,fp
    d578:	dfc00117 	ldw	ra,4(sp)
    d57c:	df000017 	ldw	fp,0(sp)
    d580:	dec00204 	addi	sp,sp,8
    d584:	f800283a 	ret

0000d588 <alt_get_errno>:
    d588:	defffe04 	addi	sp,sp,-8
    d58c:	dfc00115 	stw	ra,4(sp)
    d590:	df000015 	stw	fp,0(sp)
    d594:	d839883a 	mov	fp,sp
    d598:	d0a00c17 	ldw	r2,-32720(gp)
    d59c:	10000326 	beq	r2,zero,d5ac <alt_get_errno+0x24>
    d5a0:	d0a00c17 	ldw	r2,-32720(gp)
    d5a4:	103ee83a 	callr	r2
    d5a8:	00000106 	br	d5b0 <alt_get_errno+0x28>
    d5ac:	d0a79104 	addi	r2,gp,-25020
    d5b0:	e037883a 	mov	sp,fp
    d5b4:	dfc00117 	ldw	ra,4(sp)
    d5b8:	df000017 	ldw	fp,0(sp)
    d5bc:	dec00204 	addi	sp,sp,8
    d5c0:	f800283a 	ret

0000d5c4 <isatty>:
    d5c4:	deffed04 	addi	sp,sp,-76
    d5c8:	dfc01215 	stw	ra,72(sp)
    d5cc:	df001115 	stw	fp,68(sp)
    d5d0:	df001104 	addi	fp,sp,68
    d5d4:	e13fff15 	stw	r4,-4(fp)
    d5d8:	e0bfff17 	ldw	r2,-4(fp)
    d5dc:	10000616 	blt	r2,zero,d5f8 <isatty+0x34>
    d5e0:	e0bfff17 	ldw	r2,-4(fp)
    d5e4:	10c00324 	muli	r3,r2,12
    d5e8:	00800374 	movhi	r2,13
    d5ec:	10ac0e04 	addi	r2,r2,-20424
    d5f0:	1885883a 	add	r2,r3,r2
    d5f4:	00000106 	br	d5fc <isatty+0x38>
    d5f8:	0005883a 	mov	r2,zero
    d5fc:	e0bfef15 	stw	r2,-68(fp)
    d600:	e0bfef17 	ldw	r2,-68(fp)
    d604:	10000e26 	beq	r2,zero,d640 <isatty+0x7c>
    d608:	e0bfef17 	ldw	r2,-68(fp)
    d60c:	10800017 	ldw	r2,0(r2)
    d610:	10800817 	ldw	r2,32(r2)
    d614:	1000021e 	bne	r2,zero,d620 <isatty+0x5c>
    d618:	00800044 	movi	r2,1
    d61c:	00000d06 	br	d654 <isatty+0x90>
    d620:	e0bff004 	addi	r2,fp,-64
    d624:	100b883a 	mov	r5,r2
    d628:	e13fff17 	ldw	r4,-4(fp)
    d62c:	000d4d80 	call	d4d8 <fstat>
    d630:	e0bff117 	ldw	r2,-60(fp)
    d634:	10880020 	cmpeqi	r2,r2,8192
    d638:	10803fcc 	andi	r2,r2,255
    d63c:	00000506 	br	d654 <isatty+0x90>
    d640:	000d5880 	call	d588 <alt_get_errno>
    d644:	1007883a 	mov	r3,r2
    d648:	00801444 	movi	r2,81
    d64c:	18800015 	stw	r2,0(r3)
    d650:	0005883a 	mov	r2,zero
    d654:	e037883a 	mov	sp,fp
    d658:	dfc00117 	ldw	ra,4(sp)
    d65c:	df000017 	ldw	fp,0(sp)
    d660:	dec00204 	addi	sp,sp,8
    d664:	f800283a 	ret

0000d668 <alt_get_errno>:
    d668:	defffe04 	addi	sp,sp,-8
    d66c:	dfc00115 	stw	ra,4(sp)
    d670:	df000015 	stw	fp,0(sp)
    d674:	d839883a 	mov	fp,sp
    d678:	d0a00c17 	ldw	r2,-32720(gp)
    d67c:	10000326 	beq	r2,zero,d68c <alt_get_errno+0x24>
    d680:	d0a00c17 	ldw	r2,-32720(gp)
    d684:	103ee83a 	callr	r2
    d688:	00000106 	br	d690 <alt_get_errno+0x28>
    d68c:	d0a79104 	addi	r2,gp,-25020
    d690:	e037883a 	mov	sp,fp
    d694:	dfc00117 	ldw	ra,4(sp)
    d698:	df000017 	ldw	fp,0(sp)
    d69c:	dec00204 	addi	sp,sp,8
    d6a0:	f800283a 	ret

0000d6a4 <lseek>:
    d6a4:	defff904 	addi	sp,sp,-28
    d6a8:	dfc00615 	stw	ra,24(sp)
    d6ac:	df000515 	stw	fp,20(sp)
    d6b0:	df000504 	addi	fp,sp,20
    d6b4:	e13ffd15 	stw	r4,-12(fp)
    d6b8:	e17ffe15 	stw	r5,-8(fp)
    d6bc:	e1bfff15 	stw	r6,-4(fp)
    d6c0:	e03ffb15 	stw	zero,-20(fp)
    d6c4:	e0bffd17 	ldw	r2,-12(fp)
    d6c8:	10000616 	blt	r2,zero,d6e4 <lseek+0x40>
    d6cc:	e0bffd17 	ldw	r2,-12(fp)
    d6d0:	10c00324 	muli	r3,r2,12
    d6d4:	00800374 	movhi	r2,13
    d6d8:	10ac0e04 	addi	r2,r2,-20424
    d6dc:	1885883a 	add	r2,r3,r2
    d6e0:	00000106 	br	d6e8 <lseek+0x44>
    d6e4:	0005883a 	mov	r2,zero
    d6e8:	e0bffc15 	stw	r2,-16(fp)
    d6ec:	e0bffc17 	ldw	r2,-16(fp)
    d6f0:	10001026 	beq	r2,zero,d734 <lseek+0x90>
    d6f4:	e0bffc17 	ldw	r2,-16(fp)
    d6f8:	10800017 	ldw	r2,0(r2)
    d6fc:	10800717 	ldw	r2,28(r2)
    d700:	10000926 	beq	r2,zero,d728 <lseek+0x84>
    d704:	e0bffc17 	ldw	r2,-16(fp)
    d708:	10800017 	ldw	r2,0(r2)
    d70c:	10800717 	ldw	r2,28(r2)
    d710:	e1bfff17 	ldw	r6,-4(fp)
    d714:	e17ffe17 	ldw	r5,-8(fp)
    d718:	e13ffc17 	ldw	r4,-16(fp)
    d71c:	103ee83a 	callr	r2
    d720:	e0bffb15 	stw	r2,-20(fp)
    d724:	00000506 	br	d73c <lseek+0x98>
    d728:	00bfde84 	movi	r2,-134
    d72c:	e0bffb15 	stw	r2,-20(fp)
    d730:	00000206 	br	d73c <lseek+0x98>
    d734:	00bfebc4 	movi	r2,-81
    d738:	e0bffb15 	stw	r2,-20(fp)
    d73c:	e0bffb17 	ldw	r2,-20(fp)
    d740:	1000070e 	bge	r2,zero,d760 <lseek+0xbc>
    d744:	000d6680 	call	d668 <alt_get_errno>
    d748:	1007883a 	mov	r3,r2
    d74c:	e0bffb17 	ldw	r2,-20(fp)
    d750:	0085c83a 	sub	r2,zero,r2
    d754:	18800015 	stw	r2,0(r3)
    d758:	00bfffc4 	movi	r2,-1
    d75c:	e0bffb15 	stw	r2,-20(fp)
    d760:	e0bffb17 	ldw	r2,-20(fp)
    d764:	e037883a 	mov	sp,fp
    d768:	dfc00117 	ldw	ra,4(sp)
    d76c:	df000017 	ldw	fp,0(sp)
    d770:	dec00204 	addi	sp,sp,8
    d774:	f800283a 	ret

0000d778 <__malloc_lock>:
    d778:	defffe04 	addi	sp,sp,-8
    d77c:	df000115 	stw	fp,4(sp)
    d780:	df000104 	addi	fp,sp,4
    d784:	e13fff15 	stw	r4,-4(fp)
    d788:	0001883a 	nop
    d78c:	e037883a 	mov	sp,fp
    d790:	df000017 	ldw	fp,0(sp)
    d794:	dec00104 	addi	sp,sp,4
    d798:	f800283a 	ret

0000d79c <__malloc_unlock>:
    d79c:	defffe04 	addi	sp,sp,-8
    d7a0:	df000115 	stw	fp,4(sp)
    d7a4:	df000104 	addi	fp,sp,4
    d7a8:	e13fff15 	stw	r4,-4(fp)
    d7ac:	0001883a 	nop
    d7b0:	e037883a 	mov	sp,fp
    d7b4:	df000017 	ldw	fp,0(sp)
    d7b8:	dec00104 	addi	sp,sp,4
    d7bc:	f800283a 	ret

0000d7c0 <alt_get_errno>:
    d7c0:	defffe04 	addi	sp,sp,-8
    d7c4:	dfc00115 	stw	ra,4(sp)
    d7c8:	df000015 	stw	fp,0(sp)
    d7cc:	d839883a 	mov	fp,sp
    d7d0:	d0a00c17 	ldw	r2,-32720(gp)
    d7d4:	10000326 	beq	r2,zero,d7e4 <alt_get_errno+0x24>
    d7d8:	d0a00c17 	ldw	r2,-32720(gp)
    d7dc:	103ee83a 	callr	r2
    d7e0:	00000106 	br	d7e8 <alt_get_errno+0x28>
    d7e4:	d0a79104 	addi	r2,gp,-25020
    d7e8:	e037883a 	mov	sp,fp
    d7ec:	dfc00117 	ldw	ra,4(sp)
    d7f0:	df000017 	ldw	fp,0(sp)
    d7f4:	dec00204 	addi	sp,sp,8
    d7f8:	f800283a 	ret

0000d7fc <read>:
    d7fc:	defff904 	addi	sp,sp,-28
    d800:	dfc00615 	stw	ra,24(sp)
    d804:	df000515 	stw	fp,20(sp)
    d808:	df000504 	addi	fp,sp,20
    d80c:	e13ffd15 	stw	r4,-12(fp)
    d810:	e17ffe15 	stw	r5,-8(fp)
    d814:	e1bfff15 	stw	r6,-4(fp)
    d818:	e0bffd17 	ldw	r2,-12(fp)
    d81c:	10000616 	blt	r2,zero,d838 <read+0x3c>
    d820:	e0bffd17 	ldw	r2,-12(fp)
    d824:	10c00324 	muli	r3,r2,12
    d828:	00800374 	movhi	r2,13
    d82c:	10ac0e04 	addi	r2,r2,-20424
    d830:	1885883a 	add	r2,r3,r2
    d834:	00000106 	br	d83c <read+0x40>
    d838:	0005883a 	mov	r2,zero
    d83c:	e0bffb15 	stw	r2,-20(fp)
    d840:	e0bffb17 	ldw	r2,-20(fp)
    d844:	10002226 	beq	r2,zero,d8d0 <read+0xd4>
    d848:	e0bffb17 	ldw	r2,-20(fp)
    d84c:	10800217 	ldw	r2,8(r2)
    d850:	108000cc 	andi	r2,r2,3
    d854:	10800060 	cmpeqi	r2,r2,1
    d858:	1000181e 	bne	r2,zero,d8bc <read+0xc0>
    d85c:	e0bffb17 	ldw	r2,-20(fp)
    d860:	10800017 	ldw	r2,0(r2)
    d864:	10800517 	ldw	r2,20(r2)
    d868:	10001426 	beq	r2,zero,d8bc <read+0xc0>
    d86c:	e0bffb17 	ldw	r2,-20(fp)
    d870:	10800017 	ldw	r2,0(r2)
    d874:	10800517 	ldw	r2,20(r2)
    d878:	e0ffff17 	ldw	r3,-4(fp)
    d87c:	180d883a 	mov	r6,r3
    d880:	e17ffe17 	ldw	r5,-8(fp)
    d884:	e13ffb17 	ldw	r4,-20(fp)
    d888:	103ee83a 	callr	r2
    d88c:	e0bffc15 	stw	r2,-16(fp)
    d890:	e0bffc17 	ldw	r2,-16(fp)
    d894:	1000070e 	bge	r2,zero,d8b4 <read+0xb8>
    d898:	000d7c00 	call	d7c0 <alt_get_errno>
    d89c:	1007883a 	mov	r3,r2
    d8a0:	e0bffc17 	ldw	r2,-16(fp)
    d8a4:	0085c83a 	sub	r2,zero,r2
    d8a8:	18800015 	stw	r2,0(r3)
    d8ac:	00bfffc4 	movi	r2,-1
    d8b0:	00000c06 	br	d8e4 <read+0xe8>
    d8b4:	e0bffc17 	ldw	r2,-16(fp)
    d8b8:	00000a06 	br	d8e4 <read+0xe8>
    d8bc:	000d7c00 	call	d7c0 <alt_get_errno>
    d8c0:	1007883a 	mov	r3,r2
    d8c4:	00800344 	movi	r2,13
    d8c8:	18800015 	stw	r2,0(r3)
    d8cc:	00000406 	br	d8e0 <read+0xe4>
    d8d0:	000d7c00 	call	d7c0 <alt_get_errno>
    d8d4:	1007883a 	mov	r3,r2
    d8d8:	00801444 	movi	r2,81
    d8dc:	18800015 	stw	r2,0(r3)
    d8e0:	00bfffc4 	movi	r2,-1
    d8e4:	e037883a 	mov	sp,fp
    d8e8:	dfc00117 	ldw	ra,4(sp)
    d8ec:	df000017 	ldw	fp,0(sp)
    d8f0:	dec00204 	addi	sp,sp,8
    d8f4:	f800283a 	ret

0000d8f8 <sbrk>:
    d8f8:	defff904 	addi	sp,sp,-28
    d8fc:	df000615 	stw	fp,24(sp)
    d900:	df000604 	addi	fp,sp,24
    d904:	e13fff15 	stw	r4,-4(fp)
    d908:	0005303a 	rdctl	r2,status
    d90c:	e0bffe15 	stw	r2,-8(fp)
    d910:	e0fffe17 	ldw	r3,-8(fp)
    d914:	00bfff84 	movi	r2,-2
    d918:	1884703a 	and	r2,r3,r2
    d91c:	1001703a 	wrctl	status,r2
    d920:	e0bffe17 	ldw	r2,-8(fp)
    d924:	e0bffb15 	stw	r2,-20(fp)
    d928:	d0a01117 	ldw	r2,-32700(gp)
    d92c:	10c000c4 	addi	r3,r2,3
    d930:	00bfff04 	movi	r2,-4
    d934:	1884703a 	and	r2,r3,r2
    d938:	d0a01115 	stw	r2,-32700(gp)
    d93c:	d0e01117 	ldw	r3,-32700(gp)
    d940:	e0bfff17 	ldw	r2,-4(fp)
    d944:	1887883a 	add	r3,r3,r2
    d948:	00810034 	movhi	r2,1024
    d94c:	10800004 	addi	r2,r2,0
    d950:	10c0062e 	bgeu	r2,r3,d96c <sbrk+0x74>
    d954:	e0bffb17 	ldw	r2,-20(fp)
    d958:	e0bffa15 	stw	r2,-24(fp)
    d95c:	e0bffa17 	ldw	r2,-24(fp)
    d960:	1001703a 	wrctl	status,r2
    d964:	00bfffc4 	movi	r2,-1
    d968:	00000b06 	br	d998 <sbrk+0xa0>
    d96c:	d0a01117 	ldw	r2,-32700(gp)
    d970:	e0bffd15 	stw	r2,-12(fp)
    d974:	d0e01117 	ldw	r3,-32700(gp)
    d978:	e0bfff17 	ldw	r2,-4(fp)
    d97c:	1885883a 	add	r2,r3,r2
    d980:	d0a01115 	stw	r2,-32700(gp)
    d984:	e0bffb17 	ldw	r2,-20(fp)
    d988:	e0bffc15 	stw	r2,-16(fp)
    d98c:	e0bffc17 	ldw	r2,-16(fp)
    d990:	1001703a 	wrctl	status,r2
    d994:	e0bffd17 	ldw	r2,-12(fp)
    d998:	e037883a 	mov	sp,fp
    d99c:	df000017 	ldw	fp,0(sp)
    d9a0:	dec00104 	addi	sp,sp,4
    d9a4:	f800283a 	ret

0000d9a8 <alt_get_errno>:
    d9a8:	defffe04 	addi	sp,sp,-8
    d9ac:	dfc00115 	stw	ra,4(sp)
    d9b0:	df000015 	stw	fp,0(sp)
    d9b4:	d839883a 	mov	fp,sp
    d9b8:	d0a00c17 	ldw	r2,-32720(gp)
    d9bc:	10000326 	beq	r2,zero,d9cc <alt_get_errno+0x24>
    d9c0:	d0a00c17 	ldw	r2,-32720(gp)
    d9c4:	103ee83a 	callr	r2
    d9c8:	00000106 	br	d9d0 <alt_get_errno+0x28>
    d9cc:	d0a79104 	addi	r2,gp,-25020
    d9d0:	e037883a 	mov	sp,fp
    d9d4:	dfc00117 	ldw	ra,4(sp)
    d9d8:	df000017 	ldw	fp,0(sp)
    d9dc:	dec00204 	addi	sp,sp,8
    d9e0:	f800283a 	ret

0000d9e4 <write>:
    d9e4:	defff904 	addi	sp,sp,-28
    d9e8:	dfc00615 	stw	ra,24(sp)
    d9ec:	df000515 	stw	fp,20(sp)
    d9f0:	df000504 	addi	fp,sp,20
    d9f4:	e13ffd15 	stw	r4,-12(fp)
    d9f8:	e17ffe15 	stw	r5,-8(fp)
    d9fc:	e1bfff15 	stw	r6,-4(fp)
    da00:	e0bffd17 	ldw	r2,-12(fp)
    da04:	10000616 	blt	r2,zero,da20 <write+0x3c>
    da08:	e0bffd17 	ldw	r2,-12(fp)
    da0c:	10c00324 	muli	r3,r2,12
    da10:	00800374 	movhi	r2,13
    da14:	10ac0e04 	addi	r2,r2,-20424
    da18:	1885883a 	add	r2,r3,r2
    da1c:	00000106 	br	da24 <write+0x40>
    da20:	0005883a 	mov	r2,zero
    da24:	e0bffb15 	stw	r2,-20(fp)
    da28:	e0bffb17 	ldw	r2,-20(fp)
    da2c:	10002126 	beq	r2,zero,dab4 <write+0xd0>
    da30:	e0bffb17 	ldw	r2,-20(fp)
    da34:	10800217 	ldw	r2,8(r2)
    da38:	108000cc 	andi	r2,r2,3
    da3c:	10001826 	beq	r2,zero,daa0 <write+0xbc>
    da40:	e0bffb17 	ldw	r2,-20(fp)
    da44:	10800017 	ldw	r2,0(r2)
    da48:	10800617 	ldw	r2,24(r2)
    da4c:	10001426 	beq	r2,zero,daa0 <write+0xbc>
    da50:	e0bffb17 	ldw	r2,-20(fp)
    da54:	10800017 	ldw	r2,0(r2)
    da58:	10800617 	ldw	r2,24(r2)
    da5c:	e0ffff17 	ldw	r3,-4(fp)
    da60:	180d883a 	mov	r6,r3
    da64:	e17ffe17 	ldw	r5,-8(fp)
    da68:	e13ffb17 	ldw	r4,-20(fp)
    da6c:	103ee83a 	callr	r2
    da70:	e0bffc15 	stw	r2,-16(fp)
    da74:	e0bffc17 	ldw	r2,-16(fp)
    da78:	1000070e 	bge	r2,zero,da98 <write+0xb4>
    da7c:	000d9a80 	call	d9a8 <alt_get_errno>
    da80:	1007883a 	mov	r3,r2
    da84:	e0bffc17 	ldw	r2,-16(fp)
    da88:	0085c83a 	sub	r2,zero,r2
    da8c:	18800015 	stw	r2,0(r3)
    da90:	00bfffc4 	movi	r2,-1
    da94:	00000c06 	br	dac8 <write+0xe4>
    da98:	e0bffc17 	ldw	r2,-16(fp)
    da9c:	00000a06 	br	dac8 <write+0xe4>
    daa0:	000d9a80 	call	d9a8 <alt_get_errno>
    daa4:	1007883a 	mov	r3,r2
    daa8:	00800344 	movi	r2,13
    daac:	18800015 	stw	r2,0(r3)
    dab0:	00000406 	br	dac4 <write+0xe0>
    dab4:	000d9a80 	call	d9a8 <alt_get_errno>
    dab8:	1007883a 	mov	r3,r2
    dabc:	00801444 	movi	r2,81
    dac0:	18800015 	stw	r2,0(r3)
    dac4:	00bfffc4 	movi	r2,-1
    dac8:	e037883a 	mov	sp,fp
    dacc:	dfc00117 	ldw	ra,4(sp)
    dad0:	df000017 	ldw	fp,0(sp)
    dad4:	dec00204 	addi	sp,sp,8
    dad8:	f800283a 	ret
