
PS2_ISR.elf:     file format elf32-littlenios2
PS2_ISR.elf
architecture: nios2:r1, flags 0x00000112:
EXEC_P, HAS_SYMS, D_PAGED
start address 0x00000248

Program Header:
    LOAD off    0x00001000 vaddr 0x00000000 paddr 0x00000000 align 2**12
         filesz 0x00000020 memsz 0x00000020 flags r-x
    LOAD off    0x00001020 vaddr 0x00000020 paddr 0x00000020 align 2**12
         filesz 0x000c985c memsz 0x000c985c flags r-x
    LOAD off    0x000ca87c vaddr 0x000c987c paddr 0x000cb608 align 2**12
         filesz 0x00001d8c memsz 0x00001d8c flags rw-
    LOAD off    0x000cd394 vaddr 0x000cd394 paddr 0x000cd394 align 2**12
         filesz 0x00000000 memsz 0x0000021c flags rw-

Sections:
Idx Name          Size      VMA       LMA       File off  Algn
  0 .entry        00000020  00000000  00000000  00001000  2**5
                  CONTENTS, ALLOC, LOAD, READONLY, CODE
  1 .exceptions   00000228  00000020  00000020  00001020  2**2
                  CONTENTS, ALLOC, LOAD, READONLY, CODE
  2 .text         0000d894  00000248  00000248  00001248  2**2
                  CONTENTS, ALLOC, LOAD, READONLY, CODE
  3 .rodata       000bbda0  0000dadc  0000dadc  0000eadc  2**2
                  CONTENTS, ALLOC, LOAD, READONLY, DATA
  4 .rwdata       00001d8c  000c987c  000cb608  000ca87c  2**2
                  CONTENTS, ALLOC, LOAD, DATA, SMALL_DATA
  5 .bss          0000021c  000cd394  000cd394  000cd394  2**2
                  ALLOC, SMALL_DATA
  6 .SDRAM        00000000  000cd5b0  000cd5b0  000cc608  2**0
                  CONTENTS
  7 .Onchip_SRAM  00000000  08000000  08000000  000cc608  2**0
                  CONTENTS
  8 .VGA_Subsystem_Char_Buf_Subsystem_Onchip_SRAM 00000000  09000000  09000000  000cc608  2**0
                  CONTENTS
  9 .comment      00000023  00000000  00000000  000cc608  2**0
                  CONTENTS, READONLY
 10 .debug_aranges 00000b00  00000000  00000000  000cc630  2**3
                  CONTENTS, READONLY, DEBUGGING
 11 .debug_info   0001a510  00000000  00000000  000cd130  2**0
                  CONTENTS, READONLY, DEBUGGING
 12 .debug_abbrev 00006427  00000000  00000000  000e7640  2**0
                  CONTENTS, READONLY, DEBUGGING
 13 .debug_line   00007170  00000000  00000000  000eda67  2**0
                  CONTENTS, READONLY, DEBUGGING
 14 .debug_frame  0000258c  00000000  00000000  000f4bd8  2**2
                  CONTENTS, READONLY, DEBUGGING
 15 .debug_str    00003999  00000000  00000000  000f7164  2**0
                  CONTENTS, READONLY, DEBUGGING
 16 .debug_alt_sim_info 00000020  00000000  00000000  000fab00  2**2
                  CONTENTS, READONLY, DEBUGGING
 17 .debug_ranges 00000368  00000000  00000000  000fab20  2**3
                  CONTENTS, READONLY, DEBUGGING
 18 .thread_model 00000003  00000000  00000000  000fe731  2**0
                  CONTENTS, READONLY
 19 .cpu          00000005  00000000  00000000  000fe734  2**0
                  CONTENTS, READONLY
 20 .qsys         00000001  00000000  00000000  000fe739  2**0
                  CONTENTS, READONLY
 21 .simulation_enabled 00000001  00000000  00000000  000fe73a  2**0
                  CONTENTS, READONLY
 22 .sysid_hash   00000004  00000000  00000000  000fe73b  2**0
                  CONTENTS, READONLY
 23 .sysid_base   00000004  00000000  00000000  000fe73f  2**0
                  CONTENTS, READONLY
 24 .sysid_time   00000004  00000000  00000000  000fe743  2**0
                  CONTENTS, READONLY
 25 .stderr_dev   00000009  00000000  00000000  000fe747  2**0
                  CONTENTS, READONLY
 26 .stdin_dev    00000009  00000000  00000000  000fe750  2**0
                  CONTENTS, READONLY
 27 .stdout_dev   00000009  00000000  00000000  000fe759  2**0
                  CONTENTS, READONLY
 28 .sopc_system_name 0000000f  00000000  00000000  000fe762  2**0
                  CONTENTS, READONLY
 29 .jdi          00008914  00000000  00000000  000fe771  2**0
                  CONTENTS, READONLY
 30 .sopcinfo     0010ca86  00000000  00000000  00107085  2**0
                  CONTENTS, READONLY
SYMBOL TABLE:
00000000 l    d  .entry	00000000 .entry
00000020 l    d  .exceptions	00000000 .exceptions
00000248 l    d  .text	00000000 .text
0000dadc l    d  .rodata	00000000 .rodata
000c987c l    d  .rwdata	00000000 .rwdata
000cd394 l    d  .bss	00000000 .bss
000cd5b0 l    d  .SDRAM	00000000 .SDRAM
08000000 l    d  .Onchip_SRAM	00000000 .Onchip_SRAM
09000000 l    d  .VGA_Subsystem_Char_Buf_Subsystem_Onchip_SRAM	00000000 .VGA_Subsystem_Char_Buf_Subsystem_Onchip_SRAM
00000000 l    d  .comment	00000000 .comment
00000000 l    d  .debug_aranges	00000000 .debug_aranges
00000000 l    d  .debug_info	00000000 .debug_info
00000000 l    d  .debug_abbrev	00000000 .debug_abbrev
00000000 l    d  .debug_line	00000000 .debug_line
00000000 l    d  .debug_frame	00000000 .debug_frame
00000000 l    d  .debug_str	00000000 .debug_str
00000000 l    d  .debug_alt_sim_info	00000000 .debug_alt_sim_info
00000000 l    d  .debug_ranges	00000000 .debug_ranges
00000000 l    df *ABS*	00000000 BSP//obj/HAL/src/crt0.o
00000280 l       .text	00000000 alt_after_alt_main
00000000 l    df *ABS*	00000000 alt_irq_handler.c
00000000 l    df *ABS*	00000000 alt_instruction_exception_entry.c
00000000 l    df *ABS*	00000000 PS2_ISR.c
00000000 l    df *ABS*	00000000 PS2_interrupt.c
0000dadc l     O .rodata	00025800 SphearSplash
000332dc l     O .rodata	00025800 SphearEnd
00000000 l    df *ABS*	00000000 audio_ISR.c
00000000 l    df *ABS*	00000000 globals.c
00000000 l    df *ABS*	00000000 interval_timer_ISR.c
00000000 l    df *ABS*	00000000 physics.c
00000000 l    df *ABS*	00000000 memcpy.c
00000000 l    df *ABS*	00000000 rand.c
00000000 l    df *ABS*	00000000 impure.c
000c99c0 l     O .rwdata	00000424 impure_data
00000000 l    df *ABS*	00000000 alt_irq_register.c
00000000 l    df *ABS*	00000000 alt_irq_vars.c
00000000 l    df *ABS*	00000000 alt_load.c
0000565c l     F .text	00000068 alt_load_section
00000000 l    df *ABS*	00000000 alt_main.c
00000000 l    df *ABS*	00000000 alt_printf.c
00000000 l    df *ABS*	00000000 alt_putchar.c
00000000 l    df *ABS*	00000000 alt_sys_init.c
00005a2c l     F .text	00000034 alt_dev_reg
000c9de4 l     O .rwdata	00001060 JTAG_UART
000cae44 l     O .rwdata	00000030 AV_Config
000cae74 l     O .rwdata	00000030 Audio_Subsystem_Audio
000caea4 l     O .rwdata	00000038 PS2_Port
000caedc l     O .rwdata	00000038 PS2_Port_Dual
000caf14 l     O .rwdata	0000005c VGA_Subsystem_Char_Buf_Subsystem_Char_Buf_DMA
000caf70 l     O .rwdata	0000005c VGA_Subsystem_VGA_Pixel_DMA
000cafcc l     O .rwdata	00000044 VGA_Subsystem_VGA_Pixel_RGB_Resampler
00000000 l    df *ABS*	00000000 altera_avalon_jtag_uart_fd.c
00000000 l    df *ABS*	00000000 altera_avalon_jtag_uart_init.c
0000634c l     F .text	00000210 altera_avalon_jtag_uart_irq
0000655c l     F .text	000000a0 altera_avalon_jtag_uart_timeout
00000000 l    df *ABS*	00000000 altera_avalon_jtag_uart_ioctl.c
00000000 l    df *ABS*	00000000 altera_avalon_jtag_uart_read.c
00000000 l    df *ABS*	00000000 altera_avalon_jtag_uart_write.c
00000000 l    df *ABS*	00000000 altera_avalon_timer_sc.c
00006b94 l     F .text	0000007c alt_avalon_timer_sc_irq
00000000 l    df *ABS*	00000000 altera_up_avalon_audio.c
00000000 l    df *ABS*	00000000 altera_up_avalon_ps2.c
00000000 l    df *ABS*	00000000 altera_up_avalon_video_dma_controller.c
00000000 l    df *ABS*	00000000 alt_alarm_start.c
00000000 l    df *ABS*	00000000 alt_close.c
00009068 l     F .text	0000003c alt_get_errno
00000000 l    df *ABS*	00000000 alt_dcache_flush_all.c
00000000 l    df *ABS*	00000000 alt_dev.c
00009194 l     F .text	0000002c alt_dev_null_write
00000000 l    df *ABS*	00000000 alt_dev_llist_insert.c
000091c0 l     F .text	0000003c alt_get_errno
00000000 l    df *ABS*	00000000 alt_do_ctors.c
00000000 l    df *ABS*	00000000 alt_do_dtors.c
00000000 l    df *ABS*	00000000 alt_errno.c
00000000 l    df *ABS*	00000000 alt_find_dev.c
00000000 l    df *ABS*	00000000 alt_icache_flush_all.c
00000000 l    df *ABS*	00000000 alt_io_redirect.c
00009424 l     F .text	000000c4 alt_open_fd
00000000 l    df *ABS*	00000000 alt_open.c
00009564 l     F .text	0000003c alt_get_errno
000095a0 l     F .text	000000c4 alt_file_locked
00000000 l    df *ABS*	00000000 alt_release_fd.c
00000000 l    df *ABS*	00000000 alt_tick.c
00000000 l    df *ABS*	00000000 altera_nios2_gen2_irq.c
00000000 l    df *ABS*	00000000 alt_find_file.c
00000000 l    df *ABS*	00000000 alt_get_fd.c
00000000 l    df *ABS*	00000000 alt_icache_flush.c
00000000 l    df *ABS*	00000000 atexit.c
00000000 l    df *ABS*	00000000 exit.c
00000000 l    df *ABS*	00000000 int_errno.c
00000000 l    df *ABS*	00000000 memcmp.c
00000000 l    df *ABS*	00000000 putc.c
00000000 l    df *ABS*	00000000 strlen.c
00000000 l    df *ABS*	00000000 wbuf.c
00000000 l    df *ABS*	00000000 wsetup.c
00000000 l    df *ABS*	00000000 __atexit.c
00000000 l    df *ABS*	00000000 __call_atexit.c
000cd408 l     O .bss	00000004 __atexit_lock
00000000 l    df *ABS*	00000000 fflush.c
00000000 l    df *ABS*	00000000 findfp.c
0000abf8 l     F .text	000000f4 std
000cd40c l     O .bss	00000004 __sfp_lock
000cd410 l     O .bss	00000004 __sinit_lock
0000b0f4 l     F .text	00000024 __fp_lock
0000b118 l     F .text	00000024 __fp_unlock
00000000 l    df *ABS*	00000000 mallocr.c
00000000 l    df *ABS*	00000000 fwalk.c
00000000 l    df *ABS*	00000000 makebuf.c
00000000 l    df *ABS*	00000000 mallocr.c
0000bcc4 l     F .text	000003b4 malloc_extend_top
00000000 l    df *ABS*	00000000 memset.c
00000000 l    df *ABS*	00000000 sbrkr.c
00000000 l    df *ABS*	00000000 stdio.c
00000000 l    df *ABS*	00000000 writer.c
00000000 l    df *ABS*	00000000 closer.c
00000000 l    df *ABS*	00000000 fclose.c
00000000 l    df *ABS*	00000000 fstatr.c
00000000 l    df *ABS*	00000000 isattyr.c
00000000 l    df *ABS*	00000000 lseekr.c
00000000 l    df *ABS*	00000000 readr.c
00000000 l    df *ABS*	00000000 alt_exit.c
00000000 l    df *ABS*	00000000 alt_fstat.c
0000d49c l     F .text	0000003c alt_get_errno
00000000 l    df *ABS*	00000000 alt_isatty.c
0000d588 l     F .text	0000003c alt_get_errno
00000000 l    df *ABS*	00000000 alt_lseek.c
0000d668 l     F .text	0000003c alt_get_errno
00000000 l    df *ABS*	00000000 alt_malloc_lock.c
00000000 l    df *ABS*	00000000 alt_read.c
0000d7c0 l     F .text	0000003c alt_get_errno
00000000 l    df *ABS*	00000000 alt_sbrk.c
000cb604 l     O .rwdata	00000004 heap_end
00000000 l    df *ABS*	00000000 alt_write.c
0000d9a8 l     F .text	0000003c alt_get_errno
000cd400 g     O .bss	00000004 alt_instruction_exception_handler
000cd3ac g     O .bss	00000001 newData
0000d328 g     F .text	00000060 _isatty_r
00005748 g     F .text	0000007c alt_main
00005000 g     F .text	00000250 interval_timer_ISR
000cd398 g     O .bss	00000004 game_time
000cd4b0 g     O .bss	00000100 alt_irq
00007678 g     F .text	00000060 alt_up_ps2_disable_read_interrupt
0000d388 g     F .text	00000070 _lseek_r
000cb608 g       *ABS*	00000000 __flash_rwdata_start
000cd3ad g     O .bss	00000001 byte2
00006f2c g     F .text	00000060 alt_up_audio_read_fifo_avail
000cd5b0 g       *ABS*	00000000 __alt_heap_start
00006f8c g     F .text	00000068 alt_up_audio_record_r
000cd3ae g     O .bss	00000001 byte3
0000cf98 g     F .text	000000a0 __sseek
0000af9c g     F .text	000000d8 __sinit
00002e48 g     F .text	000001fc binRandS
0000a174 g     F .text	00000168 __swbuf_r
00007490 g     F .text	00000034 read_CE_bit
00002ac8 g     F .text	00000114 dispScore
0000acec g     F .text	000000a4 __sfmoreglue
0000d79c g     F .text	00000024 __malloc_unlock
00007818 g     F .text	0000009c alt_up_ps2_read_data_byte_timeout
00006e98 g     F .text	00000094 alt_up_audio_reset_audio_core
000cd3af g     O .bss	00000001 byte1
00003934 g     F .text	000002d4 resampleColours
0000af68 g     F .text	00000034 _cleanup
00007d70 g     F .text	00000154 alt_up_video_dma_read
0000360c g     F .text	000001d0 moveMouse
000099c0 g     F .text	00000024 altera_nios2_gen2_irq_init
00008778 g     F .text	000003a8 alt_up_video_dma_draw_circle
000037dc g     F .text	000000d0 openPS2Device
00000000 g     F .entry	0000001c __reset
000086c0 g     F .text	00000040 alt_up_video_dma_screen_clear
00000020 g       *ABS*	00000000 __flash_exceptions_start
00003ce8 g     F .text	00000068 assignPixelBuffers
0000d2c0 g     F .text	00000068 _fstat_r
000cd404 g     O .bss	00000004 errno
0000ceb4 g     F .text	00000030 __seofread
00006e58 g     F .text	00000040 alt_up_audio_write_interrupt_pending
000cd3f0 g     O .bss	00000004 alt_argv
000cb5c0 g     O .rwdata	00000004 c_of_rest
000d35c0 g       *ABS*	00000000 _gp
00008b20 g     F .text	00000124 alt_up_video_dma_draw_hline
00003c78 g     F .text	00000070 openCharDMA
000cb038 g     O .rwdata	00000180 alt_fd_list
00003e30 g     F .text	000000a0 initMouse
00009360 g     F .text	00000090 alt_find_dev
00005250 g     F .text	00000188 memcpy
0000af24 g     F .text	00000044 _cleanup_r
000094e8 g     F .text	0000007c alt_io_redirect
0000dadc g       *ABS*	00000000 __DTOR_END__
00009c20 g     F .text	0000009c alt_exception_cause_generated_bad_addr
00002d7c g     F .text	000000cc drawSplash
000cd3a8 g     O .bss	00000004 chaserDelay
00007374 g     F .text	00000050 alt_up_audio_read_fifo_head
00007b18 g     F .text	0000005c alt_up_video_dma_ctrl_set_bb_addr
00006754 g     F .text	0000021c altera_avalon_jtag_uart_read
00004ac0 g     F .text	000000b4 check_stopped
0000d5c4 g     F .text	000000a4 isatty
000cd448 g     O .bss	00000068 circles
00009b90 g     F .text	00000090 alt_icache_flush
000cd414 g     O .bss	00000004 __malloc_top_pad
0000415c g     F .text	00000258 resolve_collisions_dynamic
0000cdb8 g     F .text	00000060 _sbrk_r
000cd3b0 g     O .bss	00000008 up_dev
000cd3b8 g     O .bss	00000004 byteIndex
0000d3f8 g     F .text	00000070 _read_r
000cb5ec g     O .rwdata	00000004 alt_max_fd
000073c4 g     F .text	00000068 alt_up_audio_write_fifo_head
0000d15c g     F .text	0000012c _fclose_r
000074c4 g     F .text	00000030 read_num_bytes_available
0000aba4 g     F .text	00000054 fflush
000cd418 g     O .bss	00000004 __malloc_max_sbrked_mem
000054dc g     F .text	00000180 alt_irq_register
00003044 g     F .text	000001f4 charRandS
0000742c g     F .text	00000034 read_RI_bit
000cd3bc g     O .bss	00000002 mouseY
00003c08 g     F .text	00000070 openPixelDMA
0000d6a4 g     F .text	000000d4 lseek
000cb5d4 g     O .rwdata	00000004 _global_impure_ptr
000cd5b0 g       *ABS*	00000000 __bss_end
000098b8 g     F .text	00000108 alt_tick
0000479c g     F .text	0000005c accelerate_dynamic
000cd39c g     O .bss	00000004 time_step
000c987c g     O .rwdata	00000144 circle9
00006c84 g     F .text	0000003c alt_up_audio_open_dev
00007528 g     F .text	0000002c read_data_byte
0000b13c g     F .text	00000040 __fp_lock_all
000070bc g     F .text	00000068 alt_up_audio_play_r
0000981c g     F .text	0000009c alt_alarm_stop
00007460 g     F .text	00000030 read_RE_bit
000cd3e8 g     O .bss	00000004 alt_irq_active
000000fc g     F .exceptions	000000d8 alt_irq_handler
000cb010 g     O .rwdata	00000028 alt_dev_null
000076d8 g     F .text	00000074 alt_up_ps2_write_data_byte
00003dc4 g     F .text	0000006c initSplash
00009174 g     F .text	00000020 alt_dcache_flush_all
000cd3be g     O .bss	00000001 button1Down
000cb608 g       *ABS*	00000000 __ram_rwdata_end
000cb5e4 g     O .rwdata	00000008 alt_dev_list
0000d9e4 g     F .text	000000f8 write
00009e74 g     F .text	00000104 _putc_r
000c987c g       *ABS*	00000000 __ram_rodata_end
0000d4d8 g     F .text	000000b0 fstat
00000000 g       *ABS*	00000000 __alt_mem_SDRAM
000cd5b0 g       *ABS*	00000000 end
00007a08 g     F .text	00000098 alt_up_ps2_write_fd
00003d50 g     F .text	00000074 assignCharBuffers
00008c44 g     F .text	00000154 alt_up_video_dma_draw_vline
000cd3c0 g     O .bss	00000004 packetSize
00006298 g     F .text	000000b4 altera_avalon_jtag_uart_init
000cd3a0 g     O .bss	00000001 game_status
000001d4 g     F .exceptions	00000074 alt_instruction_exception_entry
00007bd4 g     F .text	00000034 alt_up_video_dma_ctrl_check_swap_status
0000dadc g       *ABS*	00000000 __CTOR_LIST__
00008e74 g     F .text	00000068 alt_up_video_dma_draw_helper
04000000 g       *ABS*	00000000 __alt_stack_pointer
00006c10 g     F .text	00000074 alt_avalon_timer_sc_init
000cd394 g     O .bss	00000004 num_objects
00006970 g     F .text	00000224 altera_avalon_jtag_uart_write
00004d90 g     F .text	00000094 reset_circles
0000b074 g     F .text	00000020 __sfp_lock_acquire
0000b1bc g     F .text	00000560 _free_r
000057c4 g     F .text	0000022c alt_printf
0000a62c g     F .text	000001ec __call_exitprocs
000038ac g     F .text	00000088 openAudioDevice
000cb600 g     O .rwdata	00000004 __malloc_sbrk_base
00000248 g     F .text	0000003c _start
000cd3f8 g     O .bss	00000004 _alt_tick_rate
00007c08 g     F .text	00000168 alt_up_video_dma_draw
0000726c g     F .text	00000108 alt_up_audio_write_fifo
0000541c g     F .text	000000c0 rand
000cd3fc g     O .bss	00000004 _alt_nticks
0000d7fc g     F .text	000000fc read
00004920 g     F .text	00000048 get_vel_y
00005a98 g     F .text	0000069c alt_sys_init
00003410 g     F .text	00000088 drawCursor
0000718c g     F .text	000000e0 alt_up_audio_read_fifo
00004b74 g     F .text	0000014c check_game_status
0000a4bc g     F .text	00000170 __register_exitproc
00006dc0 g     F .text	00000058 alt_up_audio_disable_write_interrupt
00008d98 g     F .text	000000dc alt_up_video_dma_draw_rectangle
00007924 g     F .text	00000058 alt_up_ps2_clear_fifo
000065fc g     F .text	00000068 altera_avalon_jtag_uart_close
000c987c g       *ABS*	00000000 __ram_rwdata_start
0000dadc g       *ABS*	00000000 __ram_rodata_start
000cd420 g     O .bss	00000028 __malloc_current_mallinfo
00006134 g     F .text	00000060 altera_avalon_jtag_uart_read_fd
00009aec g     F .text	000000a4 alt_get_fd
00002ca0 g     F .text	000000dc charDissolveEffect
0000d0fc g     F .text	00000060 _close_r
00006d6c g     F .text	00000054 alt_up_audio_enable_write_interrupt
00009d40 g     F .text	00000134 memcmp
000061f4 g     F .text	00000050 altera_avalon_jtag_uart_close_fd
000cd5b0 g       *ABS*	00000000 __alt_stack_base
00006244 g     F .text	00000054 altera_avalon_jtag_uart_ioctl_fd
00004660 g     F .text	0000013c update_dynamic
0000a31c g     F .text	000001a0 __swsetup_r
00006d14 g     F .text	00000058 alt_up_audio_disable_read_interrupt
0000ad90 g     F .text	00000194 __sfp
000cb1b8 g     O .rwdata	00000408 __malloc_av_
0000b0d4 g     F .text	00000020 __sinit_lock_release
000cb5c5 g     O .rwdata	00000001 negYMask
0000ce18 g     F .text	0000009c __sread
000099e4 g     F .text	00000108 alt_find_file
000cd3c4 g     O .bss	00000001 button3Down
000091fc g     F .text	000000a4 alt_dev_llist_insert
0000d778 g     F .text	00000024 __malloc_lock
0000d8f8 g     F .text	000000b0 sbrk
00004868 g     F .text	00000070 add_velocity_dynamic
0000ab1c g     F .text	00000088 _fflush_r
000043b4 g     F .text	0000006c update_gravity
000cd394 g       *ABS*	00000000 __bss_start
00008edc g     F .text	00000060 alt_up_video_dma_read_helper
0000cbf4 g     F .text	000001c4 memset
000004bc g     F .text	00002588 main
0000705c g     F .text	00000060 alt_up_audio_write_fifo_space
000cd3f4 g     O .bss	00000004 alt_envp
000cd41c g     O .bss	00000004 __malloc_max_total_mem
00006194 g     F .text	00000060 altera_avalon_jtag_uart_write_fd
0000a2dc g     F .text	00000040 __swbuf
000053d8 g     F .text	00000044 srand
0000d038 g     F .text	00000054 __sclose
04000000 g       *ABS*	00000000 __alt_heap_limit
0000d288 g     F .text	00000038 fclose
000078b4 g     F .text	00000070 alt_up_ps2_read_data_byte
000cd3c8 g     O .bss	00000004 timeout
000cd3cc g     O .bss	00000004 seq
0000c078 g     F .text	00000b7c _malloc_r
000cb5f0 g     O .rwdata	00000004 alt_errno
0000b8e4 g     F .text	000000d8 _fwalk
00007aa0 g     F .text	0000003c alt_up_ps2_open_dev
00009f78 g     F .text	00000108 putc
0000b71c g     F .text	000001c8 _malloc_trim_r
0000761c g     F .text	0000005c alt_up_ps2_enable_read_interrupt
0000dadc g       *ABS*	00000000 __CTOR_END__
000cb5cc g     O .rwdata	00000004 dir
000033d0 g     F .text	00000040 copyPoint
0000dadc g       *ABS*	00000000 __flash_rodata_start
0000dadc g       *ABS*	00000000 __DTOR_LIST__
000081e0 g     F .text	0000029c alt_up_video_dma_draw_line
000cd3a4 g     O .bss	00000004 delay
00005a60 g     F .text	00000038 alt_irq_init
000097b8 g     F .text	00000064 alt_release_fd
000074f4 g     F .text	00000034 read_data_valid
000077b4 g     F .text	00000064 alt_up_ps2_write_data_byte_with_ack
00009cbc g     F .text	0000003c atexit
0000d08c g     F .text	00000070 _write_r
00000284 g     F .text	00000238 PS2_ISR
00003238 g     F .text	00000198 fadeBGM
000cb5d0 g     O .rwdata	00000004 _impure_ptr
000cd3d0 g     O .bss	00000004 buf_index_play
000cd3ec g     O .bss	00000004 alt_argc
0000a818 g     F .text	00000304 __sflush_r
00009300 g     F .text	00000060 _do_dtors
09000000 g       *ABS*	00000000 __alt_mem_VGA_Subsystem_Char_Buf_Subsystem_Onchip_SRAM
00004cc0 g     F .text	000000d0 capture_ball
000047f8 g     F .text	00000070 set_new_velocity_dynamic
00003ed0 g     F .text	00000068 clickedInArea
00000020 g       .exceptions	00000000 alt_irq_entry
0000b17c g     F .text	00000040 __fp_unlock_all
000cb5dc g     O .rwdata	00000008 alt_fs_list
000cb5c4 g     O .rwdata	00000001 negXMask
00006ff4 g     F .text	00000068 alt_up_audio_record_l
00058f70 g     O .rodata	00070808 jazzplaza
00002bdc g     F .text	000000c4 dissolveEffect
00000020 g       *ABS*	00000000 __ram_exceptions_start
0000847c g     F .text	00000244 alt_up_video_dma_draw_string
00004968 g     F .text	00000158 update_all
000cb608 g       *ABS*	00000000 _edata
000cd3d4 g     O .bss	00000004 interval_timer_ptr
000cd5b0 g       *ABS*	00000000 _end
00007adc g     F .text	0000003c alt_up_video_dma_open_dev
00000248 g       *ABS*	00000000 __ram_exceptions_end
00006664 g     F .text	000000f0 altera_avalon_jtag_uart_ioctl
00004ed4 g     F .text	0000012c audio_ISR
08000000 g       *ABS*	00000000 __alt_mem_Onchip_SRAM
00007124 g     F .text	00000068 alt_up_audio_play_l
0000cee4 g     F .text	000000b4 __swrite
000cb5fc g     O .rwdata	00000004 __malloc_trim_threshold
00008700 g     F .text	00000078 alt_up_video_dma_screen_fill
00009cf8 g     F .text	00000048 exit
0000b9bc g     F .text	000000dc _fwalk_reent
00007554 g     F .text	000000c8 alt_up_ps2_init
04000000 g       *ABS*	00000000 __alt_data_end
00000020 g     F .exceptions	00000000 alt_exception
00002a44 g     F .text	00000084 clearChaser
0000b094 g     F .text	00000020 __sfp_lock_release
000cd3d8 g     O .bss	00000001 negX
0000d468 g     F .text	00000034 _exit
00008f3c g     F .text	0000012c alt_alarm_start
0000ba98 g     F .text	0000022c __smakebuf_r
0000774c g     F .text	00000068 alt_up_ps2_wait_for_ack
0000a080 g     F .text	000000f4 strlen
00009664 g     F .text	00000154 open
000059f0 g     F .text	0000003c alt_putchar
000cd3dc g     O .bss	00000004 audioArrayPosition
000cb5c8 g     O .rwdata	00000004 audioArraySize
000093f0 g     F .text	00000034 alt_icache_flush_all
00003498 g     F .text	00000174 restoreSplash
000cb5d8 g     O .rwdata	00000004 alt_priority_mask
0000797c g     F .text	0000008c alt_up_ps2_read_fd
000cd3e0 g     O .bss	00000001 button2Down
00003f38 g     F .text	00000224 displayInstructionsScreen
00004e24 g     F .text	000000b0 randomize_position
00007ec4 g     F .text	0000031c alt_up_video_dma_draw_box
000cb5f4 g     O .rwdata	00000008 alt_alarm_list
000092a0 g     F .text	00000060 _do_ctors
000cd3e2 g     O .bss	00000002 mouseX
000090a4 g     F .text	000000d0 close
000cd3e4 g     O .bss	00000001 negY
000056c4 g     F .text	00000084 alt_load
00006cc0 g     F .text	00000054 alt_up_audio_enable_read_interrupt
000048d8 g     F .text	00000048 get_vel_x
00004420 g     F .text	00000240 check_bounds
0000b0b4 g     F .text	00000020 __sinit_lock_acquire
00007b74 g     F .text	00000060 alt_up_video_dma_ctrl_swap_buffers
00006e18 g     F .text	00000040 alt_up_audio_read_interrupt_pending



Disassembly of section .entry:

00000000 <__reset>:
   0:	00840014 	movui	r2,4096
   4:	1001483a 	initi	r2
   8:	10bff804 	addi	r2,r2,-32
   c:	00bffd16 	blt	zero,r2,4 <__alt_mem_VGA_Subsystem_Char_Buf_Subsystem_Onchip_SRAM+0xf7000004>
  10:	00400034 	movhi	at,0
  14:	08409214 	ori	at,at,584
  18:	0800683a 	jmp	at
  1c:	00000000 	call	0 <__reset>

Disassembly of section .exceptions:

00000020 <alt_exception>:
  20:	deffed04 	addi	sp,sp,-76
  24:	dfc00015 	stw	ra,0(sp)
  28:	d8400215 	stw	at,8(sp)
  2c:	d8800315 	stw	r2,12(sp)
  30:	d8c00415 	stw	r3,16(sp)
  34:	d9000515 	stw	r4,20(sp)
  38:	d9400615 	stw	r5,24(sp)
  3c:	d9800715 	stw	r6,28(sp)
  40:	d9c00815 	stw	r7,32(sp)
  44:	000b307a 	rdctl	r5,estatus
  48:	da000915 	stw	r8,36(sp)
  4c:	da400a15 	stw	r9,40(sp)
  50:	da800b15 	stw	r10,44(sp)
  54:	dac00c15 	stw	r11,48(sp)
  58:	db000d15 	stw	r12,52(sp)
  5c:	db400e15 	stw	r13,56(sp)
  60:	db800f15 	stw	r14,60(sp)
  64:	dbc01015 	stw	r15,64(sp)
  68:	d9401115 	stw	r5,68(sp)
  6c:	ebffff04 	addi	r15,ea,-4
  70:	dbc01215 	stw	r15,72(sp)
  74:	0009313a 	rdctl	r4,ipending
  78:	2880004c 	andi	r2,r5,1
  7c:	10000326 	beq	r2,zero,8c <alt_exception+0x6c>
  80:	20000226 	beq	r4,zero,8c <alt_exception+0x6c>
  84:	00000fc0 	call	fc <alt_irq_handler>
  88:	00000706 	br	a8 <alt_exception+0x88>
  8c:	df401215 	stw	ea,72(sp)
  90:	e8bfff17 	ldw	r2,-4(ea)
  94:	e93fff04 	addi	r4,ea,-4
  98:	00001d40 	call	1d4 <alt_instruction_exception_entry>
  9c:	1000021e 	bne	r2,zero,a8 <alt_exception+0x88>
  a0:	ebffff04 	addi	r15,ea,-4
  a4:	dbc01215 	stw	r15,72(sp)
  a8:	d9401117 	ldw	r5,68(sp)
  ac:	df401217 	ldw	ea,72(sp)
  b0:	dfc00017 	ldw	ra,0(sp)
  b4:	2801707a 	wrctl	estatus,r5
  b8:	d8400217 	ldw	at,8(sp)
  bc:	d8800317 	ldw	r2,12(sp)
  c0:	d8c00417 	ldw	r3,16(sp)
  c4:	d9000517 	ldw	r4,20(sp)
  c8:	d9400617 	ldw	r5,24(sp)
  cc:	d9800717 	ldw	r6,28(sp)
  d0:	d9c00817 	ldw	r7,32(sp)
  d4:	da000917 	ldw	r8,36(sp)
  d8:	da400a17 	ldw	r9,40(sp)
  dc:	da800b17 	ldw	r10,44(sp)
  e0:	dac00c17 	ldw	r11,48(sp)
  e4:	db000d17 	ldw	r12,52(sp)
  e8:	db400e17 	ldw	r13,56(sp)
  ec:	db800f17 	ldw	r14,60(sp)
  f0:	dbc01017 	ldw	r15,64(sp)
  f4:	dec01304 	addi	sp,sp,76
  f8:	ef80083a 	eret

000000fc <alt_irq_handler>:
  fc:	defff904 	addi	sp,sp,-28
 100:	dfc00615 	stw	ra,24(sp)
 104:	df000515 	stw	fp,20(sp)
 108:	df000504 	addi	fp,sp,20
 10c:	0001883a 	nop
 110:	0005313a 	rdctl	r2,ipending
 114:	e0bffe15 	stw	r2,-8(fp)
 118:	e0bffe17 	ldw	r2,-8(fp)
 11c:	e0bffb15 	stw	r2,-20(fp)
 120:	e03ffd15 	stw	zero,-12(fp)
 124:	00800044 	movi	r2,1
 128:	e0bffc15 	stw	r2,-16(fp)
 12c:	e0fffb17 	ldw	r3,-20(fp)
 130:	e0bffc17 	ldw	r2,-16(fp)
 134:	1884703a 	and	r2,r3,r2
 138:	10001526 	beq	r2,zero,190 <alt_irq_handler+0x94>
 13c:	00800374 	movhi	r2,13
 140:	10b52c04 	addi	r2,r2,-11088
 144:	e0fffd17 	ldw	r3,-12(fp)
 148:	180690fa 	slli	r3,r3,3
 14c:	10c5883a 	add	r2,r2,r3
 150:	10c00017 	ldw	r3,0(r2)
 154:	00800374 	movhi	r2,13
 158:	10b52c04 	addi	r2,r2,-11088
 15c:	e13ffd17 	ldw	r4,-12(fp)
 160:	200890fa 	slli	r4,r4,3
 164:	1105883a 	add	r2,r2,r4
 168:	10800104 	addi	r2,r2,4
 16c:	10800017 	ldw	r2,0(r2)
 170:	e17ffd17 	ldw	r5,-12(fp)
 174:	1009883a 	mov	r4,r2
 178:	183ee83a 	callr	r3
 17c:	0001883a 	nop
 180:	0005313a 	rdctl	r2,ipending
 184:	e0bfff15 	stw	r2,-4(fp)
 188:	e0bfff17 	ldw	r2,-4(fp)
 18c:	00000706 	br	1ac <alt_irq_handler+0xb0>
 190:	e0bffc17 	ldw	r2,-16(fp)
 194:	1085883a 	add	r2,r2,r2
 198:	e0bffc15 	stw	r2,-16(fp)
 19c:	e0bffd17 	ldw	r2,-12(fp)
 1a0:	10800044 	addi	r2,r2,1
 1a4:	e0bffd15 	stw	r2,-12(fp)
 1a8:	003fe006 	br	12c <__alt_mem_VGA_Subsystem_Char_Buf_Subsystem_Onchip_SRAM+0xf700012c>
 1ac:	e0bffb15 	stw	r2,-20(fp)
 1b0:	e0bffb17 	ldw	r2,-20(fp)
 1b4:	103fda1e 	bne	r2,zero,120 <__alt_mem_VGA_Subsystem_Char_Buf_Subsystem_Onchip_SRAM+0xf7000120>
 1b8:	0001883a 	nop
 1bc:	0001883a 	nop
 1c0:	e037883a 	mov	sp,fp
 1c4:	dfc00117 	ldw	ra,4(sp)
 1c8:	df000017 	ldw	fp,0(sp)
 1cc:	dec00204 	addi	sp,sp,8
 1d0:	f800283a 	ret

000001d4 <alt_instruction_exception_entry>:
 1d4:	defffb04 	addi	sp,sp,-20
 1d8:	dfc00415 	stw	ra,16(sp)
 1dc:	df000315 	stw	fp,12(sp)
 1e0:	df000304 	addi	fp,sp,12
 1e4:	e13fff15 	stw	r4,-4(fp)
 1e8:	000531fa 	rdctl	r2,exception
 1ec:	e0bffd15 	stw	r2,-12(fp)
 1f0:	e0bffd17 	ldw	r2,-12(fp)
 1f4:	10801f0c 	andi	r2,r2,124
 1f8:	1004d0ba 	srli	r2,r2,2
 1fc:	e0bffd15 	stw	r2,-12(fp)
 200:	0005333a 	rdctl	r2,badaddr
 204:	e0bffe15 	stw	r2,-8(fp)
 208:	d0a79017 	ldw	r2,-25024(gp)
 20c:	10000726 	beq	r2,zero,22c <alt_instruction_exception_entry+0x58>
 210:	d0a79017 	ldw	r2,-25024(gp)
 214:	e0fffd17 	ldw	r3,-12(fp)
 218:	e1bffe17 	ldw	r6,-8(fp)
 21c:	e17fff17 	ldw	r5,-4(fp)
 220:	1809883a 	mov	r4,r3
 224:	103ee83a 	callr	r2
 228:	00000206 	br	234 <alt_instruction_exception_entry+0x60>
 22c:	003da03a 	break	0
 230:	0005883a 	mov	r2,zero
 234:	e037883a 	mov	sp,fp
 238:	dfc00117 	ldw	ra,4(sp)
 23c:	df000017 	ldw	fp,0(sp)
 240:	dec00204 	addi	sp,sp,8
 244:	f800283a 	ret

Disassembly of section .text:

00000248 <_start>:
     248:	06c10034 	movhi	sp,1024
     24c:	dec00014 	ori	sp,sp,0
     250:	06800374 	movhi	gp,13
     254:	d68d7014 	ori	gp,gp,13760
     258:	00800334 	movhi	r2,12
     25c:	10b4e514 	ori	r2,r2,54164
     260:	00c00334 	movhi	r3,12
     264:	18f56c14 	ori	r3,r3,54704
     268:	10c00326 	beq	r2,r3,278 <_start+0x30>
     26c:	10000015 	stw	zero,0(r2)
     270:	10800104 	addi	r2,r2,4
     274:	10fffd36 	bltu	r2,r3,26c <__alt_mem_VGA_Subsystem_Char_Buf_Subsystem_Onchip_SRAM+0xf700026c>
     278:	00056c40 	call	56c4 <alt_load>
     27c:	00057480 	call	5748 <alt_main>

00000280 <alt_after_alt_main>:
     280:	003fff06 	br	280 <__alt_mem_VGA_Subsystem_Char_Buf_Subsystem_Onchip_SRAM+0xf7000280>

00000284 <PS2_ISR>:
     284:	defffb04 	addi	sp,sp,-20
     288:	dfc00415 	stw	ra,16(sp)
     28c:	df000315 	stw	fp,12(sp)
     290:	df000304 	addi	fp,sp,12
     294:	e13ffe15 	stw	r4,-8(fp)
     298:	e17fff15 	stw	r5,-4(fp)
     29c:	e0bffe17 	ldw	r2,-8(fp)
     2a0:	10800017 	ldw	r2,0(r2)
     2a4:	e17ffd04 	addi	r5,fp,-12
     2a8:	1009883a 	mov	r4,r2
     2ac:	00078b40 	call	78b4 <alt_up_ps2_read_data_byte>
     2b0:	10007c1e 	bne	r2,zero,4a4 <PS2_ISR+0x220>
     2b4:	d0a77e17 	ldw	r2,-25096(gp)
     2b8:	10000e0e 	bge	r2,zero,2f4 <PS2_ISR+0x70>
     2bc:	e0bffd03 	ldbu	r2,-12(fp)
     2c0:	10803fcc 	andi	r2,r2,255
     2c4:	1080020c 	andi	r2,r2,8
     2c8:	10000826 	beq	r2,zero,2ec <PS2_ISR+0x68>
     2cc:	e0bffd03 	ldbu	r2,-12(fp)
     2d0:	10803fcc 	andi	r2,r2,255
     2d4:	10803ea0 	cmpeqi	r2,r2,250
     2d8:	1000041e 	bne	r2,zero,2ec <PS2_ISR+0x68>
     2dc:	e0bffd03 	ldbu	r2,-12(fp)
     2e0:	10803fcc 	andi	r2,r2,255
     2e4:	10802a98 	cmpnei	r2,r2,170
     2e8:	1000021e 	bne	r2,zero,2f4 <PS2_ISR+0x70>
     2ec:	d0277b05 	stb	zero,-25108(gp)
     2f0:	00006d06 	br	4a8 <PS2_ISR+0x224>
     2f4:	d0a77e17 	ldw	r2,-25096(gp)
     2f8:	1000060e 	bge	r2,zero,314 <PS2_ISR+0x90>
     2fc:	e0bffd03 	ldbu	r2,-12(fp)
     300:	10803fcc 	andi	r2,r2,255
     304:	1080020c 	andi	r2,r2,8
     308:	10000226 	beq	r2,zero,314 <PS2_ISR+0x90>
     30c:	d0277b05 	stb	zero,-25108(gp)
     310:	d0277e15 	stw	zero,-25096(gp)
     314:	d0a77e17 	ldw	r2,-25096(gp)
     318:	10c00060 	cmpeqi	r3,r2,1
     31c:	18002c1e 	bne	r3,zero,3d0 <PS2_ISR+0x14c>
     320:	10c00088 	cmpgei	r3,r2,2
     324:	1800021e 	bne	r3,zero,330 <PS2_ISR+0xac>
     328:	10000426 	beq	r2,zero,33c <PS2_ISR+0xb8>
     32c:	00005306 	br	47c <PS2_ISR+0x1f8>
     330:	108000a0 	cmpeqi	r2,r2,2
     334:	1000391e 	bne	r2,zero,41c <PS2_ISR+0x198>
     338:	00005006 	br	47c <PS2_ISR+0x1f8>
     33c:	e0bffd03 	ldbu	r2,-12(fp)
     340:	10803fcc 	andi	r2,r2,255
     344:	1080020c 	andi	r2,r2,8
     348:	10001e26 	beq	r2,zero,3c4 <PS2_ISR+0x140>
     34c:	e0bffd03 	ldbu	r2,-12(fp)
     350:	d0a77bc5 	stb	r2,-25105(gp)
     354:	e0bffd03 	ldbu	r2,-12(fp)
     358:	10803fcc 	andi	r2,r2,255
     35c:	1080004c 	andi	r2,r2,1
     360:	1004c03a 	cmpne	r2,r2,zero
     364:	d0a77f85 	stb	r2,-25090(gp)
     368:	e0bffd03 	ldbu	r2,-12(fp)
     36c:	10803fcc 	andi	r2,r2,255
     370:	1080008c 	andi	r2,r2,2
     374:	1004c03a 	cmpne	r2,r2,zero
     378:	d0a78805 	stb	r2,-25056(gp)
     37c:	e0bffd03 	ldbu	r2,-12(fp)
     380:	10803fcc 	andi	r2,r2,255
     384:	1080010c 	andi	r2,r2,4
     388:	1004c03a 	cmpne	r2,r2,zero
     38c:	d0a78105 	stb	r2,-25084(gp)
     390:	e0fffd03 	ldbu	r3,-12(fp)
     394:	d0a00103 	ldbu	r2,-32764(gp)
     398:	1884703a 	and	r2,r3,r2
     39c:	10803fcc 	andi	r2,r2,255
     3a0:	1004c03a 	cmpne	r2,r2,zero
     3a4:	d0a78605 	stb	r2,-25064(gp)
     3a8:	e0fffd03 	ldbu	r3,-12(fp)
     3ac:	d0a00143 	ldbu	r2,-32763(gp)
     3b0:	1884703a 	and	r2,r3,r2
     3b4:	10803fcc 	andi	r2,r2,255
     3b8:	1004c03a 	cmpne	r2,r2,zero
     3bc:	d0a78905 	stb	r2,-25052(gp)
     3c0:	00002e06 	br	47c <PS2_ISR+0x1f8>
     3c4:	00bfffc4 	movi	r2,-1
     3c8:	d0a77e15 	stw	r2,-25096(gp)
     3cc:	00003606 	br	4a8 <PS2_ISR+0x224>
     3d0:	e0bffd03 	ldbu	r2,-12(fp)
     3d4:	d0a77b45 	stb	r2,-25107(gp)
     3d8:	d0a77bc3 	ldbu	r2,-25105(gp)
     3dc:	10803fcc 	andi	r2,r2,255
     3e0:	1080100c 	andi	r2,r2,64
     3e4:	1000221e 	bne	r2,zero,470 <PS2_ISR+0x1ec>
     3e8:	d0a78603 	ldbu	r2,-25064(gp)
     3ec:	10803fcc 	andi	r2,r2,255
     3f0:	10000626 	beq	r2,zero,40c <PS2_ISR+0x188>
     3f4:	e0bffd03 	ldbu	r2,-12(fp)
     3f8:	10c03fcc 	andi	r3,r2,255
     3fc:	00bfc004 	movi	r2,-256
     400:	1884b03a 	or	r2,r3,r2
     404:	d0a7888d 	sth	r2,-25054(gp)
     408:	00001906 	br	470 <PS2_ISR+0x1ec>
     40c:	e0bffd03 	ldbu	r2,-12(fp)
     410:	10803fcc 	andi	r2,r2,255
     414:	d0a7888d 	sth	r2,-25054(gp)
     418:	00001506 	br	470 <PS2_ISR+0x1ec>
     41c:	e0bffd03 	ldbu	r2,-12(fp)
     420:	d0a77b85 	stb	r2,-25106(gp)
     424:	d0a77bc3 	ldbu	r2,-25105(gp)
     428:	10803fcc 	andi	r2,r2,255
     42c:	1080100c 	andi	r2,r2,64
     430:	1000111e 	bne	r2,zero,478 <PS2_ISR+0x1f4>
     434:	d0a78903 	ldbu	r2,-25052(gp)
     438:	10803fcc 	andi	r2,r2,255
     43c:	10000726 	beq	r2,zero,45c <PS2_ISR+0x1d8>
     440:	e0bffd03 	ldbu	r2,-12(fp)
     444:	10c03fcc 	andi	r3,r2,255
     448:	00bfc004 	movi	r2,-256
     44c:	1884b03a 	or	r2,r3,r2
     450:	0085c83a 	sub	r2,zero,r2
     454:	d0a77f0d 	sth	r2,-25092(gp)
     458:	00000706 	br	478 <PS2_ISR+0x1f4>
     45c:	e0bffd03 	ldbu	r2,-12(fp)
     460:	10803fcc 	andi	r2,r2,255
     464:	0085c83a 	sub	r2,zero,r2
     468:	d0a77f0d 	sth	r2,-25092(gp)
     46c:	00000206 	br	478 <PS2_ISR+0x1f4>
     470:	0001883a 	nop
     474:	00000106 	br	47c <PS2_ISR+0x1f8>
     478:	0001883a 	nop
     47c:	d0a77e17 	ldw	r2,-25096(gp)
     480:	10800044 	addi	r2,r2,1
     484:	d0a77e15 	stw	r2,-25096(gp)
     488:	d0e77e17 	ldw	r3,-25096(gp)
     48c:	d0a78017 	ldw	r2,-25088(gp)
     490:	18800416 	blt	r3,r2,4a4 <PS2_ISR+0x220>
     494:	00800044 	movi	r2,1
     498:	d0a77b05 	stb	r2,-25108(gp)
     49c:	d0277e15 	stw	zero,-25096(gp)
     4a0:	0001883a 	nop
     4a4:	0001883a 	nop
     4a8:	e037883a 	mov	sp,fp
     4ac:	dfc00117 	ldw	ra,4(sp)
     4b0:	df000017 	ldw	fp,0(sp)
     4b4:	dec00204 	addi	sp,sp,8
     4b8:	f800283a 	ret

000004bc <main>:
     4bc:	defffe04 	addi	sp,sp,-8
     4c0:	dfc00115 	stw	ra,4(sp)
     4c4:	df000015 	stw	fp,0(sp)
     4c8:	d839883a 	mov	fp,sp
     4cc:	023ffef4 	movhi	r8,65531
     4d0:	4200ef04 	addi	r8,r8,956
     4d4:	da37883a 	add	sp,sp,r8
     4d8:	d0a78717 	ldw	r2,-25060(gp)
     4dc:	10000015 	stw	zero,0(r2)
     4e0:	00bfc834 	movhi	r2,65312
     4e4:	10880004 	addi	r2,r2,8192
     4e8:	d0a78515 	stw	r2,-25068(gp)
     4ec:	d0a78517 	ldw	r2,-25068(gp)
     4f0:	10000015 	stw	zero,0(r2)
     4f4:	00bffef4 	movhi	r2,65531
     4f8:	1080f304 	addi	r2,r2,972
     4fc:	1705883a 	add	r2,r2,fp
     500:	10000005 	stb	zero,0(r2)
     504:	00800044 	movi	r2,1
     508:	00fffef4 	movhi	r3,65531
     50c:	18c0f344 	addi	r3,r3,973
     510:	1f07883a 	add	r3,r3,fp
     514:	18800005 	stb	r2,0(r3)
     518:	013ffef4 	movhi	r4,65531
     51c:	2100f384 	addi	r4,r4,974
     520:	2709883a 	add	r4,r4,fp
     524:	20000005 	stb	zero,0(r4)
     528:	00800174 	movhi	r2,5
     52c:	10bee604 	addi	r2,r2,-1128
     530:	017ffef4 	movhi	r5,65531
     534:	2940f304 	addi	r5,r5,972
     538:	2f0b883a 	add	r5,r5,fp
     53c:	2885883a 	add	r2,r5,r2
     540:	00c00d84 	movi	r3,54
     544:	10c00015 	stw	r3,0(r2)
     548:	00800174 	movhi	r2,5
     54c:	10bee604 	addi	r2,r2,-1128
     550:	01fffef4 	movhi	r7,65531
     554:	39c0f304 	addi	r7,r7,972
     558:	3f0f883a 	add	r7,r7,fp
     55c:	3885883a 	add	r2,r7,r2
     560:	00c01a84 	movi	r3,106
     564:	10c00115 	stw	r3,4(r2)
     568:	00800174 	movhi	r2,5
     56c:	10bee804 	addi	r2,r2,-1120
     570:	00fffef4 	movhi	r3,65531
     574:	18c0f304 	addi	r3,r3,972
     578:	1f07883a 	add	r3,r3,fp
     57c:	1885883a 	add	r2,r3,r2
     580:	00c02784 	movi	r3,158
     584:	10c00015 	stw	r3,0(r2)
     588:	00800174 	movhi	r2,5
     58c:	10bee804 	addi	r2,r2,-1120
     590:	013ffef4 	movhi	r4,65531
     594:	2100f304 	addi	r4,r4,972
     598:	2709883a 	add	r4,r4,fp
     59c:	2085883a 	add	r2,r4,r2
     5a0:	00c02044 	movi	r3,129
     5a4:	10c00115 	stw	r3,4(r2)
     5a8:	00800174 	movhi	r2,5
     5ac:	10beea04 	addi	r2,r2,-1112
     5b0:	017ffef4 	movhi	r5,65531
     5b4:	2940f304 	addi	r5,r5,972
     5b8:	2f0b883a 	add	r5,r5,fp
     5bc:	2885883a 	add	r2,r5,r2
     5c0:	00c02cc4 	movi	r3,179
     5c4:	10c00015 	stw	r3,0(r2)
     5c8:	00800174 	movhi	r2,5
     5cc:	10beea04 	addi	r2,r2,-1112
     5d0:	01fffef4 	movhi	r7,65531
     5d4:	39c0f304 	addi	r7,r7,972
     5d8:	3f0f883a 	add	r7,r7,fp
     5dc:	3885883a 	add	r2,r7,r2
     5e0:	00c01a84 	movi	r3,106
     5e4:	10c00115 	stw	r3,4(r2)
     5e8:	00800174 	movhi	r2,5
     5ec:	10beec04 	addi	r2,r2,-1104
     5f0:	00fffef4 	movhi	r3,65531
     5f4:	18c0f304 	addi	r3,r3,972
     5f8:	1f07883a 	add	r3,r3,fp
     5fc:	1885883a 	add	r2,r3,r2
     600:	00c04644 	movi	r3,281
     604:	10c00015 	stw	r3,0(r2)
     608:	00800174 	movhi	r2,5
     60c:	10beec04 	addi	r2,r2,-1104
     610:	013ffef4 	movhi	r4,65531
     614:	2100f304 	addi	r4,r4,972
     618:	2709883a 	add	r4,r4,fp
     61c:	2085883a 	add	r2,r4,r2
     620:	00c02044 	movi	r3,129
     624:	10c00115 	stw	r3,4(r2)
     628:	00800174 	movhi	r2,5
     62c:	10beee04 	addi	r2,r2,-1096
     630:	017ffef4 	movhi	r5,65531
     634:	2940f304 	addi	r5,r5,972
     638:	2f0b883a 	add	r5,r5,fp
     63c:	2885883a 	add	r2,r5,r2
     640:	00c00dc4 	movi	r3,55
     644:	10c00015 	stw	r3,0(r2)
     648:	00800174 	movhi	r2,5
     64c:	10beee04 	addi	r2,r2,-1096
     650:	01fffef4 	movhi	r7,65531
     654:	39c0f304 	addi	r7,r7,972
     658:	3f0f883a 	add	r7,r7,fp
     65c:	3885883a 	add	r2,r7,r2
     660:	00c02344 	movi	r3,141
     664:	10c00115 	stw	r3,4(r2)
     668:	00800174 	movhi	r2,5
     66c:	10bef004 	addi	r2,r2,-1088
     670:	00fffef4 	movhi	r3,65531
     674:	18c0f304 	addi	r3,r3,972
     678:	1f07883a 	add	r3,r3,fp
     67c:	1885883a 	add	r2,r3,r2
     680:	00c02784 	movi	r3,158
     684:	10c00015 	stw	r3,0(r2)
     688:	00800174 	movhi	r2,5
     68c:	10bef004 	addi	r2,r2,-1088
     690:	013ffef4 	movhi	r4,65531
     694:	2100f304 	addi	r4,r4,972
     698:	2709883a 	add	r4,r4,fp
     69c:	2085883a 	add	r2,r4,r2
     6a0:	00c02904 	movi	r3,164
     6a4:	10c00115 	stw	r3,4(r2)
     6a8:	00800174 	movhi	r2,5
     6ac:	10bef204 	addi	r2,r2,-1080
     6b0:	017ffef4 	movhi	r5,65531
     6b4:	2940f304 	addi	r5,r5,972
     6b8:	2f0b883a 	add	r5,r5,fp
     6bc:	2885883a 	add	r2,r5,r2
     6c0:	00c02cc4 	movi	r3,179
     6c4:	10c00015 	stw	r3,0(r2)
     6c8:	00800174 	movhi	r2,5
     6cc:	10bef204 	addi	r2,r2,-1080
     6d0:	01fffef4 	movhi	r7,65531
     6d4:	39c0f304 	addi	r7,r7,972
     6d8:	3f0f883a 	add	r7,r7,fp
     6dc:	3885883a 	add	r2,r7,r2
     6e0:	00c022c4 	movi	r3,139
     6e4:	10c00115 	stw	r3,4(r2)
     6e8:	00800174 	movhi	r2,5
     6ec:	10bef404 	addi	r2,r2,-1072
     6f0:	00fffef4 	movhi	r3,65531
     6f4:	18c0f304 	addi	r3,r3,972
     6f8:	1f07883a 	add	r3,r3,fp
     6fc:	1885883a 	add	r2,r3,r2
     700:	00c04644 	movi	r3,281
     704:	10c00015 	stw	r3,0(r2)
     708:	00800174 	movhi	r2,5
     70c:	10bef404 	addi	r2,r2,-1072
     710:	013ffef4 	movhi	r4,65531
     714:	2100f304 	addi	r4,r4,972
     718:	2709883a 	add	r4,r4,fp
     71c:	2085883a 	add	r2,r4,r2
     720:	00c02904 	movi	r3,164
     724:	10c00115 	stw	r3,4(r2)
     728:	00800174 	movhi	r2,5
     72c:	10bef604 	addi	r2,r2,-1064
     730:	017ffef4 	movhi	r5,65531
     734:	2940f304 	addi	r5,r5,972
     738:	2f0b883a 	add	r5,r5,fp
     73c:	2885883a 	add	r2,r5,r2
     740:	00c04984 	movi	r3,294
     744:	10c00015 	stw	r3,0(r2)
     748:	00800174 	movhi	r2,5
     74c:	10bef604 	addi	r2,r2,-1064
     750:	01fffef4 	movhi	r7,65531
     754:	39c0f304 	addi	r7,r7,972
     758:	3f0f883a 	add	r7,r7,fp
     75c:	3885883a 	add	r2,r7,r2
     760:	10000115 	stw	zero,4(r2)
     764:	00800174 	movhi	r2,5
     768:	10bef804 	addi	r2,r2,-1056
     76c:	00fffef4 	movhi	r3,65531
     770:	18c0f304 	addi	r3,r3,972
     774:	1f07883a 	add	r3,r3,fp
     778:	1885883a 	add	r2,r3,r2
     77c:	00c04fc4 	movi	r3,319
     780:	10c00015 	stw	r3,0(r2)
     784:	00800174 	movhi	r2,5
     788:	10bef804 	addi	r2,r2,-1056
     78c:	013ffef4 	movhi	r4,65531
     790:	2100f304 	addi	r4,r4,972
     794:	2709883a 	add	r4,r4,fp
     798:	2085883a 	add	r2,r4,r2
     79c:	00c00484 	movi	r3,18
     7a0:	10c00115 	stw	r3,4(r2)
     7a4:	00800174 	movhi	r2,5
     7a8:	10befa04 	addi	r2,r2,-1048
     7ac:	017ffef4 	movhi	r5,65531
     7b0:	2940f304 	addi	r5,r5,972
     7b4:	2f0b883a 	add	r5,r5,fp
     7b8:	2885883a 	add	r2,r5,r2
     7bc:	00c04984 	movi	r3,294
     7c0:	10c00015 	stw	r3,0(r2)
     7c4:	00800174 	movhi	r2,5
     7c8:	10befa04 	addi	r2,r2,-1048
     7cc:	01fffef4 	movhi	r7,65531
     7d0:	39c0f304 	addi	r7,r7,972
     7d4:	3f0f883a 	add	r7,r7,fp
     7d8:	3885883a 	add	r2,r7,r2
     7dc:	00c00484 	movi	r3,18
     7e0:	10c00115 	stw	r3,4(r2)
     7e4:	00800174 	movhi	r2,5
     7e8:	10befc04 	addi	r2,r2,-1040
     7ec:	00fffef4 	movhi	r3,65531
     7f0:	18c0f304 	addi	r3,r3,972
     7f4:	1f07883a 	add	r3,r3,fp
     7f8:	1885883a 	add	r2,r3,r2
     7fc:	00c04fc4 	movi	r3,319
     800:	10c00015 	stw	r3,0(r2)
     804:	00800174 	movhi	r2,5
     808:	10befc04 	addi	r2,r2,-1040
     80c:	013ffef4 	movhi	r4,65531
     810:	2100f304 	addi	r4,r4,972
     814:	2709883a 	add	r4,r4,fp
     818:	2085883a 	add	r2,r4,r2
     81c:	00c00904 	movi	r3,36
     820:	10c00115 	stw	r3,4(r2)
     824:	00800174 	movhi	r2,5
     828:	10befe04 	addi	r2,r2,-1032
     82c:	017ffef4 	movhi	r5,65531
     830:	2940f304 	addi	r5,r5,972
     834:	2f0b883a 	add	r5,r5,fp
     838:	2885883a 	add	r2,r5,r2
     83c:	10000015 	stw	zero,0(r2)
     840:	10000115 	stw	zero,4(r2)
     844:	00800174 	movhi	r2,5
     848:	10bf0004 	addi	r2,r2,-1024
     84c:	01fffef4 	movhi	r7,65531
     850:	39c0f304 	addi	r7,r7,972
     854:	3f0f883a 	add	r7,r7,fp
     858:	3885883a 	add	r2,r7,r2
     85c:	10000015 	stw	zero,0(r2)
     860:	10000115 	stw	zero,4(r2)
     864:	00800174 	movhi	r2,5
     868:	10bf0204 	addi	r2,r2,-1016
     86c:	00fffef4 	movhi	r3,65531
     870:	18c0f304 	addi	r3,r3,972
     874:	1f07883a 	add	r3,r3,fp
     878:	1885883a 	add	r2,r3,r2
     87c:	10000015 	stw	zero,0(r2)
     880:	10000115 	stw	zero,4(r2)
     884:	013ffef4 	movhi	r4,65531
     888:	2100f404 	addi	r4,r4,976
     88c:	2709883a 	add	r4,r4,fp
     890:	20000015 	stw	zero,0(r4)
     894:	017ffef4 	movhi	r5,65531
     898:	2940fb04 	addi	r5,r5,1004
     89c:	2f0b883a 	add	r5,r5,fp
     8a0:	28000015 	stw	zero,0(r5)
     8a4:	00801904 	movi	r2,100
     8a8:	01fffef4 	movhi	r7,65531
     8ac:	39c0fc04 	addi	r7,r7,1008
     8b0:	3f0f883a 	add	r7,r7,fp
     8b4:	38800015 	stw	r2,0(r7)
     8b8:	d0278315 	stw	zero,-25076(gp)
     8bc:	00800044 	movi	r2,1
     8c0:	d0a77a15 	stw	r2,-25112(gp)
     8c4:	00800044 	movi	r2,1
     8c8:	d0a00315 	stw	r2,-32756(gp)
     8cc:	00800174 	movhi	r2,5
     8d0:	10bf0404 	addi	r2,r2,-1008
     8d4:	00fffef4 	movhi	r3,65531
     8d8:	18c0f304 	addi	r3,r3,972
     8dc:	1f07883a 	add	r3,r3,fp
     8e0:	1885883a 	add	r2,r3,r2
     8e4:	10000015 	stw	zero,0(r2)
     8e8:	00800174 	movhi	r2,5
     8ec:	10bf0504 	addi	r2,r2,-1004
     8f0:	013ffef4 	movhi	r4,65531
     8f4:	2100f304 	addi	r4,r4,972
     8f8:	2709883a 	add	r4,r4,fp
     8fc:	2087883a 	add	r3,r4,r2
     900:	00804034 	movhi	r2,256
     904:	10bfffc4 	addi	r2,r2,-1
     908:	18800015 	stw	r2,0(r3)
     90c:	00800174 	movhi	r2,5
     910:	10bf0604 	addi	r2,r2,-1000
     914:	017ffef4 	movhi	r5,65531
     918:	2940f304 	addi	r5,r5,972
     91c:	2f0b883a 	add	r5,r5,fp
     920:	2885883a 	add	r2,r5,r2
     924:	00c03ff4 	movhi	r3,255
     928:	10c00015 	stw	r3,0(r2)
     92c:	00800174 	movhi	r2,5
     930:	10bf0704 	addi	r2,r2,-996
     934:	01fffef4 	movhi	r7,65531
     938:	39c0f304 	addi	r7,r7,972
     93c:	3f0f883a 	add	r7,r7,fp
     940:	3885883a 	add	r2,r7,r2
     944:	00ffc014 	movui	r3,65280
     948:	10c00015 	stw	r3,0(r2)
     94c:	00800174 	movhi	r2,5
     950:	10bf0804 	addi	r2,r2,-992
     954:	00fffef4 	movhi	r3,65531
     958:	18c0f304 	addi	r3,r3,972
     95c:	1f07883a 	add	r3,r3,fp
     960:	1885883a 	add	r2,r3,r2
     964:	00dc7144 	movi	r3,29125
     968:	10c00015 	stw	r3,0(r2)
     96c:	d0277bc5 	stb	zero,-25105(gp)
     970:	d0277b45 	stb	zero,-25107(gp)
     974:	d0277b85 	stb	zero,-25106(gp)
     978:	d0278215 	stw	zero,-25080(gp)
     97c:	00bfffc4 	movi	r2,-1
     980:	d0a77e15 	stw	r2,-25096(gp)
     984:	d0277f85 	stb	zero,-25090(gp)
     988:	d0278805 	stb	zero,-25056(gp)
     98c:	008000c4 	movi	r2,3
     990:	d0a78015 	stw	r2,-25088(gp)
     994:	d0277b05 	stb	zero,-25108(gp)
     998:	0002a440 	call	2a44 <clearChaser>
     99c:	00800f74 	movhi	r2,61
     9a0:	10824004 	addi	r2,r2,2304
     9a4:	013ffef4 	movhi	r4,65531
     9a8:	2100fd04 	addi	r4,r4,1012
     9ac:	2709883a 	add	r4,r4,fp
     9b0:	20800015 	stw	r2,0(r4)
     9b4:	d0a78517 	ldw	r2,-25068(gp)
     9b8:	10800204 	addi	r2,r2,8
     9bc:	017ffef4 	movhi	r5,65531
     9c0:	2940fd04 	addi	r5,r5,1012
     9c4:	2f0b883a 	add	r5,r5,fp
     9c8:	28c00017 	ldw	r3,0(r5)
     9cc:	18ffffcc 	andi	r3,r3,65535
     9d0:	10c00015 	stw	r3,0(r2)
     9d4:	d0a78517 	ldw	r2,-25068(gp)
     9d8:	10800304 	addi	r2,r2,12
     9dc:	01fffef4 	movhi	r7,65531
     9e0:	39c0fd04 	addi	r7,r7,1012
     9e4:	3f0f883a 	add	r7,r7,fp
     9e8:	38c00017 	ldw	r3,0(r7)
     9ec:	1806d43a 	srli	r3,r3,16
     9f0:	10c00015 	stw	r3,0(r2)
     9f4:	00fffef4 	movhi	r3,65531
     9f8:	18c11504 	addi	r3,r3,1108
     9fc:	e0c5883a 	add	r2,fp,r3
     a00:	013ffef4 	movhi	r4,65531
     a04:	2100fe04 	addi	r4,r4,1016
     a08:	2709883a 	add	r4,r4,fp
     a0c:	20800015 	stw	r2,0(r4)
     a10:	017ffef4 	movhi	r5,65531
     a14:	2940fe04 	addi	r5,r5,1016
     a18:	2f0b883a 	add	r5,r5,fp
     a1c:	29000017 	ldw	r4,0(r5)
     a20:	00037dc0 	call	37dc <openPS2Device>
     a24:	10000226 	beq	r2,zero,a30 <main+0x574>
     a28:	00bfffc4 	movi	r2,-1
     a2c:	00080006 	br	2a30 <main+0x2574>
     a30:	01800034 	movhi	r6,0
     a34:	31940004 	addi	r6,r6,20480
     a38:	d1677c04 	addi	r5,gp,-25104
     a3c:	0009883a 	mov	r4,zero
     a40:	00054dc0 	call	54dc <alt_irq_register>
     a44:	01800034 	movhi	r6,0
     a48:	3193b504 	addi	r6,r6,20180
     a4c:	d1677c04 	addi	r5,gp,-25104
     a50:	01000184 	movi	r4,6
     a54:	00054dc0 	call	54dc <alt_irq_register>
     a58:	01800034 	movhi	r6,0
     a5c:	3180a104 	addi	r6,r6,644
     a60:	d1677c04 	addi	r5,gp,-25104
     a64:	010001c4 	movi	r4,7
     a68:	00054dc0 	call	54dc <alt_irq_register>
     a6c:	d0a78517 	ldw	r2,-25068(gp)
     a70:	10800104 	addi	r2,r2,4
     a74:	00c001c4 	movi	r3,7
     a78:	10c00015 	stw	r3,0(r2)
     a7c:	01fffef4 	movhi	r7,65531
     a80:	39c11604 	addi	r7,r7,1112
     a84:	e1c5883a 	add	r2,fp,r7
     a88:	00fffef4 	movhi	r3,65531
     a8c:	18c0ff04 	addi	r3,r3,1020
     a90:	1f07883a 	add	r3,r3,fp
     a94:	18800015 	stw	r2,0(r3)
     a98:	017ffef4 	movhi	r5,65531
     a9c:	2940ff04 	addi	r5,r5,1020
     aa0:	2f0b883a 	add	r5,r5,fp
     aa4:	29000017 	ldw	r4,0(r5)
     aa8:	00038ac0 	call	38ac <openAudioDevice>
     aac:	10000226 	beq	r2,zero,ab8 <main+0x5fc>
     ab0:	00bfffc4 	movi	r2,-1
     ab4:	0007de06 	br	2a30 <main+0x2574>
     ab8:	d0a77d17 	ldw	r2,-25100(gp)
     abc:	1009883a 	mov	r4,r2
     ac0:	0006d6c0 	call	6d6c <alt_up_audio_enable_write_interrupt>
     ac4:	01fffef4 	movhi	r7,65531
     ac8:	39c11704 	addi	r7,r7,1116
     acc:	e1c5883a 	add	r2,fp,r7
     ad0:	00fffef4 	movhi	r3,65531
     ad4:	18c10004 	addi	r3,r3,1024
     ad8:	1f07883a 	add	r3,r3,fp
     adc:	18800015 	stw	r2,0(r3)
     ae0:	017ffef4 	movhi	r5,65531
     ae4:	29410004 	addi	r5,r5,1024
     ae8:	2f0b883a 	add	r5,r5,fp
     aec:	29000017 	ldw	r4,0(r5)
     af0:	0003c080 	call	3c08 <openPixelDMA>
     af4:	10000226 	beq	r2,zero,b00 <main+0x644>
     af8:	00bfffc4 	movi	r2,-1
     afc:	0007cc06 	br	2a30 <main+0x2574>
     b00:	01fffef4 	movhi	r7,65531
     b04:	39c11704 	addi	r7,r7,1116
     b08:	3f0f883a 	add	r7,r7,fp
     b0c:	38800017 	ldw	r2,0(r7)
     b10:	1009883a 	mov	r4,r2
     b14:	0003ce80 	call	3ce8 <assignPixelBuffers>
     b18:	00fffef4 	movhi	r3,65531
     b1c:	18c11804 	addi	r3,r3,1120
     b20:	e0c5883a 	add	r2,fp,r3
     b24:	013ffef4 	movhi	r4,65531
     b28:	21010104 	addi	r4,r4,1028
     b2c:	2709883a 	add	r4,r4,fp
     b30:	20800015 	stw	r2,0(r4)
     b34:	017ffef4 	movhi	r5,65531
     b38:	29410104 	addi	r5,r5,1028
     b3c:	2f0b883a 	add	r5,r5,fp
     b40:	29000017 	ldw	r4,0(r5)
     b44:	0003c780 	call	3c78 <openCharDMA>
     b48:	10000226 	beq	r2,zero,b54 <main+0x698>
     b4c:	00bfffc4 	movi	r2,-1
     b50:	0007b706 	br	2a30 <main+0x2574>
     b54:	01fffef4 	movhi	r7,65531
     b58:	39c11804 	addi	r7,r7,1120
     b5c:	3f0f883a 	add	r7,r7,fp
     b60:	38800017 	ldw	r2,0(r7)
     b64:	1009883a 	mov	r4,r2
     b68:	0003d500 	call	3d50 <assignCharBuffers>
     b6c:	00fffef4 	movhi	r3,65531
     b70:	18c11704 	addi	r3,r3,1116
     b74:	1f07883a 	add	r3,r3,fp
     b78:	18800017 	ldw	r2,0(r3)
     b7c:	01800074 	movhi	r6,1
     b80:	31b6b704 	addi	r6,r6,-9508
     b84:	01400044 	movi	r5,1
     b88:	1009883a 	mov	r4,r2
     b8c:	0003dc40 	call	3dc4 <initSplash>
     b90:	008000b4 	movhi	r2,2
     b94:	10962604 	addi	r2,r2,22680
     b98:	013ffef4 	movhi	r4,65531
     b9c:	2100f304 	addi	r4,r4,972
     ba0:	2709883a 	add	r4,r4,fp
     ba4:	2087883a 	add	r3,r4,r2
     ba8:	017ffef4 	movhi	r5,65531
     bac:	29411904 	addi	r5,r5,1124
     bb0:	e145883a 	add	r2,fp,r5
     bb4:	180b883a 	mov	r5,r3
     bb8:	1009883a 	mov	r4,r2
     bbc:	0002e480 	call	2e48 <binRandS>
     bc0:	00800174 	movhi	r2,5
     bc4:	10b58604 	addi	r2,r2,-10728
     bc8:	01fffef4 	movhi	r7,65531
     bcc:	39c0f304 	addi	r7,r7,972
     bd0:	3f0f883a 	add	r7,r7,fp
     bd4:	3887883a 	add	r3,r7,r2
     bd8:	00800174 	movhi	r2,5
     bdc:	10ac2604 	addi	r2,r2,-20328
     be0:	013ffef4 	movhi	r4,65531
     be4:	2100f304 	addi	r4,r4,972
     be8:	2709883a 	add	r4,r4,fp
     bec:	2085883a 	add	r2,r4,r2
     bf0:	180b883a 	mov	r5,r3
     bf4:	1009883a 	mov	r4,r2
     bf8:	00030440 	call	3044 <charRandS>
     bfc:	017ffef4 	movhi	r5,65531
     c00:	29411704 	addi	r5,r5,1116
     c04:	2f0b883a 	add	r5,r5,fp
     c08:	28c00017 	ldw	r3,0(r5)
     c0c:	00800174 	movhi	r2,5
     c10:	10bf0804 	addi	r2,r2,-992
     c14:	01fffef4 	movhi	r7,65531
     c18:	39c0f304 	addi	r7,r7,972
     c1c:	3f0f883a 	add	r7,r7,fp
     c20:	388d883a 	add	r6,r7,r2
     c24:	00800174 	movhi	r2,5
     c28:	10bf0504 	addi	r2,r2,-1004
     c2c:	013ffef4 	movhi	r4,65531
     c30:	2100f304 	addi	r4,r4,972
     c34:	2709883a 	add	r4,r4,fp
     c38:	208b883a 	add	r5,r4,r2
     c3c:	00800174 	movhi	r2,5
     c40:	10bf0404 	addi	r2,r2,-1008
     c44:	01fffef4 	movhi	r7,65531
     c48:	39c0f304 	addi	r7,r7,972
     c4c:	3f0f883a 	add	r7,r7,fp
     c50:	3889883a 	add	r4,r7,r2
     c54:	00800174 	movhi	r2,5
     c58:	10bf0704 	addi	r2,r2,-996
     c5c:	01fffef4 	movhi	r7,65531
     c60:	39c0f304 	addi	r7,r7,972
     c64:	3f0f883a 	add	r7,r7,fp
     c68:	3885883a 	add	r2,r7,r2
     c6c:	d8800115 	stw	r2,4(sp)
     c70:	00800174 	movhi	r2,5
     c74:	10bf0604 	addi	r2,r2,-1000
     c78:	01fffef4 	movhi	r7,65531
     c7c:	39c0f304 	addi	r7,r7,972
     c80:	3f0f883a 	add	r7,r7,fp
     c84:	3885883a 	add	r2,r7,r2
     c88:	d8800015 	stw	r2,0(sp)
     c8c:	300f883a 	mov	r7,r6
     c90:	280d883a 	mov	r6,r5
     c94:	200b883a 	mov	r5,r4
     c98:	1809883a 	mov	r4,r3
     c9c:	00039340 	call	3934 <resampleColours>
     ca0:	00bffef4 	movhi	r2,65531
     ca4:	10811704 	addi	r2,r2,1116
     ca8:	1705883a 	add	r2,r2,fp
     cac:	10c00017 	ldw	r3,0(r2)
     cb0:	00800174 	movhi	r2,5
     cb4:	10bf0604 	addi	r2,r2,-1000
     cb8:	013ffef4 	movhi	r4,65531
     cbc:	2100f304 	addi	r4,r4,972
     cc0:	2709883a 	add	r4,r4,fp
     cc4:	2085883a 	add	r2,r4,r2
     cc8:	11000017 	ldw	r4,0(r2)
     ccc:	00800174 	movhi	r2,5
     cd0:	10bf0004 	addi	r2,r2,-1024
     cd4:	017ffef4 	movhi	r5,65531
     cd8:	2940f304 	addi	r5,r5,972
     cdc:	2f0b883a 	add	r5,r5,fp
     ce0:	288d883a 	add	r6,r5,r2
     ce4:	00800174 	movhi	r2,5
     ce8:	10befe04 	addi	r2,r2,-1032
     cec:	01fffef4 	movhi	r7,65531
     cf0:	39c0f304 	addi	r7,r7,972
     cf4:	3f0f883a 	add	r7,r7,fp
     cf8:	388b883a 	add	r5,r7,r2
     cfc:	00800044 	movi	r2,1
     d00:	d8800115 	stw	r2,4(sp)
     d04:	00800174 	movhi	r2,5
     d08:	10bf0204 	addi	r2,r2,-1016
     d0c:	01fffef4 	movhi	r7,65531
     d10:	39c0f304 	addi	r7,r7,972
     d14:	3f0f883a 	add	r7,r7,fp
     d18:	3885883a 	add	r2,r7,r2
     d1c:	d8800015 	stw	r2,0(sp)
     d20:	300f883a 	mov	r7,r6
     d24:	280d883a 	mov	r6,r5
     d28:	200b883a 	mov	r5,r4
     d2c:	1809883a 	mov	r4,r3
     d30:	0003e300 	call	3e30 <initMouse>
     d34:	00bffef4 	movhi	r2,65531
     d38:	1080f404 	addi	r2,r2,976
     d3c:	1705883a 	add	r2,r2,fp
     d40:	11000017 	ldw	r4,0(r2)
     d44:	0002ac80 	call	2ac8 <dispScore>
     d48:	00fffef4 	movhi	r3,65531
     d4c:	18c0f504 	addi	r3,r3,980
     d50:	1f07883a 	add	r3,r3,fp
     d54:	18000015 	stw	zero,0(r3)
     d58:	00800174 	movhi	r2,5
     d5c:	10bf0904 	addi	r2,r2,-988
     d60:	013ffef4 	movhi	r4,65531
     d64:	2100f304 	addi	r4,r4,972
     d68:	2709883a 	add	r4,r4,fp
     d6c:	2085883a 	add	r2,r4,r2
     d70:	00d09c34 	movhi	r3,17008
     d74:	10c00015 	stw	r3,0(r2)
     d78:	00800174 	movhi	r2,5
     d7c:	10bf0904 	addi	r2,r2,-988
     d80:	017ffef4 	movhi	r5,65531
     d84:	2940f304 	addi	r5,r5,972
     d88:	2f0b883a 	add	r5,r5,fp
     d8c:	2885883a 	add	r2,r5,r2
     d90:	00d09c34 	movhi	r3,17008
     d94:	10c00115 	stw	r3,4(r2)
     d98:	00800174 	movhi	r2,5
     d9c:	10bf0904 	addi	r2,r2,-988
     da0:	01fffef4 	movhi	r7,65531
     da4:	39c0f304 	addi	r7,r7,972
     da8:	3f0f883a 	add	r7,r7,fp
     dac:	3885883a 	add	r2,r7,r2
     db0:	00d09234 	movhi	r3,16968
     db4:	10c00215 	stw	r3,8(r2)
     db8:	00800174 	movhi	r2,5
     dbc:	10bf0904 	addi	r2,r2,-988
     dc0:	00fffef4 	movhi	r3,65531
     dc4:	18c0f304 	addi	r3,r3,972
     dc8:	1f07883a 	add	r3,r3,fp
     dcc:	1885883a 	add	r2,r3,r2
     dd0:	00d09234 	movhi	r3,16968
     dd4:	10c00315 	stw	r3,12(r2)
     dd8:	013ffef4 	movhi	r4,65531
     ddc:	2100f604 	addi	r4,r4,984
     de0:	2709883a 	add	r4,r4,fp
     de4:	20000005 	stb	zero,0(r4)
     de8:	008f9374 	movhi	r2,15949
     dec:	10b33344 	addi	r2,r2,-13107
     df0:	017ffef4 	movhi	r5,65531
     df4:	29410204 	addi	r5,r5,1032
     df8:	2f0b883a 	add	r5,r5,fp
     dfc:	28800015 	stw	r2,0(r5)
     e00:	00800374 	movhi	r2,13
     e04:	10b51204 	addi	r2,r2,-11192
     e08:	00c00244 	movi	r3,9
     e0c:	10c01715 	stw	r3,92(r2)
     e10:	00800174 	movhi	r2,5
     e14:	10bf0904 	addi	r2,r2,-988
     e18:	01fffef4 	movhi	r7,65531
     e1c:	39c0f304 	addi	r7,r7,972
     e20:	3f0f883a 	add	r7,r7,fp
     e24:	3885883a 	add	r2,r7,r2
     e28:	10c00017 	ldw	r3,0(r2)
     e2c:	00800374 	movhi	r2,13
     e30:	10b51204 	addi	r2,r2,-11192
     e34:	10c00d15 	stw	r3,52(r2)
     e38:	00800174 	movhi	r2,5
     e3c:	10bf0904 	addi	r2,r2,-988
     e40:	00fffef4 	movhi	r3,65531
     e44:	18c0f304 	addi	r3,r3,972
     e48:	1f07883a 	add	r3,r3,fp
     e4c:	1885883a 	add	r2,r3,r2
     e50:	10c00217 	ldw	r3,8(r2)
     e54:	00800374 	movhi	r2,13
     e58:	10b51204 	addi	r2,r2,-11192
     e5c:	10c00e15 	stw	r3,56(r2)
     e60:	00800374 	movhi	r2,13
     e64:	10b51204 	addi	r2,r2,-11192
     e68:	10001215 	stw	zero,72(r2)
     e6c:	00800374 	movhi	r2,13
     e70:	10b51204 	addi	r2,r2,-11192
     e74:	00d04834 	movhi	r3,16672
     e78:	10c01315 	stw	r3,76(r2)
     e7c:	00800174 	movhi	r2,5
     e80:	10bf0904 	addi	r2,r2,-988
     e84:	013ffef4 	movhi	r4,65531
     e88:	2100f304 	addi	r4,r4,972
     e8c:	2709883a 	add	r4,r4,fp
     e90:	2085883a 	add	r2,r4,r2
     e94:	10c00117 	ldw	r3,4(r2)
     e98:	00800374 	movhi	r2,13
     e9c:	10b51204 	addi	r2,r2,-11192
     ea0:	10c00f15 	stw	r3,60(r2)
     ea4:	00800174 	movhi	r2,5
     ea8:	10bf0904 	addi	r2,r2,-988
     eac:	017ffef4 	movhi	r5,65531
     eb0:	2940f304 	addi	r5,r5,972
     eb4:	2f0b883a 	add	r5,r5,fp
     eb8:	2885883a 	add	r2,r5,r2
     ebc:	10c00317 	ldw	r3,12(r2)
     ec0:	00800374 	movhi	r2,13
     ec4:	10b51204 	addi	r2,r2,-11192
     ec8:	10c01015 	stw	r3,64(r2)
     ecc:	00800374 	movhi	r2,13
     ed0:	10b51204 	addi	r2,r2,-11192
     ed4:	10001115 	stw	zero,68(r2)
     ed8:	00800174 	movhi	r2,5
     edc:	10bf0704 	addi	r2,r2,-996
     ee0:	01fffef4 	movhi	r7,65531
     ee4:	39c0f304 	addi	r7,r7,972
     ee8:	3f0f883a 	add	r7,r7,fp
     eec:	3885883a 	add	r2,r7,r2
     ef0:	10c00017 	ldw	r3,0(r2)
     ef4:	00800374 	movhi	r2,13
     ef8:	10b51204 	addi	r2,r2,-11192
     efc:	10c01915 	stw	r3,100(r2)
     f00:	d0a77517 	ldw	r2,-25132(gp)
     f04:	10800044 	addi	r2,r2,1
     f08:	d0a77515 	stw	r2,-25132(gp)
     f0c:	00bffef4 	movhi	r2,65531
     f10:	1080f644 	addi	r2,r2,985
     f14:	1705883a 	add	r2,r2,fp
     f18:	10000005 	stb	zero,0(r2)
     f1c:	00fffef4 	movhi	r3,65531
     f20:	18c0f704 	addi	r3,r3,988
     f24:	1f07883a 	add	r3,r3,fp
     f28:	18000015 	stw	zero,0(r3)
     f2c:	013ffef4 	movhi	r4,65531
     f30:	2100f804 	addi	r4,r4,992
     f34:	2709883a 	add	r4,r4,fp
     f38:	20000005 	stb	zero,0(r4)
     f3c:	017ffef4 	movhi	r5,65531
     f40:	2940f844 	addi	r5,r5,993
     f44:	2f0b883a 	add	r5,r5,fp
     f48:	28000005 	stb	zero,0(r5)
     f4c:	01fffef4 	movhi	r7,65531
     f50:	39c0f884 	addi	r7,r7,994
     f54:	3f0f883a 	add	r7,r7,fp
     f58:	38000005 	stb	zero,0(r7)
     f5c:	00bffef4 	movhi	r2,65531
     f60:	1080f8c4 	addi	r2,r2,995
     f64:	1705883a 	add	r2,r2,fp
     f68:	10000005 	stb	zero,0(r2)
     f6c:	00fffef4 	movhi	r3,65531
     f70:	18c11704 	addi	r3,r3,1116
     f74:	1f07883a 	add	r3,r3,fp
     f78:	18800017 	ldw	r2,0(r3)
     f7c:	1009883a 	mov	r4,r2
     f80:	0007bd40 	call	7bd4 <alt_up_video_dma_ctrl_check_swap_status>
     f84:	103ff91e 	bne	r2,zero,f6c <__alt_mem_VGA_Subsystem_Char_Buf_Subsystem_Onchip_SRAM+0xf7000f6c>
     f88:	013ffef4 	movhi	r4,65531
     f8c:	2100f304 	addi	r4,r4,972
     f90:	2709883a 	add	r4,r4,fp
     f94:	20800003 	ldbu	r2,0(r4)
     f98:	1000051e 	bne	r2,zero,fb0 <main+0xaf4>
     f9c:	017ffef4 	movhi	r5,65531
     fa0:	2940f384 	addi	r5,r5,974
     fa4:	2f0b883a 	add	r5,r5,fp
     fa8:	28800003 	ldbu	r2,0(r5)
     fac:	10007d26 	beq	r2,zero,11a4 <main+0xce8>
     fb0:	01fffef4 	movhi	r7,65531
     fb4:	39c0f304 	addi	r7,r7,972
     fb8:	3f0f883a 	add	r7,r7,fp
     fbc:	38800003 	ldbu	r2,0(r7)
     fc0:	10007026 	beq	r2,zero,1184 <main+0xcc8>
     fc4:	00fffef4 	movhi	r3,65531
     fc8:	18c11704 	addi	r3,r3,1116
     fcc:	1f07883a 	add	r3,r3,fp
     fd0:	18800017 	ldw	r2,0(r3)
     fd4:	01400044 	movi	r5,1
     fd8:	1009883a 	mov	r4,r2
     fdc:	00086c00 	call	86c0 <alt_up_video_dma_screen_clear>
     fe0:	013ffef4 	movhi	r4,65531
     fe4:	21011704 	addi	r4,r4,1116
     fe8:	2709883a 	add	r4,r4,fp
     fec:	20c00017 	ldw	r3,0(r4)
     ff0:	00800174 	movhi	r2,5
     ff4:	10bf0604 	addi	r2,r2,-1000
     ff8:	017ffef4 	movhi	r5,65531
     ffc:	2940f304 	addi	r5,r5,972
    1000:	2f0b883a 	add	r5,r5,fp
    1004:	2885883a 	add	r2,r5,r2
    1008:	10800017 	ldw	r2,0(r2)
    100c:	1009883a 	mov	r4,r2
    1010:	00800044 	movi	r2,1
    1014:	d8800315 	stw	r2,12(sp)
    1018:	00800044 	movi	r2,1
    101c:	d8800215 	stw	r2,8(sp)
    1020:	00800484 	movi	r2,18
    1024:	d8800115 	stw	r2,4(sp)
    1028:	00804fc4 	movi	r2,319
    102c:	d8800015 	stw	r2,0(sp)
    1030:	000f883a 	mov	r7,zero
    1034:	01804984 	movi	r6,294
    1038:	200b883a 	mov	r5,r4
    103c:	1809883a 	mov	r4,r3
    1040:	0007ec40 	call	7ec4 <alt_up_video_dma_draw_box>
    1044:	01fffef4 	movhi	r7,65531
    1048:	39c11704 	addi	r7,r7,1116
    104c:	3f0f883a 	add	r7,r7,fp
    1050:	38c00017 	ldw	r3,0(r7)
    1054:	00800174 	movhi	r2,5
    1058:	10bf0604 	addi	r2,r2,-1000
    105c:	013ffef4 	movhi	r4,65531
    1060:	2100f304 	addi	r4,r4,972
    1064:	2709883a 	add	r4,r4,fp
    1068:	2085883a 	add	r2,r4,r2
    106c:	10800017 	ldw	r2,0(r2)
    1070:	1009883a 	mov	r4,r2
    1074:	d8000315 	stw	zero,12(sp)
    1078:	00800044 	movi	r2,1
    107c:	d8800215 	stw	r2,8(sp)
    1080:	00803c04 	movi	r2,240
    1084:	d8800115 	stw	r2,4(sp)
    1088:	00804fc4 	movi	r2,319
    108c:	d8800015 	stw	r2,0(sp)
    1090:	01c03204 	movi	r7,200
    1094:	01804604 	movi	r6,280
    1098:	200b883a 	mov	r5,r4
    109c:	1809883a 	mov	r4,r3
    10a0:	0007ec40 	call	7ec4 <alt_up_video_dma_draw_box>
    10a4:	017ffef4 	movhi	r5,65531
    10a8:	29411704 	addi	r5,r5,1116
    10ac:	2f0b883a 	add	r5,r5,fp
    10b0:	28c00017 	ldw	r3,0(r5)
    10b4:	00800174 	movhi	r2,5
    10b8:	10bf0704 	addi	r2,r2,-996
    10bc:	01fffef4 	movhi	r7,65531
    10c0:	39c0f304 	addi	r7,r7,972
    10c4:	3f0f883a 	add	r7,r7,fp
    10c8:	3885883a 	add	r2,r7,r2
    10cc:	10800017 	ldw	r2,0(r2)
    10d0:	1009883a 	mov	r4,r2
    10d4:	d8000315 	stw	zero,12(sp)
    10d8:	00800044 	movi	r2,1
    10dc:	d8800215 	stw	r2,8(sp)
    10e0:	00800784 	movi	r2,30
    10e4:	d8800115 	stw	r2,4(sp)
    10e8:	00802d04 	movi	r2,180
    10ec:	d8800015 	stw	r2,0(sp)
    10f0:	01c00284 	movi	r7,10
    10f4:	000d883a 	mov	r6,zero
    10f8:	200b883a 	mov	r5,r4
    10fc:	1809883a 	mov	r4,r3
    1100:	0007ec40 	call	7ec4 <alt_up_video_dma_draw_box>
    1104:	00fffef4 	movhi	r3,65531
    1108:	18c0f504 	addi	r3,r3,980
    110c:	1f07883a 	add	r3,r3,fp
    1110:	18800017 	ldw	r2,0(r3)
    1114:	10800098 	cmpnei	r2,r2,2
    1118:	1000391e 	bne	r2,zero,1200 <main+0xd44>
    111c:	013ffef4 	movhi	r4,65531
    1120:	21011704 	addi	r4,r4,1116
    1124:	2709883a 	add	r4,r4,fp
    1128:	20c00017 	ldw	r3,0(r4)
    112c:	00800174 	movhi	r2,5
    1130:	10bf0704 	addi	r2,r2,-996
    1134:	017ffef4 	movhi	r5,65531
    1138:	2940f304 	addi	r5,r5,972
    113c:	2f0b883a 	add	r5,r5,fp
    1140:	2885883a 	add	r2,r5,r2
    1144:	10800017 	ldw	r2,0(r2)
    1148:	1009883a 	mov	r4,r2
    114c:	00800044 	movi	r2,1
    1150:	d8800315 	stw	r2,12(sp)
    1154:	00800044 	movi	r2,1
    1158:	d8800215 	stw	r2,8(sp)
    115c:	00800904 	movi	r2,36
    1160:	d8800115 	stw	r2,4(sp)
    1164:	00804fc4 	movi	r2,319
    1168:	d8800015 	stw	r2,0(sp)
    116c:	01c00484 	movi	r7,18
    1170:	01804984 	movi	r6,294
    1174:	200b883a 	mov	r5,r4
    1178:	1809883a 	mov	r4,r3
    117c:	0007ec40 	call	7ec4 <alt_up_video_dma_draw_box>
    1180:	00001f06 	br	1200 <main+0xd44>
    1184:	01fffef4 	movhi	r7,65531
    1188:	39c11704 	addi	r7,r7,1116
    118c:	3f0f883a 	add	r7,r7,fp
    1190:	38800017 	ldw	r2,0(r7)
    1194:	01400044 	movi	r5,1
    1198:	1009883a 	mov	r4,r2
    119c:	00086c00 	call	86c0 <alt_up_video_dma_screen_clear>
    11a0:	00001706 	br	1200 <main+0xd44>
    11a4:	00fffef4 	movhi	r3,65531
    11a8:	18c0f344 	addi	r3,r3,973
    11ac:	1f07883a 	add	r3,r3,fp
    11b0:	18800003 	ldbu	r2,0(r3)
    11b4:	10001326 	beq	r2,zero,1204 <main+0xd48>
    11b8:	017ffef4 	movhi	r5,65531
    11bc:	29411704 	addi	r5,r5,1116
    11c0:	2f0b883a 	add	r5,r5,fp
    11c4:	29000017 	ldw	r4,0(r5)
    11c8:	00800174 	movhi	r2,5
    11cc:	10bf0204 	addi	r2,r2,-1016
    11d0:	01fffef4 	movhi	r7,65531
    11d4:	39c0f304 	addi	r7,r7,972
    11d8:	3f0f883a 	add	r7,r7,fp
    11dc:	3885883a 	add	r2,r7,r2
    11e0:	00c00044 	movi	r3,1
    11e4:	d8c00015 	stw	r3,0(sp)
    11e8:	01c00074 	movhi	r7,1
    11ec:	39f6b704 	addi	r7,r7,-9508
    11f0:	11400017 	ldw	r5,0(r2)
    11f4:	11800117 	ldw	r6,4(r2)
    11f8:	00034980 	call	3498 <restoreSplash>
    11fc:	00000106 	br	1204 <main+0xd48>
    1200:	0001883a 	nop
    1204:	d0a77b03 	ldbu	r2,-25108(gp)
    1208:	10803fcc 	andi	r2,r2,255
    120c:	10002126 	beq	r2,zero,1294 <main+0xdd8>
    1210:	d0277b05 	stb	zero,-25108(gp)
    1214:	00bffef4 	movhi	r2,65531
    1218:	10811504 	addi	r2,r2,1108
    121c:	1705883a 	add	r2,r2,fp
    1220:	10c00017 	ldw	r3,0(r2)
    1224:	017ffef4 	movhi	r5,65531
    1228:	29411704 	addi	r5,r5,1116
    122c:	2f0b883a 	add	r5,r5,fp
    1230:	29000017 	ldw	r4,0(r5)
    1234:	00800174 	movhi	r2,5
    1238:	10bf0004 	addi	r2,r2,-1024
    123c:	01fffef4 	movhi	r7,65531
    1240:	39c0f304 	addi	r7,r7,972
    1244:	3f0f883a 	add	r7,r7,fp
    1248:	388d883a 	add	r6,r7,r2
    124c:	00800174 	movhi	r2,5
    1250:	10befe04 	addi	r2,r2,-1032
    1254:	01fffef4 	movhi	r7,65531
    1258:	39c0f304 	addi	r7,r7,972
    125c:	3f0f883a 	add	r7,r7,fp
    1260:	388b883a 	add	r5,r7,r2
    1264:	00800174 	movhi	r2,5
    1268:	10bf0204 	addi	r2,r2,-1016
    126c:	01fffef4 	movhi	r7,65531
    1270:	39c0f304 	addi	r7,r7,972
    1274:	3f0f883a 	add	r7,r7,fp
    1278:	3885883a 	add	r2,r7,r2
    127c:	d8800015 	stw	r2,0(sp)
    1280:	300f883a 	mov	r7,r6
    1284:	280d883a 	mov	r6,r5
    1288:	200b883a 	mov	r5,r4
    128c:	1809883a 	mov	r4,r3
    1290:	000360c0 	call	360c <moveMouse>
    1294:	d0a77f83 	ldbu	r2,-25090(gp)
    1298:	10803fcc 	andi	r2,r2,255
    129c:	1003d626 	beq	r2,zero,21f8 <main+0x1d3c>
    12a0:	00fffef4 	movhi	r3,65531
    12a4:	18c0f384 	addi	r3,r3,974
    12a8:	1f07883a 	add	r3,r3,fp
    12ac:	18800003 	ldbu	r2,0(r3)
    12b0:	10004626 	beq	r2,zero,13cc <main+0xf10>
    12b4:	013ffef4 	movhi	r4,65531
    12b8:	2100f384 	addi	r4,r4,974
    12bc:	2709883a 	add	r4,r4,fp
    12c0:	20000005 	stb	zero,0(r4)
    12c4:	017ffef4 	movhi	r5,65531
    12c8:	2940f304 	addi	r5,r5,972
    12cc:	2f0b883a 	add	r5,r5,fp
    12d0:	28000005 	stb	zero,0(r5)
    12d4:	00800044 	movi	r2,1
    12d8:	01fffef4 	movhi	r7,65531
    12dc:	39c0f344 	addi	r7,r7,973
    12e0:	3f0f883a 	add	r7,r7,fp
    12e4:	38800005 	stb	r2,0(r7)
    12e8:	00bffef4 	movhi	r2,65531
    12ec:	1080f404 	addi	r2,r2,976
    12f0:	1705883a 	add	r2,r2,fp
    12f4:	11000017 	ldw	r4,0(r2)
    12f8:	0002ac80 	call	2ac8 <dispScore>
    12fc:	013ffef4 	movhi	r4,65531
    1300:	21011804 	addi	r4,r4,1120
    1304:	2709883a 	add	r4,r4,fp
    1308:	20c00017 	ldw	r3,0(r4)
    130c:	00800174 	movhi	r2,5
    1310:	10b58604 	addi	r2,r2,-10728
    1314:	017ffef4 	movhi	r5,65531
    1318:	2940f304 	addi	r5,r5,972
    131c:	2f0b883a 	add	r5,r5,fp
    1320:	2889883a 	add	r4,r5,r2
    1324:	00800174 	movhi	r2,5
    1328:	10ac2604 	addi	r2,r2,-20328
    132c:	01fffef4 	movhi	r7,65531
    1330:	39c0f304 	addi	r7,r7,972
    1334:	3f0f883a 	add	r7,r7,fp
    1338:	3885883a 	add	r2,r7,r2
    133c:	200d883a 	mov	r6,r4
    1340:	100b883a 	mov	r5,r2
    1344:	1809883a 	mov	r4,r3
    1348:	0002ca00 	call	2ca0 <charDissolveEffect>
    134c:	00fffef4 	movhi	r3,65531
    1350:	18c11704 	addi	r3,r3,1116
    1354:	1f07883a 	add	r3,r3,fp
    1358:	18800017 	ldw	r2,0(r3)
    135c:	01800074 	movhi	r6,1
    1360:	31b6b704 	addi	r6,r6,-9508
    1364:	01400044 	movi	r5,1
    1368:	1009883a 	mov	r4,r2
    136c:	0003dc40 	call	3dc4 <initSplash>
    1370:	017ffef4 	movhi	r5,65531
    1374:	29411704 	addi	r5,r5,1116
    1378:	2f0b883a 	add	r5,r5,fp
    137c:	29000017 	ldw	r4,0(r5)
    1380:	00800174 	movhi	r2,5
    1384:	10bf0704 	addi	r2,r2,-996
    1388:	01fffef4 	movhi	r7,65531
    138c:	39c0f304 	addi	r7,r7,972
    1390:	3f0f883a 	add	r7,r7,fp
    1394:	3885883a 	add	r2,r7,r2
    1398:	11400017 	ldw	r5,0(r2)
    139c:	00800174 	movhi	r2,5
    13a0:	10befe04 	addi	r2,r2,-1032
    13a4:	00fffef4 	movhi	r3,65531
    13a8:	18c0f304 	addi	r3,r3,972
    13ac:	1f07883a 	add	r3,r3,fp
    13b0:	1885883a 	add	r2,r3,r2
    13b4:	00c00044 	movi	r3,1
    13b8:	d8c00015 	stw	r3,0(sp)
    13bc:	11800017 	ldw	r6,0(r2)
    13c0:	11c00117 	ldw	r7,4(r2)
    13c4:	00034100 	call	3410 <drawCursor>
    13c8:	0004c606 	br	26e4 <main+0x2228>
    13cc:	017ffef4 	movhi	r5,65531
    13d0:	29411704 	addi	r5,r5,1116
    13d4:	2f0b883a 	add	r5,r5,fp
    13d8:	29000017 	ldw	r4,0(r5)
    13dc:	00800174 	movhi	r2,5
    13e0:	10bf0704 	addi	r2,r2,-996
    13e4:	01fffef4 	movhi	r7,65531
    13e8:	39c0f304 	addi	r7,r7,972
    13ec:	3f0f883a 	add	r7,r7,fp
    13f0:	3885883a 	add	r2,r7,r2
    13f4:	11400017 	ldw	r5,0(r2)
    13f8:	00800174 	movhi	r2,5
    13fc:	10befe04 	addi	r2,r2,-1032
    1400:	00fffef4 	movhi	r3,65531
    1404:	18c0f304 	addi	r3,r3,972
    1408:	1f07883a 	add	r3,r3,fp
    140c:	1885883a 	add	r2,r3,r2
    1410:	00c00044 	movi	r3,1
    1414:	d8c00015 	stw	r3,0(sp)
    1418:	11800017 	ldw	r6,0(r2)
    141c:	11c00117 	ldw	r7,4(r2)
    1420:	00034100 	call	3410 <drawCursor>
    1424:	013ffef4 	movhi	r4,65531
    1428:	2100f344 	addi	r4,r4,973
    142c:	2709883a 	add	r4,r4,fp
    1430:	20800003 	ldbu	r2,0(r4)
    1434:	1000d626 	beq	r2,zero,1790 <main+0x12d4>
    1438:	017ffef4 	movhi	r5,65531
    143c:	2940f504 	addi	r5,r5,980
    1440:	2f0b883a 	add	r5,r5,fp
    1444:	28800017 	ldw	r2,0(r5)
    1448:	1000d11e 	bne	r2,zero,1790 <main+0x12d4>
    144c:	00800174 	movhi	r2,5
    1450:	10bee604 	addi	r2,r2,-1128
    1454:	01fffef4 	movhi	r7,65531
    1458:	39c0f304 	addi	r7,r7,972
    145c:	3f0f883a 	add	r7,r7,fp
    1460:	3889883a 	add	r4,r7,r2
    1464:	00800174 	movhi	r2,5
    1468:	10befe04 	addi	r2,r2,-1032
    146c:	017ffef4 	movhi	r5,65531
    1470:	2940f304 	addi	r5,r5,972
    1474:	2f0b883a 	add	r5,r5,fp
    1478:	2887883a 	add	r3,r5,r2
    147c:	00800174 	movhi	r2,5
    1480:	10bee804 	addi	r2,r2,-1120
    1484:	01fffef4 	movhi	r7,65531
    1488:	39c0f304 	addi	r7,r7,972
    148c:	3f0f883a 	add	r7,r7,fp
    1490:	3885883a 	add	r2,r7,r2
    1494:	11400017 	ldw	r5,0(r2)
    1498:	d9400015 	stw	r5,0(sp)
    149c:	10800117 	ldw	r2,4(r2)
    14a0:	d8800115 	stw	r2,4(sp)
    14a4:	21800017 	ldw	r6,0(r4)
    14a8:	21c00117 	ldw	r7,4(r4)
    14ac:	19000017 	ldw	r4,0(r3)
    14b0:	19400117 	ldw	r5,4(r3)
    14b4:	0003ed00 	call	3ed0 <clickedInArea>
    14b8:	10803fcc 	andi	r2,r2,255
    14bc:	10001d1e 	bne	r2,zero,1534 <main+0x1078>
    14c0:	00800174 	movhi	r2,5
    14c4:	10beea04 	addi	r2,r2,-1112
    14c8:	00fffef4 	movhi	r3,65531
    14cc:	18c0f304 	addi	r3,r3,972
    14d0:	1f07883a 	add	r3,r3,fp
    14d4:	1889883a 	add	r4,r3,r2
    14d8:	00800174 	movhi	r2,5
    14dc:	10befe04 	addi	r2,r2,-1032
    14e0:	017ffef4 	movhi	r5,65531
    14e4:	2940f304 	addi	r5,r5,972
    14e8:	2f0b883a 	add	r5,r5,fp
    14ec:	2887883a 	add	r3,r5,r2
    14f0:	00800174 	movhi	r2,5
    14f4:	10beec04 	addi	r2,r2,-1104
    14f8:	01fffef4 	movhi	r7,65531
    14fc:	39c0f304 	addi	r7,r7,972
    1500:	3f0f883a 	add	r7,r7,fp
    1504:	3885883a 	add	r2,r7,r2
    1508:	11400017 	ldw	r5,0(r2)
    150c:	d9400015 	stw	r5,0(sp)
    1510:	10800117 	ldw	r2,4(r2)
    1514:	d8800115 	stw	r2,4(sp)
    1518:	21800017 	ldw	r6,0(r4)
    151c:	21c00117 	ldw	r7,4(r4)
    1520:	19000017 	ldw	r4,0(r3)
    1524:	19400117 	ldw	r5,4(r3)
    1528:	0003ed00 	call	3ed0 <clickedInArea>
    152c:	10803fcc 	andi	r2,r2,255
    1530:	10009726 	beq	r2,zero,1790 <main+0x12d4>
    1534:	00800174 	movhi	r2,5
    1538:	10bee604 	addi	r2,r2,-1128
    153c:	00fffef4 	movhi	r3,65531
    1540:	18c0f304 	addi	r3,r3,972
    1544:	1f07883a 	add	r3,r3,fp
    1548:	1889883a 	add	r4,r3,r2
    154c:	00800174 	movhi	r2,5
    1550:	10befe04 	addi	r2,r2,-1032
    1554:	017ffef4 	movhi	r5,65531
    1558:	2940f304 	addi	r5,r5,972
    155c:	2f0b883a 	add	r5,r5,fp
    1560:	2887883a 	add	r3,r5,r2
    1564:	00800174 	movhi	r2,5
    1568:	10bee804 	addi	r2,r2,-1120
    156c:	01fffef4 	movhi	r7,65531
    1570:	39c0f304 	addi	r7,r7,972
    1574:	3f0f883a 	add	r7,r7,fp
    1578:	3885883a 	add	r2,r7,r2
    157c:	11400017 	ldw	r5,0(r2)
    1580:	d9400015 	stw	r5,0(sp)
    1584:	10800117 	ldw	r2,4(r2)
    1588:	d8800115 	stw	r2,4(sp)
    158c:	21800017 	ldw	r6,0(r4)
    1590:	21c00117 	ldw	r7,4(r4)
    1594:	19000017 	ldw	r4,0(r3)
    1598:	19400117 	ldw	r5,4(r3)
    159c:	0003ed00 	call	3ed0 <clickedInArea>
    15a0:	10803fcc 	andi	r2,r2,255
    15a4:	10000626 	beq	r2,zero,15c0 <main+0x1104>
    15a8:	00800044 	movi	r2,1
    15ac:	00fffef4 	movhi	r3,65531
    15b0:	18c0f504 	addi	r3,r3,980
    15b4:	1f07883a 	add	r3,r3,fp
    15b8:	18800015 	stw	r2,0(r3)
    15bc:	00000806 	br	15e0 <main+0x1124>
    15c0:	00800084 	movi	r2,2
    15c4:	013ffef4 	movhi	r4,65531
    15c8:	2100f504 	addi	r4,r4,980
    15cc:	2709883a 	add	r4,r4,fp
    15d0:	20800015 	stw	r2,0(r4)
    15d4:	01000374 	movhi	r4,13
    15d8:	21351f04 	addi	r4,r4,-11140
    15dc:	0004e240 	call	4e24 <randomize_position>
    15e0:	00800044 	movi	r2,1
    15e4:	017ffef4 	movhi	r5,65531
    15e8:	2940f304 	addi	r5,r5,972
    15ec:	2f0b883a 	add	r5,r5,fp
    15f0:	28800005 	stb	r2,0(r5)
    15f4:	01fffef4 	movhi	r7,65531
    15f8:	39c0f344 	addi	r7,r7,973
    15fc:	3f0f883a 	add	r7,r7,fp
    1600:	38000005 	stb	zero,0(r7)
    1604:	00bffef4 	movhi	r2,65531
    1608:	1080f404 	addi	r2,r2,976
    160c:	1705883a 	add	r2,r2,fp
    1610:	11000017 	ldw	r4,0(r2)
    1614:	0002ac80 	call	2ac8 <dispScore>
    1618:	013ffef4 	movhi	r4,65531
    161c:	21011704 	addi	r4,r4,1116
    1620:	2709883a 	add	r4,r4,fp
    1624:	20c00017 	ldw	r3,0(r4)
    1628:	008000b4 	movhi	r2,2
    162c:	10962604 	addi	r2,r2,22680
    1630:	017ffef4 	movhi	r5,65531
    1634:	2940f304 	addi	r5,r5,972
    1638:	2f0b883a 	add	r5,r5,fp
    163c:	2889883a 	add	r4,r5,r2
    1640:	01fffef4 	movhi	r7,65531
    1644:	39c11904 	addi	r7,r7,1124
    1648:	e1c5883a 	add	r2,fp,r7
    164c:	200d883a 	mov	r6,r4
    1650:	100b883a 	mov	r5,r2
    1654:	1809883a 	mov	r4,r3
    1658:	0002bdc0 	call	2bdc <dissolveEffect>
    165c:	00bffef4 	movhi	r2,65531
    1660:	10811704 	addi	r2,r2,1116
    1664:	1705883a 	add	r2,r2,fp
    1668:	10c00017 	ldw	r3,0(r2)
    166c:	00800174 	movhi	r2,5
    1670:	10bf0604 	addi	r2,r2,-1000
    1674:	013ffef4 	movhi	r4,65531
    1678:	2100f304 	addi	r4,r4,972
    167c:	2709883a 	add	r4,r4,fp
    1680:	2085883a 	add	r2,r4,r2
    1684:	10800017 	ldw	r2,0(r2)
    1688:	1009883a 	mov	r4,r2
    168c:	00800044 	movi	r2,1
    1690:	d8800315 	stw	r2,12(sp)
    1694:	d8000215 	stw	zero,8(sp)
    1698:	00800484 	movi	r2,18
    169c:	d8800115 	stw	r2,4(sp)
    16a0:	00804fc4 	movi	r2,319
    16a4:	d8800015 	stw	r2,0(sp)
    16a8:	000f883a 	mov	r7,zero
    16ac:	01804984 	movi	r6,294
    16b0:	200b883a 	mov	r5,r4
    16b4:	1809883a 	mov	r4,r3
    16b8:	0007ec40 	call	7ec4 <alt_up_video_dma_draw_box>
    16bc:	017ffef4 	movhi	r5,65531
    16c0:	29411804 	addi	r5,r5,1120
    16c4:	2f0b883a 	add	r5,r5,fp
    16c8:	28800017 	ldw	r2,0(r5)
    16cc:	d8000015 	stw	zero,0(sp)
    16d0:	01c00084 	movi	r7,2
    16d4:	018012c4 	movi	r6,75
    16d8:	014001b4 	movhi	r5,6
    16dc:	2962b704 	addi	r5,r5,-29988
    16e0:	1009883a 	mov	r4,r2
    16e4:	000847c0 	call	847c <alt_up_video_dma_draw_string>
    16e8:	01fffef4 	movhi	r7,65531
    16ec:	39c0f504 	addi	r7,r7,980
    16f0:	3f0f883a 	add	r7,r7,fp
    16f4:	38800017 	ldw	r2,0(r7)
    16f8:	10800098 	cmpnei	r2,r2,2
    16fc:	1003f91e 	bne	r2,zero,26e4 <main+0x2228>
    1700:	00bffef4 	movhi	r2,65531
    1704:	10811704 	addi	r2,r2,1116
    1708:	1705883a 	add	r2,r2,fp
    170c:	10c00017 	ldw	r3,0(r2)
    1710:	00800174 	movhi	r2,5
    1714:	10bf0704 	addi	r2,r2,-996
    1718:	013ffef4 	movhi	r4,65531
    171c:	2100f304 	addi	r4,r4,972
    1720:	2709883a 	add	r4,r4,fp
    1724:	2085883a 	add	r2,r4,r2
    1728:	10800017 	ldw	r2,0(r2)
    172c:	1009883a 	mov	r4,r2
    1730:	00800044 	movi	r2,1
    1734:	d8800315 	stw	r2,12(sp)
    1738:	d8000215 	stw	zero,8(sp)
    173c:	00800904 	movi	r2,36
    1740:	d8800115 	stw	r2,4(sp)
    1744:	00804fc4 	movi	r2,319
    1748:	d8800015 	stw	r2,0(sp)
    174c:	01c00484 	movi	r7,18
    1750:	01804984 	movi	r6,294
    1754:	200b883a 	mov	r5,r4
    1758:	1809883a 	mov	r4,r3
    175c:	0007ec40 	call	7ec4 <alt_up_video_dma_draw_box>
    1760:	017ffef4 	movhi	r5,65531
    1764:	29411804 	addi	r5,r5,1120
    1768:	2f0b883a 	add	r5,r5,fp
    176c:	28800017 	ldw	r2,0(r5)
    1770:	d8000015 	stw	zero,0(sp)
    1774:	01c00184 	movi	r7,6
    1778:	018012c4 	movi	r6,75
    177c:	014001b4 	movhi	r5,6
    1780:	2962b904 	addi	r5,r5,-29980
    1784:	1009883a 	mov	r4,r2
    1788:	000847c0 	call	847c <alt_up_video_dma_draw_string>
    178c:	0003d506 	br	26e4 <main+0x2228>
    1790:	00800174 	movhi	r2,5
    1794:	10beee04 	addi	r2,r2,-1096
    1798:	01fffef4 	movhi	r7,65531
    179c:	39c0f304 	addi	r7,r7,972
    17a0:	3f0f883a 	add	r7,r7,fp
    17a4:	3889883a 	add	r4,r7,r2
    17a8:	00800174 	movhi	r2,5
    17ac:	10befe04 	addi	r2,r2,-1032
    17b0:	017ffef4 	movhi	r5,65531
    17b4:	2940f304 	addi	r5,r5,972
    17b8:	2f0b883a 	add	r5,r5,fp
    17bc:	2887883a 	add	r3,r5,r2
    17c0:	00800174 	movhi	r2,5
    17c4:	10bef004 	addi	r2,r2,-1088
    17c8:	01fffef4 	movhi	r7,65531
    17cc:	39c0f304 	addi	r7,r7,972
    17d0:	3f0f883a 	add	r7,r7,fp
    17d4:	3885883a 	add	r2,r7,r2
    17d8:	11400017 	ldw	r5,0(r2)
    17dc:	d9400015 	stw	r5,0(sp)
    17e0:	10800117 	ldw	r2,4(r2)
    17e4:	d8800115 	stw	r2,4(sp)
    17e8:	21800017 	ldw	r6,0(r4)
    17ec:	21c00117 	ldw	r7,4(r4)
    17f0:	19000017 	ldw	r4,0(r3)
    17f4:	19400117 	ldw	r5,4(r3)
    17f8:	0003ed00 	call	3ed0 <clickedInArea>
    17fc:	10803fcc 	andi	r2,r2,255
    1800:	10003026 	beq	r2,zero,18c4 <main+0x1408>
    1804:	00fffef4 	movhi	r3,65531
    1808:	18c0f504 	addi	r3,r3,980
    180c:	1f07883a 	add	r3,r3,fp
    1810:	18800017 	ldw	r2,0(r3)
    1814:	10002b1e 	bne	r2,zero,18c4 <main+0x1408>
    1818:	00800044 	movi	r2,1
    181c:	013ffef4 	movhi	r4,65531
    1820:	2100f384 	addi	r4,r4,974
    1824:	2709883a 	add	r4,r4,fp
    1828:	20800005 	stb	r2,0(r4)
    182c:	017ffef4 	movhi	r5,65531
    1830:	2940f344 	addi	r5,r5,973
    1834:	2f0b883a 	add	r5,r5,fp
    1838:	28000005 	stb	zero,0(r5)
    183c:	01fffef4 	movhi	r7,65531
    1840:	39c0f404 	addi	r7,r7,976
    1844:	3f0f883a 	add	r7,r7,fp
    1848:	39000017 	ldw	r4,0(r7)
    184c:	0002ac80 	call	2ac8 <dispScore>
    1850:	00bffef4 	movhi	r2,65531
    1854:	10811704 	addi	r2,r2,1116
    1858:	1705883a 	add	r2,r2,fp
    185c:	10c00017 	ldw	r3,0(r2)
    1860:	008000b4 	movhi	r2,2
    1864:	10962604 	addi	r2,r2,22680
    1868:	017ffef4 	movhi	r5,65531
    186c:	2940f304 	addi	r5,r5,972
    1870:	2f0b883a 	add	r5,r5,fp
    1874:	2889883a 	add	r4,r5,r2
    1878:	01fffef4 	movhi	r7,65531
    187c:	39c11904 	addi	r7,r7,1124
    1880:	e1c5883a 	add	r2,fp,r7
    1884:	200d883a 	mov	r6,r4
    1888:	100b883a 	mov	r5,r2
    188c:	1809883a 	mov	r4,r3
    1890:	0002bdc0 	call	2bdc <dissolveEffect>
    1894:	00fffef4 	movhi	r3,65531
    1898:	18c11704 	addi	r3,r3,1116
    189c:	1f07883a 	add	r3,r3,fp
    18a0:	18800017 	ldw	r2,0(r3)
    18a4:	013ffef4 	movhi	r4,65531
    18a8:	21011804 	addi	r4,r4,1120
    18ac:	2709883a 	add	r4,r4,fp
    18b0:	20c00017 	ldw	r3,0(r4)
    18b4:	180b883a 	mov	r5,r3
    18b8:	1009883a 	mov	r4,r2
    18bc:	0003f380 	call	3f38 <displayInstructionsScreen>
    18c0:	00038806 	br	26e4 <main+0x2228>
    18c4:	00800174 	movhi	r2,5
    18c8:	10bef204 	addi	r2,r2,-1080
    18cc:	017ffef4 	movhi	r5,65531
    18d0:	2940f304 	addi	r5,r5,972
    18d4:	2f0b883a 	add	r5,r5,fp
    18d8:	2889883a 	add	r4,r5,r2
    18dc:	00800174 	movhi	r2,5
    18e0:	10befe04 	addi	r2,r2,-1032
    18e4:	01fffef4 	movhi	r7,65531
    18e8:	39c0f304 	addi	r7,r7,972
    18ec:	3f0f883a 	add	r7,r7,fp
    18f0:	3887883a 	add	r3,r7,r2
    18f4:	00800174 	movhi	r2,5
    18f8:	10bef404 	addi	r2,r2,-1072
    18fc:	017ffef4 	movhi	r5,65531
    1900:	2940f304 	addi	r5,r5,972
    1904:	2f0b883a 	add	r5,r5,fp
    1908:	2885883a 	add	r2,r5,r2
    190c:	11400017 	ldw	r5,0(r2)
    1910:	d9400015 	stw	r5,0(sp)
    1914:	10800117 	ldw	r2,4(r2)
    1918:	d8800115 	stw	r2,4(sp)
    191c:	21800017 	ldw	r6,0(r4)
    1920:	21c00117 	ldw	r7,4(r4)
    1924:	19000017 	ldw	r4,0(r3)
    1928:	19400117 	ldw	r5,4(r3)
    192c:	0003ed00 	call	3ed0 <clickedInArea>
    1930:	10803fcc 	andi	r2,r2,255
    1934:	1000c626 	beq	r2,zero,1c50 <main+0x1794>
    1938:	01fffef4 	movhi	r7,65531
    193c:	39c0f504 	addi	r7,r7,980
    1940:	3f0f883a 	add	r7,r7,fp
    1944:	38800017 	ldw	r2,0(r7)
    1948:	1000c11e 	bne	r2,zero,1c50 <main+0x1794>
    194c:	00bffef4 	movhi	r2,65531
    1950:	1080f404 	addi	r2,r2,976
    1954:	1705883a 	add	r2,r2,fp
    1958:	11000017 	ldw	r4,0(r2)
    195c:	0002ac80 	call	2ac8 <dispScore>
    1960:	00fffef4 	movhi	r3,65531
    1964:	18c11704 	addi	r3,r3,1116
    1968:	1f07883a 	add	r3,r3,fp
    196c:	18800017 	ldw	r2,0(r3)
    1970:	018000f4 	movhi	r6,3
    1974:	318cb704 	addi	r6,r6,13020
    1978:	01400044 	movi	r5,1
    197c:	1009883a 	mov	r4,r2
    1980:	0003dc40 	call	3dc4 <initSplash>
    1984:	013ffef4 	movhi	r4,65531
    1988:	2100fe04 	addi	r4,r4,1016
    198c:	2709883a 	add	r4,r4,fp
    1990:	20800017 	ldw	r2,0(r4)
    1994:	10800017 	ldw	r2,0(r2)
    1998:	1009883a 	mov	r4,r2
    199c:	00076780 	call	7678 <alt_up_ps2_disable_read_interrupt>
    19a0:	d0a77d17 	ldw	r2,-25100(gp)
    19a4:	1009883a 	mov	r4,r2
    19a8:	0006dc00 	call	6dc0 <alt_up_audio_disable_write_interrupt>
    19ac:	008001c4 	movi	r2,7
    19b0:	017ffef4 	movhi	r5,65531
    19b4:	29410304 	addi	r5,r5,1036
    19b8:	2f0b883a 	add	r5,r5,fp
    19bc:	28800015 	stw	r2,0(r5)
    19c0:	0005303a 	rdctl	r2,status
    19c4:	01fffef4 	movhi	r7,65531
    19c8:	39c11204 	addi	r7,r7,1096
    19cc:	3f0f883a 	add	r7,r7,fp
    19d0:	38800015 	stw	r2,0(r7)
    19d4:	00bffef4 	movhi	r2,65531
    19d8:	10811204 	addi	r2,r2,1096
    19dc:	1705883a 	add	r2,r2,fp
    19e0:	10c00017 	ldw	r3,0(r2)
    19e4:	00bfff84 	movi	r2,-2
    19e8:	1884703a 	and	r2,r3,r2
    19ec:	1001703a 	wrctl	status,r2
    19f0:	00fffef4 	movhi	r3,65531
    19f4:	18c11204 	addi	r3,r3,1096
    19f8:	1f07883a 	add	r3,r3,fp
    19fc:	18800017 	ldw	r2,0(r3)
    1a00:	013ffef4 	movhi	r4,65531
    1a04:	21011304 	addi	r4,r4,1100
    1a08:	2709883a 	add	r4,r4,fp
    1a0c:	20800015 	stw	r2,0(r4)
    1a10:	00c00044 	movi	r3,1
    1a14:	017ffef4 	movhi	r5,65531
    1a18:	29410304 	addi	r5,r5,1036
    1a1c:	2f0b883a 	add	r5,r5,fp
    1a20:	28800017 	ldw	r2,0(r5)
    1a24:	1884983a 	sll	r2,r3,r2
    1a28:	0084303a 	nor	r2,zero,r2
    1a2c:	1007883a 	mov	r3,r2
    1a30:	d0a78a17 	ldw	r2,-25048(gp)
    1a34:	1884703a 	and	r2,r3,r2
    1a38:	d0a78a15 	stw	r2,-25048(gp)
    1a3c:	d0a78a17 	ldw	r2,-25048(gp)
    1a40:	100170fa 	wrctl	ienable,r2
    1a44:	01fffef4 	movhi	r7,65531
    1a48:	39c11304 	addi	r7,r7,1100
    1a4c:	3f0f883a 	add	r7,r7,fp
    1a50:	38800017 	ldw	r2,0(r7)
    1a54:	00fffef4 	movhi	r3,65531
    1a58:	18c11404 	addi	r3,r3,1104
    1a5c:	1f07883a 	add	r3,r3,fp
    1a60:	18800015 	stw	r2,0(r3)
    1a64:	013ffef4 	movhi	r4,65531
    1a68:	21011404 	addi	r4,r4,1104
    1a6c:	2709883a 	add	r4,r4,fp
    1a70:	20800017 	ldw	r2,0(r4)
    1a74:	1001703a 	wrctl	status,r2
    1a78:	00800184 	movi	r2,6
    1a7c:	017ffef4 	movhi	r5,65531
    1a80:	29410404 	addi	r5,r5,1040
    1a84:	2f0b883a 	add	r5,r5,fp
    1a88:	28800015 	stw	r2,0(r5)
    1a8c:	0005303a 	rdctl	r2,status
    1a90:	01fffef4 	movhi	r7,65531
    1a94:	39c10f04 	addi	r7,r7,1084
    1a98:	3f0f883a 	add	r7,r7,fp
    1a9c:	38800015 	stw	r2,0(r7)
    1aa0:	00bffef4 	movhi	r2,65531
    1aa4:	10810f04 	addi	r2,r2,1084
    1aa8:	1705883a 	add	r2,r2,fp
    1aac:	10c00017 	ldw	r3,0(r2)
    1ab0:	00bfff84 	movi	r2,-2
    1ab4:	1884703a 	and	r2,r3,r2
    1ab8:	1001703a 	wrctl	status,r2
    1abc:	00fffef4 	movhi	r3,65531
    1ac0:	18c10f04 	addi	r3,r3,1084
    1ac4:	1f07883a 	add	r3,r3,fp
    1ac8:	18800017 	ldw	r2,0(r3)
    1acc:	013ffef4 	movhi	r4,65531
    1ad0:	21011004 	addi	r4,r4,1088
    1ad4:	2709883a 	add	r4,r4,fp
    1ad8:	20800015 	stw	r2,0(r4)
    1adc:	00c00044 	movi	r3,1
    1ae0:	017ffef4 	movhi	r5,65531
    1ae4:	29410404 	addi	r5,r5,1040
    1ae8:	2f0b883a 	add	r5,r5,fp
    1aec:	28800017 	ldw	r2,0(r5)
    1af0:	1884983a 	sll	r2,r3,r2
    1af4:	0084303a 	nor	r2,zero,r2
    1af8:	1007883a 	mov	r3,r2
    1afc:	d0a78a17 	ldw	r2,-25048(gp)
    1b00:	1884703a 	and	r2,r3,r2
    1b04:	d0a78a15 	stw	r2,-25048(gp)
    1b08:	d0a78a17 	ldw	r2,-25048(gp)
    1b0c:	100170fa 	wrctl	ienable,r2
    1b10:	01fffef4 	movhi	r7,65531
    1b14:	39c11004 	addi	r7,r7,1088
    1b18:	3f0f883a 	add	r7,r7,fp
    1b1c:	38800017 	ldw	r2,0(r7)
    1b20:	00fffef4 	movhi	r3,65531
    1b24:	18c11104 	addi	r3,r3,1092
    1b28:	1f07883a 	add	r3,r3,fp
    1b2c:	18800015 	stw	r2,0(r3)
    1b30:	013ffef4 	movhi	r4,65531
    1b34:	21011104 	addi	r4,r4,1092
    1b38:	2709883a 	add	r4,r4,fp
    1b3c:	20800017 	ldw	r2,0(r4)
    1b40:	1001703a 	wrctl	status,r2
    1b44:	d0a77d17 	ldw	r2,-25100(gp)
    1b48:	1009883a 	mov	r4,r2
    1b4c:	00032380 	call	3238 <fadeBGM>
    1b50:	0002a440 	call	2a44 <clearChaser>
    1b54:	017ffef4 	movhi	r5,65531
    1b58:	29410504 	addi	r5,r5,1044
    1b5c:	2f0b883a 	add	r5,r5,fp
    1b60:	28000015 	stw	zero,0(r5)
    1b64:	0005303a 	rdctl	r2,status
    1b68:	01fffef4 	movhi	r7,65531
    1b6c:	39c10c04 	addi	r7,r7,1072
    1b70:	3f0f883a 	add	r7,r7,fp
    1b74:	38800015 	stw	r2,0(r7)
    1b78:	00bffef4 	movhi	r2,65531
    1b7c:	10810c04 	addi	r2,r2,1072
    1b80:	1705883a 	add	r2,r2,fp
    1b84:	10c00017 	ldw	r3,0(r2)
    1b88:	00bfff84 	movi	r2,-2
    1b8c:	1884703a 	and	r2,r3,r2
    1b90:	1001703a 	wrctl	status,r2
    1b94:	00fffef4 	movhi	r3,65531
    1b98:	18c10c04 	addi	r3,r3,1072
    1b9c:	1f07883a 	add	r3,r3,fp
    1ba0:	18800017 	ldw	r2,0(r3)
    1ba4:	013ffef4 	movhi	r4,65531
    1ba8:	21010d04 	addi	r4,r4,1076
    1bac:	2709883a 	add	r4,r4,fp
    1bb0:	20800015 	stw	r2,0(r4)
    1bb4:	00c00044 	movi	r3,1
    1bb8:	017ffef4 	movhi	r5,65531
    1bbc:	29410504 	addi	r5,r5,1044
    1bc0:	2f0b883a 	add	r5,r5,fp
    1bc4:	28800017 	ldw	r2,0(r5)
    1bc8:	1884983a 	sll	r2,r3,r2
    1bcc:	0084303a 	nor	r2,zero,r2
    1bd0:	1007883a 	mov	r3,r2
    1bd4:	d0a78a17 	ldw	r2,-25048(gp)
    1bd8:	1884703a 	and	r2,r3,r2
    1bdc:	d0a78a15 	stw	r2,-25048(gp)
    1be0:	d0a78a17 	ldw	r2,-25048(gp)
    1be4:	100170fa 	wrctl	ienable,r2
    1be8:	01fffef4 	movhi	r7,65531
    1bec:	39c10d04 	addi	r7,r7,1076
    1bf0:	3f0f883a 	add	r7,r7,fp
    1bf4:	38800017 	ldw	r2,0(r7)
    1bf8:	00fffef4 	movhi	r3,65531
    1bfc:	18c10e04 	addi	r3,r3,1080
    1c00:	1f07883a 	add	r3,r3,fp
    1c04:	18800015 	stw	r2,0(r3)
    1c08:	013ffef4 	movhi	r4,65531
    1c0c:	21010e04 	addi	r4,r4,1080
    1c10:	2709883a 	add	r4,r4,fp
    1c14:	20800017 	ldw	r2,0(r4)
    1c18:	1001703a 	wrctl	status,r2
    1c1c:	0005303a 	rdctl	r2,status
    1c20:	017ffef4 	movhi	r5,65531
    1c24:	29410b04 	addi	r5,r5,1068
    1c28:	2f0b883a 	add	r5,r5,fp
    1c2c:	28800015 	stw	r2,0(r5)
    1c30:	01fffef4 	movhi	r7,65531
    1c34:	39c10b04 	addi	r7,r7,1068
    1c38:	3f0f883a 	add	r7,r7,fp
    1c3c:	38c00017 	ldw	r3,0(r7)
    1c40:	00bfff84 	movi	r2,-2
    1c44:	1884703a 	and	r2,r3,r2
    1c48:	1001703a 	wrctl	status,r2
    1c4c:	003fff06 	br	1c4c <__alt_mem_VGA_Subsystem_Char_Buf_Subsystem_Onchip_SRAM+0xf7001c4c>
    1c50:	00800174 	movhi	r2,5
    1c54:	10bef604 	addi	r2,r2,-1064
    1c58:	00fffef4 	movhi	r3,65531
    1c5c:	18c0f304 	addi	r3,r3,972
    1c60:	1f07883a 	add	r3,r3,fp
    1c64:	1889883a 	add	r4,r3,r2
    1c68:	00800174 	movhi	r2,5
    1c6c:	10befe04 	addi	r2,r2,-1032
    1c70:	017ffef4 	movhi	r5,65531
    1c74:	2940f304 	addi	r5,r5,972
    1c78:	2f0b883a 	add	r5,r5,fp
    1c7c:	2887883a 	add	r3,r5,r2
    1c80:	00800174 	movhi	r2,5
    1c84:	10bef804 	addi	r2,r2,-1056
    1c88:	01fffef4 	movhi	r7,65531
    1c8c:	39c0f304 	addi	r7,r7,972
    1c90:	3f0f883a 	add	r7,r7,fp
    1c94:	3885883a 	add	r2,r7,r2
    1c98:	11400017 	ldw	r5,0(r2)
    1c9c:	d9400015 	stw	r5,0(sp)
    1ca0:	10800117 	ldw	r2,4(r2)
    1ca4:	d8800115 	stw	r2,4(sp)
    1ca8:	21800017 	ldw	r6,0(r4)
    1cac:	21c00117 	ldw	r7,4(r4)
    1cb0:	19000017 	ldw	r4,0(r3)
    1cb4:	19400117 	ldw	r5,4(r3)
    1cb8:	0003ed00 	call	3ed0 <clickedInArea>
    1cbc:	10803fcc 	andi	r2,r2,255
    1cc0:	10007326 	beq	r2,zero,1e90 <main+0x19d4>
    1cc4:	00fffef4 	movhi	r3,65531
    1cc8:	18c0f504 	addi	r3,r3,980
    1ccc:	1f07883a 	add	r3,r3,fp
    1cd0:	18800017 	ldw	r2,0(r3)
    1cd4:	10006e26 	beq	r2,zero,1e90 <main+0x19d4>
    1cd8:	013ffef4 	movhi	r4,65531
    1cdc:	2100f504 	addi	r4,r4,980
    1ce0:	2709883a 	add	r4,r4,fp
    1ce4:	20000015 	stw	zero,0(r4)
    1ce8:	017ffef4 	movhi	r5,65531
    1cec:	2940f304 	addi	r5,r5,972
    1cf0:	2f0b883a 	add	r5,r5,fp
    1cf4:	28000005 	stb	zero,0(r5)
    1cf8:	00800044 	movi	r2,1
    1cfc:	01fffef4 	movhi	r7,65531
    1d00:	39c0f344 	addi	r7,r7,973
    1d04:	3f0f883a 	add	r7,r7,fp
    1d08:	38800005 	stb	r2,0(r7)
    1d0c:	00bffef4 	movhi	r2,65531
    1d10:	1080f404 	addi	r2,r2,976
    1d14:	1705883a 	add	r2,r2,fp
    1d18:	11000017 	ldw	r4,0(r2)
    1d1c:	0002ac80 	call	2ac8 <dispScore>
    1d20:	013ffef4 	movhi	r4,65531
    1d24:	21011704 	addi	r4,r4,1116
    1d28:	2709883a 	add	r4,r4,fp
    1d2c:	20c00017 	ldw	r3,0(r4)
    1d30:	008000b4 	movhi	r2,2
    1d34:	10962604 	addi	r2,r2,22680
    1d38:	017ffef4 	movhi	r5,65531
    1d3c:	2940f304 	addi	r5,r5,972
    1d40:	2f0b883a 	add	r5,r5,fp
    1d44:	2889883a 	add	r4,r5,r2
    1d48:	01fffef4 	movhi	r7,65531
    1d4c:	39c11904 	addi	r7,r7,1124
    1d50:	e1c5883a 	add	r2,fp,r7
    1d54:	200d883a 	mov	r6,r4
    1d58:	100b883a 	mov	r5,r2
    1d5c:	1809883a 	mov	r4,r3
    1d60:	0002bdc0 	call	2bdc <dissolveEffect>
    1d64:	00fffef4 	movhi	r3,65531
    1d68:	18c11804 	addi	r3,r3,1120
    1d6c:	1f07883a 	add	r3,r3,fp
    1d70:	18800017 	ldw	r2,0(r3)
    1d74:	01400044 	movi	r5,1
    1d78:	1009883a 	mov	r4,r2
    1d7c:	00086c00 	call	86c0 <alt_up_video_dma_screen_clear>
    1d80:	013ffef4 	movhi	r4,65531
    1d84:	21011704 	addi	r4,r4,1116
    1d88:	2709883a 	add	r4,r4,fp
    1d8c:	20800017 	ldw	r2,0(r4)
    1d90:	01800074 	movhi	r6,1
    1d94:	31b6b704 	addi	r6,r6,-9508
    1d98:	01400044 	movi	r5,1
    1d9c:	1009883a 	mov	r4,r2
    1da0:	0003dc40 	call	3dc4 <initSplash>
    1da4:	017ffef4 	movhi	r5,65531
    1da8:	29411704 	addi	r5,r5,1116
    1dac:	2f0b883a 	add	r5,r5,fp
    1db0:	29000017 	ldw	r4,0(r5)
    1db4:	00800174 	movhi	r2,5
    1db8:	10bf0704 	addi	r2,r2,-996
    1dbc:	01fffef4 	movhi	r7,65531
    1dc0:	39c0f304 	addi	r7,r7,972
    1dc4:	3f0f883a 	add	r7,r7,fp
    1dc8:	3885883a 	add	r2,r7,r2
    1dcc:	11400017 	ldw	r5,0(r2)
    1dd0:	00800174 	movhi	r2,5
    1dd4:	10befe04 	addi	r2,r2,-1032
    1dd8:	00fffef4 	movhi	r3,65531
    1ddc:	18c0f304 	addi	r3,r3,972
    1de0:	1f07883a 	add	r3,r3,fp
    1de4:	1885883a 	add	r2,r3,r2
    1de8:	00c00044 	movi	r3,1
    1dec:	d8c00015 	stw	r3,0(sp)
    1df0:	11800017 	ldw	r6,0(r2)
    1df4:	11c00117 	ldw	r7,4(r2)
    1df8:	00034100 	call	3410 <drawCursor>
    1dfc:	00800174 	movhi	r2,5
    1e00:	10bf0904 	addi	r2,r2,-988
    1e04:	013ffef4 	movhi	r4,65531
    1e08:	2100f304 	addi	r4,r4,972
    1e0c:	2709883a 	add	r4,r4,fp
    1e10:	2085883a 	add	r2,r4,r2
    1e14:	100b883a 	mov	r5,r2
    1e18:	01000374 	movhi	r4,13
    1e1c:	21351f04 	addi	r4,r4,-11140
    1e20:	0004d900 	call	4d90 <reset_circles>
    1e24:	017ffef4 	movhi	r5,65531
    1e28:	2940f404 	addi	r5,r5,976
    1e2c:	2f0b883a 	add	r5,r5,fp
    1e30:	28000015 	stw	zero,0(r5)
    1e34:	01fffef4 	movhi	r7,65531
    1e38:	39c0f604 	addi	r7,r7,984
    1e3c:	3f0f883a 	add	r7,r7,fp
    1e40:	38000005 	stb	zero,0(r7)
    1e44:	00bffef4 	movhi	r2,65531
    1e48:	1080f644 	addi	r2,r2,985
    1e4c:	1705883a 	add	r2,r2,fp
    1e50:	10000005 	stb	zero,0(r2)
    1e54:	00fffef4 	movhi	r3,65531
    1e58:	18c0f704 	addi	r3,r3,988
    1e5c:	1f07883a 	add	r3,r3,fp
    1e60:	18000015 	stw	zero,0(r3)
    1e64:	00800044 	movi	r2,1
    1e68:	d0a77515 	stw	r2,-25132(gp)
    1e6c:	013ffef4 	movhi	r4,65531
    1e70:	2100f884 	addi	r4,r4,994
    1e74:	2709883a 	add	r4,r4,fp
    1e78:	20000005 	stb	zero,0(r4)
    1e7c:	017ffef4 	movhi	r5,65531
    1e80:	2940f8c4 	addi	r5,r5,995
    1e84:	2f0b883a 	add	r5,r5,fp
    1e88:	28000005 	stb	zero,0(r5)
    1e8c:	00021506 	br	26e4 <main+0x2228>
    1e90:	00800174 	movhi	r2,5
    1e94:	10befa04 	addi	r2,r2,-1048
    1e98:	01fffef4 	movhi	r7,65531
    1e9c:	39c0f304 	addi	r7,r7,972
    1ea0:	3f0f883a 	add	r7,r7,fp
    1ea4:	3889883a 	add	r4,r7,r2
    1ea8:	00800174 	movhi	r2,5
    1eac:	10befe04 	addi	r2,r2,-1032
    1eb0:	017ffef4 	movhi	r5,65531
    1eb4:	2940f304 	addi	r5,r5,972
    1eb8:	2f0b883a 	add	r5,r5,fp
    1ebc:	2887883a 	add	r3,r5,r2
    1ec0:	00800174 	movhi	r2,5
    1ec4:	10befc04 	addi	r2,r2,-1040
    1ec8:	01fffef4 	movhi	r7,65531
    1ecc:	39c0f304 	addi	r7,r7,972
    1ed0:	3f0f883a 	add	r7,r7,fp
    1ed4:	3885883a 	add	r2,r7,r2
    1ed8:	11400017 	ldw	r5,0(r2)
    1edc:	d9400015 	stw	r5,0(sp)
    1ee0:	10800117 	ldw	r2,4(r2)
    1ee4:	d8800115 	stw	r2,4(sp)
    1ee8:	21800017 	ldw	r6,0(r4)
    1eec:	21c00117 	ldw	r7,4(r4)
    1ef0:	19000017 	ldw	r4,0(r3)
    1ef4:	19400117 	ldw	r5,4(r3)
    1ef8:	0003ed00 	call	3ed0 <clickedInArea>
    1efc:	10803fcc 	andi	r2,r2,255
    1f00:	10003526 	beq	r2,zero,1fd8 <main+0x1b1c>
    1f04:	00fffef4 	movhi	r3,65531
    1f08:	18c0f504 	addi	r3,r3,980
    1f0c:	1f07883a 	add	r3,r3,fp
    1f10:	18800017 	ldw	r2,0(r3)
    1f14:	10800098 	cmpnei	r2,r2,2
    1f18:	10002f1e 	bne	r2,zero,1fd8 <main+0x1b1c>
    1f1c:	013ffef4 	movhi	r4,65531
    1f20:	2100f804 	addi	r4,r4,992
    1f24:	2709883a 	add	r4,r4,fp
    1f28:	20800003 	ldbu	r2,0(r4)
    1f2c:	1080005c 	xori	r2,r2,1
    1f30:	10803fcc 	andi	r2,r2,255
    1f34:	1001eb26 	beq	r2,zero,26e4 <main+0x2228>
    1f38:	017ffef4 	movhi	r5,65531
    1f3c:	2940f884 	addi	r5,r5,994
    1f40:	2f0b883a 	add	r5,r5,fp
    1f44:	28800003 	ldbu	r2,0(r5)
    1f48:	1004c03a 	cmpne	r2,r2,zero
    1f4c:	1080005c 	xori	r2,r2,1
    1f50:	10803fcc 	andi	r2,r2,255
    1f54:	01fffef4 	movhi	r7,65531
    1f58:	39c0f884 	addi	r7,r7,994
    1f5c:	3f0f883a 	add	r7,r7,fp
    1f60:	38800005 	stb	r2,0(r7)
    1f64:	00fffef4 	movhi	r3,65531
    1f68:	18c0f884 	addi	r3,r3,994
    1f6c:	1f07883a 	add	r3,r3,fp
    1f70:	18800003 	ldbu	r2,0(r3)
    1f74:	1080004c 	andi	r2,r2,1
    1f78:	013ffef4 	movhi	r4,65531
    1f7c:	2100f884 	addi	r4,r4,994
    1f80:	2709883a 	add	r4,r4,fp
    1f84:	20800005 	stb	r2,0(r4)
    1f88:	017ffef4 	movhi	r5,65531
    1f8c:	2940f604 	addi	r5,r5,984
    1f90:	2f0b883a 	add	r5,r5,fp
    1f94:	28000005 	stb	zero,0(r5)
    1f98:	01fffef4 	movhi	r7,65531
    1f9c:	39c0f644 	addi	r7,r7,985
    1fa0:	3f0f883a 	add	r7,r7,fp
    1fa4:	38000005 	stb	zero,0(r7)
    1fa8:	00bffef4 	movhi	r2,65531
    1fac:	1080f704 	addi	r2,r2,988
    1fb0:	1705883a 	add	r2,r2,fp
    1fb4:	10000015 	stw	zero,0(r2)
    1fb8:	00800044 	movi	r2,1
    1fbc:	d0a77515 	stw	r2,-25132(gp)
    1fc0:	00800044 	movi	r2,1
    1fc4:	00fffef4 	movhi	r3,65531
    1fc8:	18c0f804 	addi	r3,r3,992
    1fcc:	1f07883a 	add	r3,r3,fp
    1fd0:	18800005 	stb	r2,0(r3)
    1fd4:	0001c306 	br	26e4 <main+0x2228>
    1fd8:	013ffef4 	movhi	r4,65531
    1fdc:	2100f304 	addi	r4,r4,972
    1fe0:	2709883a 	add	r4,r4,fp
    1fe4:	20800003 	ldbu	r2,0(r4)
    1fe8:	1001be26 	beq	r2,zero,26e4 <main+0x2228>
    1fec:	017ffef4 	movhi	r5,65531
    1ff0:	2940f604 	addi	r5,r5,984
    1ff4:	2f0b883a 	add	r5,r5,fp
    1ff8:	28800003 	ldbu	r2,0(r5)
    1ffc:	1080005c 	xori	r2,r2,1
    2000:	10803fcc 	andi	r2,r2,255
    2004:	1001b726 	beq	r2,zero,26e4 <main+0x2228>
    2008:	01fffef4 	movhi	r7,65531
    200c:	39c0f884 	addi	r7,r7,994
    2010:	3f0f883a 	add	r7,r7,fp
    2014:	38800003 	ldbu	r2,0(r7)
    2018:	1080005c 	xori	r2,r2,1
    201c:	10803fcc 	andi	r2,r2,255
    2020:	1001b026 	beq	r2,zero,26e4 <main+0x2228>
    2024:	00bffef4 	movhi	r2,65531
    2028:	1080f844 	addi	r2,r2,993
    202c:	1705883a 	add	r2,r2,fp
    2030:	10000005 	stb	zero,0(r2)
    2034:	00800174 	movhi	r2,5
    2038:	10befe04 	addi	r2,r2,-1032
    203c:	00fffef4 	movhi	r3,65531
    2040:	18c0f304 	addi	r3,r3,972
    2044:	1f07883a 	add	r3,r3,fp
    2048:	1885883a 	add	r2,r3,r2
    204c:	10800017 	ldw	r2,0(r2)
    2050:	013ffef4 	movhi	r4,65531
    2054:	21010604 	addi	r4,r4,1048
    2058:	2709883a 	add	r4,r4,fp
    205c:	20800015 	stw	r2,0(r4)
    2060:	00800174 	movhi	r2,5
    2064:	10befe04 	addi	r2,r2,-1032
    2068:	017ffef4 	movhi	r5,65531
    206c:	2940f304 	addi	r5,r5,972
    2070:	2f0b883a 	add	r5,r5,fp
    2074:	2885883a 	add	r2,r5,r2
    2078:	10800117 	ldw	r2,4(r2)
    207c:	01fffef4 	movhi	r7,65531
    2080:	39c10704 	addi	r7,r7,1052
    2084:	3f0f883a 	add	r7,r7,fp
    2088:	38800015 	stw	r2,0(r7)
    208c:	00fffef4 	movhi	r3,65531
    2090:	18c10604 	addi	r3,r3,1048
    2094:	1f07883a 	add	r3,r3,fp
    2098:	18800017 	ldw	r2,0(r3)
    209c:	0081910e 	bge	zero,r2,26e4 <main+0x2228>
    20a0:	013ffef4 	movhi	r4,65531
    20a4:	21010604 	addi	r4,r4,1048
    20a8:	2709883a 	add	r4,r4,fp
    20ac:	20800017 	ldw	r2,0(r4)
    20b0:	10802d08 	cmpgei	r2,r2,180
    20b4:	10018b1e 	bne	r2,zero,26e4 <main+0x2228>
    20b8:	017ffef4 	movhi	r5,65531
    20bc:	29410704 	addi	r5,r5,1052
    20c0:	2f0b883a 	add	r5,r5,fp
    20c4:	28800017 	ldw	r2,0(r5)
    20c8:	108002d0 	cmplti	r2,r2,11
    20cc:	1001851e 	bne	r2,zero,26e4 <main+0x2228>
    20d0:	01fffef4 	movhi	r7,65531
    20d4:	39c10704 	addi	r7,r7,1052
    20d8:	3f0f883a 	add	r7,r7,fp
    20dc:	38800017 	ldw	r2,0(r7)
    20e0:	10800788 	cmpgei	r2,r2,30
    20e4:	10017f1e 	bne	r2,zero,26e4 <main+0x2228>
    20e8:	00fffef4 	movhi	r3,65531
    20ec:	18c10604 	addi	r3,r3,1048
    20f0:	1f07883a 	add	r3,r3,fp
    20f4:	18800017 	ldw	r2,0(r3)
    20f8:	1007feb2 	custom	250,r3,r2,zero
    20fc:	00800374 	movhi	r2,13
    2100:	10b51204 	addi	r2,r2,-11192
    2104:	10c00015 	stw	r3,0(r2)
    2108:	013ffef4 	movhi	r4,65531
    210c:	21010704 	addi	r4,r4,1052
    2110:	2709883a 	add	r4,r4,fp
    2114:	20800017 	ldw	r2,0(r4)
    2118:	1007feb2 	custom	250,r3,r2,zero
    211c:	00800374 	movhi	r2,13
    2120:	10b51204 	addi	r2,r2,-11192
    2124:	10c00115 	stw	r3,4(r2)
    2128:	017ffef4 	movhi	r5,65531
    212c:	29410604 	addi	r5,r5,1048
    2130:	2f0b883a 	add	r5,r5,fp
    2134:	28800017 	ldw	r2,0(r5)
    2138:	1007feb2 	custom	250,r3,r2,zero
    213c:	00800374 	movhi	r2,13
    2140:	10b51204 	addi	r2,r2,-11192
    2144:	10c00215 	stw	r3,8(r2)
    2148:	01fffef4 	movhi	r7,65531
    214c:	39c10704 	addi	r7,r7,1052
    2150:	3f0f883a 	add	r7,r7,fp
    2154:	38800017 	ldw	r2,0(r7)
    2158:	1007feb2 	custom	250,r3,r2,zero
    215c:	00800374 	movhi	r2,13
    2160:	10b51204 	addi	r2,r2,-11192
    2164:	10c00315 	stw	r3,12(r2)
    2168:	00800374 	movhi	r2,13
    216c:	10b51204 	addi	r2,r2,-11192
    2170:	10000515 	stw	zero,20(r2)
    2174:	00800374 	movhi	r2,13
    2178:	10b51204 	addi	r2,r2,-11192
    217c:	00d04834 	movhi	r3,16672
    2180:	10c00615 	stw	r3,24(r2)
    2184:	00800374 	movhi	r2,13
    2188:	10b51204 	addi	r2,r2,-11192
    218c:	00c00244 	movi	r3,9
    2190:	10c00a15 	stw	r3,40(r2)
    2194:	00800374 	movhi	r2,13
    2198:	10b51204 	addi	r2,r2,-11192
    219c:	10000415 	stw	zero,16(r2)
    21a0:	00800174 	movhi	r2,5
    21a4:	10bf0804 	addi	r2,r2,-992
    21a8:	00fffef4 	movhi	r3,65531
    21ac:	18c0f304 	addi	r3,r3,972
    21b0:	1f07883a 	add	r3,r3,fp
    21b4:	1885883a 	add	r2,r3,r2
    21b8:	10c00017 	ldw	r3,0(r2)
    21bc:	00800374 	movhi	r2,13
    21c0:	10b51204 	addi	r2,r2,-11192
    21c4:	10c00c15 	stw	r3,48(r2)
    21c8:	00800374 	movhi	r2,13
    21cc:	10b51204 	addi	r2,r2,-11192
    21d0:	10000905 	stb	zero,36(r2)
    21d4:	d0a77517 	ldw	r2,-25132(gp)
    21d8:	10800044 	addi	r2,r2,1
    21dc:	d0a77515 	stw	r2,-25132(gp)
    21e0:	00800044 	movi	r2,1
    21e4:	013ffef4 	movhi	r4,65531
    21e8:	2100f604 	addi	r4,r4,984
    21ec:	2709883a 	add	r4,r4,fp
    21f0:	20800005 	stb	r2,0(r4)
    21f4:	00013b06 	br	26e4 <main+0x2228>
    21f8:	d0a78803 	ldbu	r2,-25056(gp)
    21fc:	10803fcc 	andi	r2,r2,255
    2200:	10006d26 	beq	r2,zero,23b8 <main+0x1efc>
    2204:	017ffef4 	movhi	r5,65531
    2208:	2940f604 	addi	r5,r5,984
    220c:	2f0b883a 	add	r5,r5,fp
    2210:	28000005 	stb	zero,0(r5)
    2214:	01fffef4 	movhi	r7,65531
    2218:	39c0f504 	addi	r7,r7,980
    221c:	3f0f883a 	add	r7,r7,fp
    2220:	38800017 	ldw	r2,0(r7)
    2224:	10800058 	cmpnei	r2,r2,1
    2228:	1000131e 	bne	r2,zero,2278 <main+0x1dbc>
    222c:	00800174 	movhi	r2,5
    2230:	10bf0904 	addi	r2,r2,-988
    2234:	00fffef4 	movhi	r3,65531
    2238:	18c0f304 	addi	r3,r3,972
    223c:	1f07883a 	add	r3,r3,fp
    2240:	1885883a 	add	r2,r3,r2
    2244:	100b883a 	mov	r5,r2
    2248:	01000374 	movhi	r4,13
    224c:	21351f04 	addi	r4,r4,-11140
    2250:	0004d900 	call	4d90 <reset_circles>
    2254:	013ffef4 	movhi	r4,65531
    2258:	2100f644 	addi	r4,r4,985
    225c:	2709883a 	add	r4,r4,fp
    2260:	20000005 	stb	zero,0(r4)
    2264:	017ffef4 	movhi	r5,65531
    2268:	2940f704 	addi	r5,r5,988
    226c:	2f0b883a 	add	r5,r5,fp
    2270:	28000015 	stw	zero,0(r5)
    2274:	00001106 	br	22bc <main+0x1e00>
    2278:	01fffef4 	movhi	r7,65531
    227c:	39c0f504 	addi	r7,r7,980
    2280:	3f0f883a 	add	r7,r7,fp
    2284:	38800017 	ldw	r2,0(r7)
    2288:	10800098 	cmpnei	r2,r2,2
    228c:	10000b1e 	bne	r2,zero,22bc <main+0x1e00>
    2290:	01000374 	movhi	r4,13
    2294:	21351f04 	addi	r4,r4,-11140
    2298:	0004e240 	call	4e24 <randomize_position>
    229c:	00bffef4 	movhi	r2,65531
    22a0:	1080f644 	addi	r2,r2,985
    22a4:	1705883a 	add	r2,r2,fp
    22a8:	10000005 	stb	zero,0(r2)
    22ac:	00fffef4 	movhi	r3,65531
    22b0:	18c0f704 	addi	r3,r3,988
    22b4:	1f07883a 	add	r3,r3,fp
    22b8:	18000015 	stw	zero,0(r3)
    22bc:	013ffef4 	movhi	r4,65531
    22c0:	21011804 	addi	r4,r4,1120
    22c4:	2709883a 	add	r4,r4,fp
    22c8:	20c00017 	ldw	r3,0(r4)
    22cc:	00800044 	movi	r2,1
    22d0:	d8800015 	stw	r2,0(sp)
    22d4:	01c00284 	movi	r7,10
    22d8:	01800284 	movi	r6,10
    22dc:	014001b4 	movhi	r5,6
    22e0:	2962bb04 	addi	r5,r5,-29972
    22e4:	1809883a 	mov	r4,r3
    22e8:	000847c0 	call	847c <alt_up_video_dma_draw_string>
    22ec:	00800044 	movi	r2,1
    22f0:	d0a77515 	stw	r2,-25132(gp)
    22f4:	017ffef4 	movhi	r5,65531
    22f8:	2940f844 	addi	r5,r5,993
    22fc:	2f0b883a 	add	r5,r5,fp
    2300:	28800003 	ldbu	r2,0(r5)
    2304:	1080005c 	xori	r2,r2,1
    2308:	10803fcc 	andi	r2,r2,255
    230c:	10000e26 	beq	r2,zero,2348 <main+0x1e8c>
    2310:	01fffef4 	movhi	r7,65531
    2314:	39c0f404 	addi	r7,r7,976
    2318:	3f0f883a 	add	r7,r7,fp
    231c:	38800017 	ldw	r2,0(r7)
    2320:	10800044 	addi	r2,r2,1
    2324:	00fffef4 	movhi	r3,65531
    2328:	18c0f404 	addi	r3,r3,976
    232c:	1f07883a 	add	r3,r3,fp
    2330:	18800015 	stw	r2,0(r3)
    2334:	00800044 	movi	r2,1
    2338:	013ffef4 	movhi	r4,65531
    233c:	2100f844 	addi	r4,r4,993
    2340:	2709883a 	add	r4,r4,fp
    2344:	20800005 	stb	r2,0(r4)
    2348:	017ffef4 	movhi	r5,65531
    234c:	2940f404 	addi	r5,r5,976
    2350:	2f0b883a 	add	r5,r5,fp
    2354:	29000017 	ldw	r4,0(r5)
    2358:	0002ac80 	call	2ac8 <dispScore>
    235c:	01fffef4 	movhi	r7,65531
    2360:	39c11704 	addi	r7,r7,1116
    2364:	3f0f883a 	add	r7,r7,fp
    2368:	39000017 	ldw	r4,0(r7)
    236c:	00800174 	movhi	r2,5
    2370:	10bf0504 	addi	r2,r2,-1004
    2374:	00fffef4 	movhi	r3,65531
    2378:	18c0f304 	addi	r3,r3,972
    237c:	1f07883a 	add	r3,r3,fp
    2380:	1885883a 	add	r2,r3,r2
    2384:	11400017 	ldw	r5,0(r2)
    2388:	00800174 	movhi	r2,5
    238c:	10befe04 	addi	r2,r2,-1032
    2390:	01fffef4 	movhi	r7,65531
    2394:	39c0f304 	addi	r7,r7,972
    2398:	3f0f883a 	add	r7,r7,fp
    239c:	3885883a 	add	r2,r7,r2
    23a0:	00c00044 	movi	r3,1
    23a4:	d8c00015 	stw	r3,0(sp)
    23a8:	11800017 	ldw	r6,0(r2)
    23ac:	11c00117 	ldw	r7,4(r2)
    23b0:	00034100 	call	3410 <drawCursor>
    23b4:	0000cb06 	br	26e4 <main+0x2228>
    23b8:	00fffef4 	movhi	r3,65531
    23bc:	18c0f884 	addi	r3,r3,994
    23c0:	1f07883a 	add	r3,r3,fp
    23c4:	18800003 	ldbu	r2,0(r3)
    23c8:	10008c26 	beq	r2,zero,25fc <main+0x2140>
    23cc:	013ffef4 	movhi	r4,65531
    23d0:	2100f8c4 	addi	r4,r4,995
    23d4:	2709883a 	add	r4,r4,fp
    23d8:	20800003 	ldbu	r2,0(r4)
    23dc:	1080005c 	xori	r2,r2,1
    23e0:	10803fcc 	andi	r2,r2,255
    23e4:	10008526 	beq	r2,zero,25fc <main+0x2140>
    23e8:	017ffef4 	movhi	r5,65531
    23ec:	2940f304 	addi	r5,r5,972
    23f0:	2f0b883a 	add	r5,r5,fp
    23f4:	28800003 	ldbu	r2,0(r5)
    23f8:	10008026 	beq	r2,zero,25fc <main+0x2140>
    23fc:	01fffef4 	movhi	r7,65531
    2400:	39c0f604 	addi	r7,r7,984
    2404:	3f0f883a 	add	r7,r7,fp
    2408:	38800003 	ldbu	r2,0(r7)
    240c:	1080005c 	xori	r2,r2,1
    2410:	10803fcc 	andi	r2,r2,255
    2414:	10007926 	beq	r2,zero,25fc <main+0x2140>
    2418:	00bffef4 	movhi	r2,65531
    241c:	10811804 	addi	r2,r2,1120
    2420:	1705883a 	add	r2,r2,fp
    2424:	10c00017 	ldw	r3,0(r2)
    2428:	00800044 	movi	r2,1
    242c:	d8800015 	stw	r2,0(sp)
    2430:	01c00284 	movi	r7,10
    2434:	01800284 	movi	r6,10
    2438:	014001b4 	movhi	r5,6
    243c:	2962bb04 	addi	r5,r5,-29972
    2440:	1809883a 	mov	r4,r3
    2444:	000847c0 	call	847c <alt_up_video_dma_draw_string>
    2448:	000541c0 	call	541c <rand>
    244c:	00c02d04 	movi	r3,180
    2450:	10c7283a 	div	r3,r2,r3
    2454:	18c02d24 	muli	r3,r3,180
    2458:	10c5c83a 	sub	r2,r2,r3
    245c:	00fffef4 	movhi	r3,65531
    2460:	18c10804 	addi	r3,r3,1056
    2464:	1f07883a 	add	r3,r3,fp
    2468:	18800015 	stw	r2,0(r3)
    246c:	000541c0 	call	541c <rand>
    2470:	00c00544 	movi	r3,21
    2474:	10c7283a 	div	r3,r2,r3
    2478:	18c00564 	muli	r3,r3,21
    247c:	10c5c83a 	sub	r2,r2,r3
    2480:	10800284 	addi	r2,r2,10
    2484:	013ffef4 	movhi	r4,65531
    2488:	21010904 	addi	r4,r4,1060
    248c:	2709883a 	add	r4,r4,fp
    2490:	20800015 	stw	r2,0(r4)
    2494:	000541c0 	call	541c <rand>
    2498:	1007883a 	mov	r3,r2
    249c:	008000c4 	movi	r2,3
    24a0:	1889283a 	div	r4,r3,r2
    24a4:	2005883a 	mov	r2,r4
    24a8:	1085883a 	add	r2,r2,r2
    24ac:	1105883a 	add	r2,r2,r4
    24b0:	1885c83a 	sub	r2,r3,r2
    24b4:	10bfffc4 	addi	r2,r2,-1
    24b8:	017ffef4 	movhi	r5,65531
    24bc:	29410a04 	addi	r5,r5,1064
    24c0:	2f0b883a 	add	r5,r5,fp
    24c4:	28800015 	stw	r2,0(r5)
    24c8:	01fffef4 	movhi	r7,65531
    24cc:	39c10804 	addi	r7,r7,1056
    24d0:	3f0f883a 	add	r7,r7,fp
    24d4:	38800017 	ldw	r2,0(r7)
    24d8:	1007feb2 	custom	250,r3,r2,zero
    24dc:	00800374 	movhi	r2,13
    24e0:	10b51204 	addi	r2,r2,-11192
    24e4:	10c00015 	stw	r3,0(r2)
    24e8:	00fffef4 	movhi	r3,65531
    24ec:	18c10904 	addi	r3,r3,1060
    24f0:	1f07883a 	add	r3,r3,fp
    24f4:	18800017 	ldw	r2,0(r3)
    24f8:	1007feb2 	custom	250,r3,r2,zero
    24fc:	00800374 	movhi	r2,13
    2500:	10b51204 	addi	r2,r2,-11192
    2504:	10c00115 	stw	r3,4(r2)
    2508:	013ffef4 	movhi	r4,65531
    250c:	21010804 	addi	r4,r4,1056
    2510:	2709883a 	add	r4,r4,fp
    2514:	20c00017 	ldw	r3,0(r4)
    2518:	017ffef4 	movhi	r5,65531
    251c:	29410a04 	addi	r5,r5,1064
    2520:	2f0b883a 	add	r5,r5,fp
    2524:	28800017 	ldw	r2,0(r5)
    2528:	1885883a 	add	r2,r3,r2
    252c:	1007feb2 	custom	250,r3,r2,zero
    2530:	00800374 	movhi	r2,13
    2534:	10b51204 	addi	r2,r2,-11192
    2538:	10c00215 	stw	r3,8(r2)
    253c:	01fffef4 	movhi	r7,65531
    2540:	39c10904 	addi	r7,r7,1060
    2544:	3f0f883a 	add	r7,r7,fp
    2548:	38800017 	ldw	r2,0(r7)
    254c:	1007feb2 	custom	250,r3,r2,zero
    2550:	00800374 	movhi	r2,13
    2554:	10b51204 	addi	r2,r2,-11192
    2558:	10c00315 	stw	r3,12(r2)
    255c:	00800374 	movhi	r2,13
    2560:	10b51204 	addi	r2,r2,-11192
    2564:	10000515 	stw	zero,20(r2)
    2568:	00800374 	movhi	r2,13
    256c:	10b51204 	addi	r2,r2,-11192
    2570:	00d04834 	movhi	r3,16672
    2574:	10c00615 	stw	r3,24(r2)
    2578:	00800374 	movhi	r2,13
    257c:	10b51204 	addi	r2,r2,-11192
    2580:	00c00244 	movi	r3,9
    2584:	10c00a15 	stw	r3,40(r2)
    2588:	00800374 	movhi	r2,13
    258c:	10b51204 	addi	r2,r2,-11192
    2590:	10000415 	stw	zero,16(r2)
    2594:	00800174 	movhi	r2,5
    2598:	10bf0804 	addi	r2,r2,-992
    259c:	00fffef4 	movhi	r3,65531
    25a0:	18c0f304 	addi	r3,r3,972
    25a4:	1f07883a 	add	r3,r3,fp
    25a8:	1885883a 	add	r2,r3,r2
    25ac:	10c00017 	ldw	r3,0(r2)
    25b0:	00800374 	movhi	r2,13
    25b4:	10b51204 	addi	r2,r2,-11192
    25b8:	10c00c15 	stw	r3,48(r2)
    25bc:	00800374 	movhi	r2,13
    25c0:	10b51204 	addi	r2,r2,-11192
    25c4:	10000905 	stb	zero,36(r2)
    25c8:	d0a77517 	ldw	r2,-25132(gp)
    25cc:	10800044 	addi	r2,r2,1
    25d0:	d0a77515 	stw	r2,-25132(gp)
    25d4:	00800044 	movi	r2,1
    25d8:	013ffef4 	movhi	r4,65531
    25dc:	2100f604 	addi	r4,r4,984
    25e0:	2709883a 	add	r4,r4,fp
    25e4:	20800005 	stb	r2,0(r4)
    25e8:	017ffef4 	movhi	r5,65531
    25ec:	2940f404 	addi	r5,r5,976
    25f0:	2f0b883a 	add	r5,r5,fp
    25f4:	28000015 	stw	zero,0(r5)
    25f8:	00003a06 	br	26e4 <main+0x2228>
    25fc:	01fffef4 	movhi	r7,65531
    2600:	39c0f8c4 	addi	r7,r7,995
    2604:	3f0f883a 	add	r7,r7,fp
    2608:	38800003 	ldbu	r2,0(r7)
    260c:	10001b26 	beq	r2,zero,267c <main+0x21c0>
    2610:	00fffef4 	movhi	r3,65531
    2614:	18c0f884 	addi	r3,r3,994
    2618:	1f07883a 	add	r3,r3,fp
    261c:	18800003 	ldbu	r2,0(r3)
    2620:	10001626 	beq	r2,zero,267c <main+0x21c0>
    2624:	013ffef4 	movhi	r4,65531
    2628:	2100f604 	addi	r4,r4,984
    262c:	2709883a 	add	r4,r4,fp
    2630:	20000005 	stb	zero,0(r4)
    2634:	01000374 	movhi	r4,13
    2638:	21351f04 	addi	r4,r4,-11140
    263c:	0004e240 	call	4e24 <randomize_position>
    2640:	017ffef4 	movhi	r5,65531
    2644:	2940f644 	addi	r5,r5,985
    2648:	2f0b883a 	add	r5,r5,fp
    264c:	28000005 	stb	zero,0(r5)
    2650:	01fffef4 	movhi	r7,65531
    2654:	39c0f704 	addi	r7,r7,988
    2658:	3f0f883a 	add	r7,r7,fp
    265c:	38000015 	stw	zero,0(r7)
    2660:	00bffef4 	movhi	r2,65531
    2664:	1080f8c4 	addi	r2,r2,995
    2668:	1705883a 	add	r2,r2,fp
    266c:	10000005 	stb	zero,0(r2)
    2670:	00800044 	movi	r2,1
    2674:	d0a77515 	stw	r2,-25132(gp)
    2678:	00001a06 	br	26e4 <main+0x2228>
    267c:	00fffef4 	movhi	r3,65531
    2680:	18c0f804 	addi	r3,r3,992
    2684:	1f07883a 	add	r3,r3,fp
    2688:	18000005 	stb	zero,0(r3)
    268c:	017ffef4 	movhi	r5,65531
    2690:	29411704 	addi	r5,r5,1116
    2694:	2f0b883a 	add	r5,r5,fp
    2698:	29000017 	ldw	r4,0(r5)
    269c:	00800174 	movhi	r2,5
    26a0:	10bf0604 	addi	r2,r2,-1000
    26a4:	01fffef4 	movhi	r7,65531
    26a8:	39c0f304 	addi	r7,r7,972
    26ac:	3f0f883a 	add	r7,r7,fp
    26b0:	3885883a 	add	r2,r7,r2
    26b4:	11400017 	ldw	r5,0(r2)
    26b8:	00800174 	movhi	r2,5
    26bc:	10befe04 	addi	r2,r2,-1032
    26c0:	00fffef4 	movhi	r3,65531
    26c4:	18c0f304 	addi	r3,r3,972
    26c8:	1f07883a 	add	r3,r3,fp
    26cc:	1885883a 	add	r2,r3,r2
    26d0:	00c00044 	movi	r3,1
    26d4:	d8c00015 	stw	r3,0(sp)
    26d8:	11800017 	ldw	r6,0(r2)
    26dc:	11c00117 	ldw	r7,4(r2)
    26e0:	00034100 	call	3410 <drawCursor>
    26e4:	013ffef4 	movhi	r4,65531
    26e8:	2100f304 	addi	r4,r4,972
    26ec:	2709883a 	add	r4,r4,fp
    26f0:	20800003 	ldbu	r2,0(r4)
    26f4:	1000c726 	beq	r2,zero,2a14 <main+0x2558>
    26f8:	017ffef4 	movhi	r5,65531
    26fc:	2940f504 	addi	r5,r5,980
    2700:	2f0b883a 	add	r5,r5,fp
    2704:	28800017 	ldw	r2,0(r5)
    2708:	10800058 	cmpnei	r2,r2,1
    270c:	10000d1e 	bne	r2,zero,2744 <main+0x2288>
    2710:	01fffef4 	movhi	r7,65531
    2714:	39c11804 	addi	r7,r7,1120
    2718:	3f0f883a 	add	r7,r7,fp
    271c:	38c00017 	ldw	r3,0(r7)
    2720:	00800044 	movi	r2,1
    2724:	d8800015 	stw	r2,0(sp)
    2728:	01c00044 	movi	r7,1
    272c:	01800044 	movi	r6,1
    2730:	014001b4 	movhi	r5,6
    2734:	2962bd04 	addi	r5,r5,-29964
    2738:	1809883a 	mov	r4,r3
    273c:	000847c0 	call	847c <alt_up_video_dma_draw_string>
    2740:	00000c06 	br	2774 <main+0x22b8>
    2744:	00bffef4 	movhi	r2,65531
    2748:	10811804 	addi	r2,r2,1120
    274c:	1705883a 	add	r2,r2,fp
    2750:	10c00017 	ldw	r3,0(r2)
    2754:	00800044 	movi	r2,1
    2758:	d8800015 	stw	r2,0(sp)
    275c:	01c00044 	movi	r7,1
    2760:	01800044 	movi	r6,1
    2764:	014001b4 	movhi	r5,6
    2768:	2962c204 	addi	r5,r5,-29944
    276c:	1809883a 	mov	r4,r3
    2770:	000847c0 	call	847c <alt_up_video_dma_draw_string>
    2774:	00fffef4 	movhi	r3,65531
    2778:	18c0f604 	addi	r3,r3,984
    277c:	1f07883a 	add	r3,r3,fp
    2780:	18800003 	ldbu	r2,0(r3)
    2784:	1000a326 	beq	r2,zero,2a14 <main+0x2558>
    2788:	013ffef4 	movhi	r4,65531
    278c:	21011704 	addi	r4,r4,1116
    2790:	2709883a 	add	r4,r4,fp
    2794:	20800017 	ldw	r2,0(r4)
    2798:	100b883a 	mov	r5,r2
    279c:	01fffef4 	movhi	r7,65531
    27a0:	39c10204 	addi	r7,r7,1032
    27a4:	3f0f883a 	add	r7,r7,fp
    27a8:	39000017 	ldw	r4,0(r7)
    27ac:	00049680 	call	4968 <update_all>
    27b0:	00800044 	movi	r2,1
    27b4:	00fffef4 	movhi	r3,65531
    27b8:	18c0f644 	addi	r3,r3,985
    27bc:	1f07883a 	add	r3,r3,fp
    27c0:	18800005 	stb	r2,0(r3)
    27c4:	013ffef4 	movhi	r4,65531
    27c8:	2100f884 	addi	r4,r4,994
    27cc:	2709883a 	add	r4,r4,fp
    27d0:	20800003 	ldbu	r2,0(r4)
    27d4:	10002626 	beq	r2,zero,2870 <main+0x23b4>
    27d8:	017ffef4 	movhi	r5,65531
    27dc:	2940f904 	addi	r5,r5,996
    27e0:	2f0b883a 	add	r5,r5,fp
    27e4:	28000015 	stw	zero,0(r5)
    27e8:	00001a06 	br	2854 <main+0x2398>
    27ec:	00800374 	movhi	r2,13
    27f0:	10b51204 	addi	r2,r2,-11192
    27f4:	01fffef4 	movhi	r7,65531
    27f8:	39c0f904 	addi	r7,r7,996
    27fc:	3f0f883a 	add	r7,r7,fp
    2800:	38c00017 	ldw	r3,0(r7)
    2804:	18c00d24 	muli	r3,r3,52
    2808:	10c5883a 	add	r2,r2,r3
    280c:	10800904 	addi	r2,r2,36
    2810:	10800003 	ldbu	r2,0(r2)
    2814:	1080005c 	xori	r2,r2,1
    2818:	10803fcc 	andi	r2,r2,255
    281c:	10000426 	beq	r2,zero,2830 <main+0x2374>
    2820:	00bffef4 	movhi	r2,65531
    2824:	1080f644 	addi	r2,r2,985
    2828:	1705883a 	add	r2,r2,fp
    282c:	10000005 	stb	zero,0(r2)
    2830:	00fffef4 	movhi	r3,65531
    2834:	18c0f904 	addi	r3,r3,996
    2838:	1f07883a 	add	r3,r3,fp
    283c:	18800017 	ldw	r2,0(r3)
    2840:	10800044 	addi	r2,r2,1
    2844:	013ffef4 	movhi	r4,65531
    2848:	2100f904 	addi	r4,r4,996
    284c:	2709883a 	add	r4,r4,fp
    2850:	20800015 	stw	r2,0(r4)
    2854:	d0a77517 	ldw	r2,-25132(gp)
    2858:	017ffef4 	movhi	r5,65531
    285c:	2940f904 	addi	r5,r5,996
    2860:	2f0b883a 	add	r5,r5,fp
    2864:	28c00017 	ldw	r3,0(r5)
    2868:	18bfe016 	blt	r3,r2,27ec <__alt_mem_VGA_Subsystem_Char_Buf_Subsystem_Onchip_SRAM+0xf70027ec>
    286c:	00002606 	br	2908 <main+0x244c>
    2870:	00800044 	movi	r2,1
    2874:	01fffef4 	movhi	r7,65531
    2878:	39c0fa04 	addi	r7,r7,1000
    287c:	3f0f883a 	add	r7,r7,fp
    2880:	38800015 	stw	r2,0(r7)
    2884:	00001a06 	br	28f0 <main+0x2434>
    2888:	00800374 	movhi	r2,13
    288c:	10b51204 	addi	r2,r2,-11192
    2890:	013ffef4 	movhi	r4,65531
    2894:	2100fa04 	addi	r4,r4,1000
    2898:	2709883a 	add	r4,r4,fp
    289c:	20c00017 	ldw	r3,0(r4)
    28a0:	18c00d24 	muli	r3,r3,52
    28a4:	10c5883a 	add	r2,r2,r3
    28a8:	10800904 	addi	r2,r2,36
    28ac:	10800003 	ldbu	r2,0(r2)
    28b0:	1080005c 	xori	r2,r2,1
    28b4:	10803fcc 	andi	r2,r2,255
    28b8:	10000426 	beq	r2,zero,28cc <main+0x2410>
    28bc:	017ffef4 	movhi	r5,65531
    28c0:	2940f644 	addi	r5,r5,985
    28c4:	2f0b883a 	add	r5,r5,fp
    28c8:	28000005 	stb	zero,0(r5)
    28cc:	01fffef4 	movhi	r7,65531
    28d0:	39c0fa04 	addi	r7,r7,1000
    28d4:	3f0f883a 	add	r7,r7,fp
    28d8:	38800017 	ldw	r2,0(r7)
    28dc:	10800044 	addi	r2,r2,1
    28e0:	00fffef4 	movhi	r3,65531
    28e4:	18c0fa04 	addi	r3,r3,1000
    28e8:	1f07883a 	add	r3,r3,fp
    28ec:	18800015 	stw	r2,0(r3)
    28f0:	d0a77517 	ldw	r2,-25132(gp)
    28f4:	013ffef4 	movhi	r4,65531
    28f8:	2100fa04 	addi	r4,r4,1000
    28fc:	2709883a 	add	r4,r4,fp
    2900:	20c00017 	ldw	r3,0(r4)
    2904:	18bfe016 	blt	r3,r2,2888 <__alt_mem_VGA_Subsystem_Char_Buf_Subsystem_Onchip_SRAM+0xf7002888>
    2908:	017ffef4 	movhi	r5,65531
    290c:	2940f644 	addi	r5,r5,985
    2910:	2f0b883a 	add	r5,r5,fp
    2914:	28800003 	ldbu	r2,0(r5)
    2918:	10003a26 	beq	r2,zero,2a04 <main+0x2548>
    291c:	01fffef4 	movhi	r7,65531
    2920:	39c0f704 	addi	r7,r7,988
    2924:	3f0f883a 	add	r7,r7,fp
    2928:	38800017 	ldw	r2,0(r7)
    292c:	10800150 	cmplti	r2,r2,5
    2930:	10002a1e 	bne	r2,zero,29dc <main+0x2520>
    2934:	00fffef4 	movhi	r3,65531
    2938:	18c0f884 	addi	r3,r3,994
    293c:	1f07883a 	add	r3,r3,fp
    2940:	18800003 	ldbu	r2,0(r3)
    2944:	10000626 	beq	r2,zero,2960 <main+0x24a4>
    2948:	00800044 	movi	r2,1
    294c:	013ffef4 	movhi	r4,65531
    2950:	2100f8c4 	addi	r4,r4,995
    2954:	2709883a 	add	r4,r4,fp
    2958:	20800005 	stb	r2,0(r4)
    295c:	00002d06 	br	2a14 <main+0x2558>
    2960:	01c03c04 	movi	r7,240
    2964:	01803204 	movi	r6,200
    2968:	01404fc4 	movi	r5,319
    296c:	01004604 	movi	r4,280
    2970:	0004b740 	call	4b74 <check_game_status>
    2974:	10803fcc 	andi	r2,r2,255
    2978:	10002626 	beq	r2,zero,2a14 <main+0x2558>
    297c:	017ffef4 	movhi	r5,65531
    2980:	2940f884 	addi	r5,r5,994
    2984:	2f0b883a 	add	r5,r5,fp
    2988:	28800003 	ldbu	r2,0(r5)
    298c:	1080005c 	xori	r2,r2,1
    2990:	10803fcc 	andi	r2,r2,255
    2994:	10001f26 	beq	r2,zero,2a14 <main+0x2558>
    2998:	01fffef4 	movhi	r7,65531
    299c:	39c11804 	addi	r7,r7,1120
    29a0:	3f0f883a 	add	r7,r7,fp
    29a4:	38c00017 	ldw	r3,0(r7)
    29a8:	00800044 	movi	r2,1
    29ac:	d8800015 	stw	r2,0(sp)
    29b0:	01c00284 	movi	r7,10
    29b4:	01800284 	movi	r6,10
    29b8:	014001b4 	movhi	r5,6
    29bc:	2962c704 	addi	r5,r5,-29924
    29c0:	1809883a 	mov	r4,r3
    29c4:	000847c0 	call	847c <alt_up_video_dma_draw_string>
    29c8:	00bffef4 	movhi	r2,65531
    29cc:	1080f404 	addi	r2,r2,976
    29d0:	1705883a 	add	r2,r2,fp
    29d4:	10000015 	stw	zero,0(r2)
    29d8:	00000e06 	br	2a14 <main+0x2558>
    29dc:	00fffef4 	movhi	r3,65531
    29e0:	18c0f704 	addi	r3,r3,988
    29e4:	1f07883a 	add	r3,r3,fp
    29e8:	18800017 	ldw	r2,0(r3)
    29ec:	10800044 	addi	r2,r2,1
    29f0:	013ffef4 	movhi	r4,65531
    29f4:	2100f704 	addi	r4,r4,988
    29f8:	2709883a 	add	r4,r4,fp
    29fc:	20800015 	stw	r2,0(r4)
    2a00:	00000406 	br	2a14 <main+0x2558>
    2a04:	017ffef4 	movhi	r5,65531
    2a08:	2940f704 	addi	r5,r5,988
    2a0c:	2f0b883a 	add	r5,r5,fp
    2a10:	28000015 	stw	zero,0(r5)
    2a14:	01fffef4 	movhi	r7,65531
    2a18:	39c11704 	addi	r7,r7,1116
    2a1c:	3f0f883a 	add	r7,r7,fp
    2a20:	38800017 	ldw	r2,0(r7)
    2a24:	1009883a 	mov	r4,r2
    2a28:	0007b740 	call	7b74 <alt_up_video_dma_ctrl_swap_buffers>
    2a2c:	00394f06 	br	f6c <__alt_mem_VGA_Subsystem_Char_Buf_Subsystem_Onchip_SRAM+0xf7000f6c>
    2a30:	e037883a 	mov	sp,fp
    2a34:	dfc00117 	ldw	ra,4(sp)
    2a38:	df000017 	ldw	fp,0(sp)
    2a3c:	dec00204 	addi	sp,sp,8
    2a40:	f800283a 	ret

00002a44 <clearChaser>:
    2a44:	defffb04 	addi	sp,sp,-20
    2a48:	df000415 	stw	fp,16(sp)
    2a4c:	df000404 	addi	fp,sp,16
    2a50:	00bfc834 	movhi	r2,65312
    2a54:	10800804 	addi	r2,r2,32
    2a58:	e0bffc15 	stw	r2,-16(fp)
    2a5c:	00bfc834 	movhi	r2,65312
    2a60:	10800c04 	addi	r2,r2,48
    2a64:	e0bffd15 	stw	r2,-12(fp)
    2a68:	e03ffe05 	stb	zero,-8(fp)
    2a6c:	e03ffe45 	stb	zero,-7(fp)
    2a70:	e03ffe85 	stb	zero,-6(fp)
    2a74:	e03ffec5 	stb	zero,-5(fp)
    2a78:	e03fff05 	stb	zero,-4(fp)
    2a7c:	e03fff45 	stb	zero,-3(fp)
    2a80:	e03fff85 	stb	zero,-2(fp)
    2a84:	e03fffc5 	stb	zero,-1(fp)
    2a88:	e0bffc17 	ldw	r2,-16(fp)
    2a8c:	10800017 	ldw	r2,0(r2)
    2a90:	10dfffcc 	andi	r3,r2,32767
    2a94:	e0bffe04 	addi	r2,fp,-8
    2a98:	10800017 	ldw	r2,0(r2)
    2a9c:	1886b03a 	or	r3,r3,r2
    2aa0:	e0bffc17 	ldw	r2,-16(fp)
    2aa4:	10c00015 	stw	r3,0(r2)
    2aa8:	e0ffff17 	ldw	r3,-4(fp)
    2aac:	e0bffd17 	ldw	r2,-12(fp)
    2ab0:	10c00015 	stw	r3,0(r2)
    2ab4:	0001883a 	nop
    2ab8:	e037883a 	mov	sp,fp
    2abc:	df000017 	ldw	fp,0(sp)
    2ac0:	dec00104 	addi	sp,sp,4
    2ac4:	f800283a 	ret

00002ac8 <dispScore>:
    2ac8:	defff604 	addi	sp,sp,-40
    2acc:	dfc00915 	stw	ra,36(sp)
    2ad0:	df000815 	stw	fp,32(sp)
    2ad4:	df000804 	addi	fp,sp,32
    2ad8:	e13fff15 	stw	r4,-4(fp)
    2adc:	00bfc834 	movhi	r2,65312
    2ae0:	10800804 	addi	r2,r2,32
    2ae4:	e0bff815 	stw	r2,-32(fp)
    2ae8:	008001b4 	movhi	r2,6
    2aec:	10a2c904 	addi	r2,r2,-29916
    2af0:	e0fff904 	addi	r3,fp,-28
    2af4:	1009883a 	mov	r4,r2
    2af8:	00800404 	movi	r2,16
    2afc:	100d883a 	mov	r6,r2
    2b00:	200b883a 	mov	r5,r4
    2b04:	1809883a 	mov	r4,r3
    2b08:	00052500 	call	5250 <memcpy>
    2b0c:	e03ffd05 	stb	zero,-12(fp)
    2b10:	e03ffd45 	stb	zero,-11(fp)
    2b14:	e03ffd85 	stb	zero,-10(fp)
    2b18:	e03ffdc5 	stb	zero,-9(fp)
    2b1c:	e03ffe05 	stb	zero,-8(fp)
    2b20:	e03ffe45 	stb	zero,-7(fp)
    2b24:	e03ffe85 	stb	zero,-6(fp)
    2b28:	e03ffec5 	stb	zero,-5(fp)
    2b2c:	e0bfff17 	ldw	r2,-4(fp)
    2b30:	10800288 	cmpgei	r2,r2,10
    2b34:	1000081e 	bne	r2,zero,2b58 <dispScore+0x90>
    2b38:	e0fff904 	addi	r3,fp,-28
    2b3c:	e0bfff17 	ldw	r2,-4(fp)
    2b40:	1885883a 	add	r2,r3,r2
    2b44:	10800003 	ldbu	r2,0(r2)
    2b48:	e0bffd05 	stb	r2,-12(fp)
    2b4c:	e0bff903 	ldbu	r2,-28(fp)
    2b50:	e0bffd45 	stb	r2,-11(fp)
    2b54:	00001006 	br	2b98 <dispScore+0xd0>
    2b58:	e0bfff17 	ldw	r2,-4(fp)
    2b5c:	00c00284 	movi	r3,10
    2b60:	10c7283a 	div	r3,r2,r3
    2b64:	18c002a4 	muli	r3,r3,10
    2b68:	10c5c83a 	sub	r2,r2,r3
    2b6c:	e0fff904 	addi	r3,fp,-28
    2b70:	1885883a 	add	r2,r3,r2
    2b74:	10800003 	ldbu	r2,0(r2)
    2b78:	e0bffd05 	stb	r2,-12(fp)
    2b7c:	e0ffff17 	ldw	r3,-4(fp)
    2b80:	00800284 	movi	r2,10
    2b84:	1885283a 	div	r2,r3,r2
    2b88:	e0fff904 	addi	r3,fp,-28
    2b8c:	1885883a 	add	r2,r3,r2
    2b90:	10800003 	ldbu	r2,0(r2)
    2b94:	e0bffd45 	stb	r2,-11(fp)
    2b98:	e0bff817 	ldw	r2,-32(fp)
    2b9c:	10800017 	ldw	r2,0(r2)
    2ba0:	1007883a 	mov	r3,r2
    2ba4:	00a00004 	movi	r2,-32768
    2ba8:	1884703a 	and	r2,r3,r2
    2bac:	e0fffd04 	addi	r3,fp,-12
    2bb0:	18c00017 	ldw	r3,0(r3)
    2bb4:	10c4b03a 	or	r2,r2,r3
    2bb8:	1007883a 	mov	r3,r2
    2bbc:	e0bff817 	ldw	r2,-32(fp)
    2bc0:	10c00015 	stw	r3,0(r2)
    2bc4:	0001883a 	nop
    2bc8:	e037883a 	mov	sp,fp
    2bcc:	dfc00117 	ldw	ra,4(sp)
    2bd0:	df000017 	ldw	fp,0(sp)
    2bd4:	dec00204 	addi	sp,sp,8
    2bd8:	f800283a 	ret

00002bdc <dissolveEffect>:
    2bdc:	defff904 	addi	sp,sp,-28
    2be0:	dfc00615 	stw	ra,24(sp)
    2be4:	df000515 	stw	fp,20(sp)
    2be8:	df000504 	addi	fp,sp,20
    2bec:	e13ffd15 	stw	r4,-12(fp)
    2bf0:	e17ffe15 	stw	r5,-8(fp)
    2bf4:	e1bfff15 	stw	r6,-4(fp)
    2bf8:	01400044 	movi	r5,1
    2bfc:	e13ffd17 	ldw	r4,-12(fp)
    2c00:	00086c00 	call	86c0 <alt_up_video_dma_screen_clear>
    2c04:	e03ffc15 	stw	zero,-16(fp)
    2c08:	00001b06 	br	2c78 <dissolveEffect+0x9c>
    2c0c:	e0bffc17 	ldw	r2,-16(fp)
    2c10:	1085883a 	add	r2,r2,r2
    2c14:	1007883a 	mov	r3,r2
    2c18:	e0bffe17 	ldw	r2,-8(fp)
    2c1c:	10c5883a 	add	r2,r2,r3
    2c20:	1080000b 	ldhu	r2,0(r2)
    2c24:	10ffffcc 	andi	r3,r2,65535
    2c28:	18e0001c 	xori	r3,r3,32768
    2c2c:	18e00004 	addi	r3,r3,-32768
    2c30:	e0bffc17 	ldw	r2,-16(fp)
    2c34:	1085883a 	add	r2,r2,r2
    2c38:	1009883a 	mov	r4,r2
    2c3c:	e0bfff17 	ldw	r2,-4(fp)
    2c40:	1105883a 	add	r2,r2,r4
    2c44:	1080000b 	ldhu	r2,0(r2)
    2c48:	10bfffcc 	andi	r2,r2,65535
    2c4c:	10a0001c 	xori	r2,r2,32768
    2c50:	10a00004 	addi	r2,r2,-32768
    2c54:	d8000015 	stw	zero,0(sp)
    2c58:	100f883a 	mov	r7,r2
    2c5c:	180d883a 	mov	r6,r3
    2c60:	000b883a 	mov	r5,zero
    2c64:	e13ffd17 	ldw	r4,-12(fp)
    2c68:	0007c080 	call	7c08 <alt_up_video_dma_draw>
    2c6c:	e0bffc17 	ldw	r2,-16(fp)
    2c70:	10800044 	addi	r2,r2,1
    2c74:	e0bffc15 	stw	r2,-16(fp)
    2c78:	e0fffc17 	ldw	r3,-16(fp)
    2c7c:	00800074 	movhi	r2,1
    2c80:	108affc4 	addi	r2,r2,11263
    2c84:	10ffe10e 	bge	r2,r3,2c0c <__alt_mem_VGA_Subsystem_Char_Buf_Subsystem_Onchip_SRAM+0xf7002c0c>
    2c88:	0001883a 	nop
    2c8c:	e037883a 	mov	sp,fp
    2c90:	dfc00117 	ldw	ra,4(sp)
    2c94:	df000017 	ldw	fp,0(sp)
    2c98:	dec00204 	addi	sp,sp,8
    2c9c:	f800283a 	ret

00002ca0 <charDissolveEffect>:
    2ca0:	defff804 	addi	sp,sp,-32
    2ca4:	dfc00715 	stw	ra,28(sp)
    2ca8:	df000615 	stw	fp,24(sp)
    2cac:	df000604 	addi	fp,sp,24
    2cb0:	e13ffd15 	stw	r4,-12(fp)
    2cb4:	e17ffe15 	stw	r5,-8(fp)
    2cb8:	e1bfff15 	stw	r6,-4(fp)
    2cbc:	e03ffb15 	stw	zero,-20(fp)
    2cc0:	00002506 	br	2d58 <charDissolveEffect+0xb8>
    2cc4:	e0bffb17 	ldw	r2,-20(fp)
    2cc8:	1085883a 	add	r2,r2,r2
    2ccc:	1007883a 	mov	r3,r2
    2cd0:	e0bffe17 	ldw	r2,-8(fp)
    2cd4:	10c5883a 	add	r2,r2,r3
    2cd8:	1080000b 	ldhu	r2,0(r2)
    2cdc:	10ffffcc 	andi	r3,r2,65535
    2ce0:	18e0001c 	xori	r3,r3,32768
    2ce4:	18e00004 	addi	r3,r3,-32768
    2ce8:	e0bffb17 	ldw	r2,-20(fp)
    2cec:	1085883a 	add	r2,r2,r2
    2cf0:	1009883a 	mov	r4,r2
    2cf4:	e0bfff17 	ldw	r2,-4(fp)
    2cf8:	1105883a 	add	r2,r2,r4
    2cfc:	1080000b 	ldhu	r2,0(r2)
    2d00:	113fffcc 	andi	r4,r2,65535
    2d04:	2120001c 	xori	r4,r4,32768
    2d08:	21200004 	addi	r4,r4,-32768
    2d0c:	00800044 	movi	r2,1
    2d10:	d8800015 	stw	r2,0(sp)
    2d14:	200f883a 	mov	r7,r4
    2d18:	180d883a 	mov	r6,r3
    2d1c:	014001b4 	movhi	r5,6
    2d20:	2962cd04 	addi	r5,r5,-29900
    2d24:	e13ffd17 	ldw	r4,-12(fp)
    2d28:	000847c0 	call	847c <alt_up_video_dma_draw_string>
    2d2c:	e03ffc15 	stw	zero,-16(fp)
    2d30:	00000306 	br	2d40 <charDissolveEffect+0xa0>
    2d34:	e0bffc17 	ldw	r2,-16(fp)
    2d38:	10800044 	addi	r2,r2,1
    2d3c:	e0bffc15 	stw	r2,-16(fp)
    2d40:	e0bffc17 	ldw	r2,-16(fp)
    2d44:	10803210 	cmplti	r2,r2,200
    2d48:	103ffa1e 	bne	r2,zero,2d34 <__alt_mem_VGA_Subsystem_Char_Buf_Subsystem_Onchip_SRAM+0xf7002d34>
    2d4c:	e0bffb17 	ldw	r2,-20(fp)
    2d50:	10800044 	addi	r2,r2,1
    2d54:	e0bffb15 	stw	r2,-20(fp)
    2d58:	e0bffb17 	ldw	r2,-20(fp)
    2d5c:	1084b010 	cmplti	r2,r2,4800
    2d60:	103fd81e 	bne	r2,zero,2cc4 <__alt_mem_VGA_Subsystem_Char_Buf_Subsystem_Onchip_SRAM+0xf7002cc4>
    2d64:	0001883a 	nop
    2d68:	e037883a 	mov	sp,fp
    2d6c:	dfc00117 	ldw	ra,4(sp)
    2d70:	df000017 	ldw	fp,0(sp)
    2d74:	dec00204 	addi	sp,sp,8
    2d78:	f800283a 	ret

00002d7c <drawSplash>:
    2d7c:	defff704 	addi	sp,sp,-36
    2d80:	dfc00815 	stw	ra,32(sp)
    2d84:	df000715 	stw	fp,28(sp)
    2d88:	df000704 	addi	fp,sp,28
    2d8c:	e13ffd15 	stw	r4,-12(fp)
    2d90:	e17ffe15 	stw	r5,-8(fp)
    2d94:	e1bfff15 	stw	r6,-4(fp)
    2d98:	e03ffa15 	stw	zero,-24(fp)
    2d9c:	e03ffb15 	stw	zero,-20(fp)
    2da0:	00002006 	br	2e24 <drawSplash+0xa8>
    2da4:	e03ffc15 	stw	zero,-16(fp)
    2da8:	00001806 	br	2e0c <drawSplash+0x90>
    2dac:	e0bffa17 	ldw	r2,-24(fp)
    2db0:	1085883a 	add	r2,r2,r2
    2db4:	1007883a 	mov	r3,r2
    2db8:	e0bfff17 	ldw	r2,-4(fp)
    2dbc:	10c5883a 	add	r2,r2,r3
    2dc0:	1080000b 	ldhu	r2,0(r2)
    2dc4:	10ffffcc 	andi	r3,r2,65535
    2dc8:	18e0001c 	xori	r3,r3,32768
    2dcc:	18e00004 	addi	r3,r3,-32768
    2dd0:	e13ffc17 	ldw	r4,-16(fp)
    2dd4:	e17ffb17 	ldw	r5,-20(fp)
    2dd8:	e0bffe17 	ldw	r2,-8(fp)
    2ddc:	d8800015 	stw	r2,0(sp)
    2de0:	280f883a 	mov	r7,r5
    2de4:	200d883a 	mov	r6,r4
    2de8:	180b883a 	mov	r5,r3
    2dec:	e13ffd17 	ldw	r4,-12(fp)
    2df0:	0007c080 	call	7c08 <alt_up_video_dma_draw>
    2df4:	e0bffa17 	ldw	r2,-24(fp)
    2df8:	10800044 	addi	r2,r2,1
    2dfc:	e0bffa15 	stw	r2,-24(fp)
    2e00:	e0bffc17 	ldw	r2,-16(fp)
    2e04:	10800044 	addi	r2,r2,1
    2e08:	e0bffc15 	stw	r2,-16(fp)
    2e0c:	e0bffc17 	ldw	r2,-16(fp)
    2e10:	10805010 	cmplti	r2,r2,320
    2e14:	103fe51e 	bne	r2,zero,2dac <__alt_mem_VGA_Subsystem_Char_Buf_Subsystem_Onchip_SRAM+0xf7002dac>
    2e18:	e0bffb17 	ldw	r2,-20(fp)
    2e1c:	10800044 	addi	r2,r2,1
    2e20:	e0bffb15 	stw	r2,-20(fp)
    2e24:	e0bffb17 	ldw	r2,-20(fp)
    2e28:	10803c10 	cmplti	r2,r2,240
    2e2c:	103fdd1e 	bne	r2,zero,2da4 <__alt_mem_VGA_Subsystem_Char_Buf_Subsystem_Onchip_SRAM+0xf7002da4>
    2e30:	0001883a 	nop
    2e34:	e037883a 	mov	sp,fp
    2e38:	dfc00117 	ldw	ra,4(sp)
    2e3c:	df000017 	ldw	fp,0(sp)
    2e40:	dec00204 	addi	sp,sp,8
    2e44:	f800283a 	ret

00002e48 <binRandS>:
    2e48:	defff704 	addi	sp,sp,-36
    2e4c:	dfc00815 	stw	ra,32(sp)
    2e50:	df000715 	stw	fp,28(sp)
    2e54:	df000704 	addi	fp,sp,28
    2e58:	e13ffe15 	stw	r4,-8(fp)
    2e5c:	e17fff15 	stw	r5,-4(fp)
    2e60:	e03ffa15 	stw	zero,-24(fp)
    2e64:	00001f06 	br	2ee4 <binRandS+0x9c>
    2e68:	e03ff915 	stw	zero,-28(fp)
    2e6c:	00001706 	br	2ecc <binRandS+0x84>
    2e70:	e0bffa17 	ldw	r2,-24(fp)
    2e74:	10c05024 	muli	r3,r2,320
    2e78:	e0bff917 	ldw	r2,-28(fp)
    2e7c:	1885883a 	add	r2,r3,r2
    2e80:	1085883a 	add	r2,r2,r2
    2e84:	1007883a 	mov	r3,r2
    2e88:	e0bffe17 	ldw	r2,-8(fp)
    2e8c:	10c5883a 	add	r2,r2,r3
    2e90:	e0fff917 	ldw	r3,-28(fp)
    2e94:	10c0000d 	sth	r3,0(r2)
    2e98:	e0bffa17 	ldw	r2,-24(fp)
    2e9c:	10c05024 	muli	r3,r2,320
    2ea0:	e0bff917 	ldw	r2,-28(fp)
    2ea4:	1885883a 	add	r2,r3,r2
    2ea8:	1085883a 	add	r2,r2,r2
    2eac:	1007883a 	mov	r3,r2
    2eb0:	e0bfff17 	ldw	r2,-4(fp)
    2eb4:	10c5883a 	add	r2,r2,r3
    2eb8:	e0fffa17 	ldw	r3,-24(fp)
    2ebc:	10c0000d 	sth	r3,0(r2)
    2ec0:	e0bff917 	ldw	r2,-28(fp)
    2ec4:	10800044 	addi	r2,r2,1
    2ec8:	e0bff915 	stw	r2,-28(fp)
    2ecc:	e0bff917 	ldw	r2,-28(fp)
    2ed0:	10805010 	cmplti	r2,r2,320
    2ed4:	103fe61e 	bne	r2,zero,2e70 <__alt_mem_VGA_Subsystem_Char_Buf_Subsystem_Onchip_SRAM+0xf7002e70>
    2ed8:	e0bffa17 	ldw	r2,-24(fp)
    2edc:	10800044 	addi	r2,r2,1
    2ee0:	e0bffa15 	stw	r2,-24(fp)
    2ee4:	e0bffa17 	ldw	r2,-24(fp)
    2ee8:	10803c10 	cmplti	r2,r2,240
    2eec:	103fde1e 	bne	r2,zero,2e68 <__alt_mem_VGA_Subsystem_Char_Buf_Subsystem_Onchip_SRAM+0xf7002e68>
    2ef0:	e03ffb15 	stw	zero,-20(fp)
    2ef4:	00004906 	br	301c <binRandS+0x1d4>
    2ef8:	000541c0 	call	541c <rand>
    2efc:	1007883a 	mov	r3,r2
    2f00:	00800074 	movhi	r2,1
    2f04:	108b0004 	addi	r2,r2,11264
    2f08:	e13ffb17 	ldw	r4,-20(fp)
    2f0c:	1105c83a 	sub	r2,r2,r4
    2f10:	1889283a 	div	r4,r3,r2
    2f14:	2085383a 	mul	r2,r4,r2
    2f18:	1887c83a 	sub	r3,r3,r2
    2f1c:	e0bffb17 	ldw	r2,-20(fp)
    2f20:	1885883a 	add	r2,r3,r2
    2f24:	e0bffc15 	stw	r2,-16(fp)
    2f28:	e0bffb17 	ldw	r2,-20(fp)
    2f2c:	1085883a 	add	r2,r2,r2
    2f30:	1007883a 	mov	r3,r2
    2f34:	e0bffe17 	ldw	r2,-8(fp)
    2f38:	10c5883a 	add	r2,r2,r3
    2f3c:	1080000b 	ldhu	r2,0(r2)
    2f40:	10bfffcc 	andi	r2,r2,65535
    2f44:	10a0001c 	xori	r2,r2,32768
    2f48:	10a00004 	addi	r2,r2,-32768
    2f4c:	e0bffd15 	stw	r2,-12(fp)
    2f50:	e0bffb17 	ldw	r2,-20(fp)
    2f54:	1085883a 	add	r2,r2,r2
    2f58:	1007883a 	mov	r3,r2
    2f5c:	e0bffe17 	ldw	r2,-8(fp)
    2f60:	10c7883a 	add	r3,r2,r3
    2f64:	e0bffc17 	ldw	r2,-16(fp)
    2f68:	1085883a 	add	r2,r2,r2
    2f6c:	1009883a 	mov	r4,r2
    2f70:	e0bffe17 	ldw	r2,-8(fp)
    2f74:	1105883a 	add	r2,r2,r4
    2f78:	1080000b 	ldhu	r2,0(r2)
    2f7c:	1880000d 	sth	r2,0(r3)
    2f80:	e0bffc17 	ldw	r2,-16(fp)
    2f84:	1085883a 	add	r2,r2,r2
    2f88:	1007883a 	mov	r3,r2
    2f8c:	e0bffe17 	ldw	r2,-8(fp)
    2f90:	10c5883a 	add	r2,r2,r3
    2f94:	e0fffd17 	ldw	r3,-12(fp)
    2f98:	10c0000d 	sth	r3,0(r2)
    2f9c:	e0bffb17 	ldw	r2,-20(fp)
    2fa0:	1085883a 	add	r2,r2,r2
    2fa4:	1007883a 	mov	r3,r2
    2fa8:	e0bfff17 	ldw	r2,-4(fp)
    2fac:	10c5883a 	add	r2,r2,r3
    2fb0:	1080000b 	ldhu	r2,0(r2)
    2fb4:	10bfffcc 	andi	r2,r2,65535
    2fb8:	10a0001c 	xori	r2,r2,32768
    2fbc:	10a00004 	addi	r2,r2,-32768
    2fc0:	e0bffd15 	stw	r2,-12(fp)
    2fc4:	e0bffb17 	ldw	r2,-20(fp)
    2fc8:	1085883a 	add	r2,r2,r2
    2fcc:	1007883a 	mov	r3,r2
    2fd0:	e0bfff17 	ldw	r2,-4(fp)
    2fd4:	10c7883a 	add	r3,r2,r3
    2fd8:	e0bffc17 	ldw	r2,-16(fp)
    2fdc:	1085883a 	add	r2,r2,r2
    2fe0:	1009883a 	mov	r4,r2
    2fe4:	e0bfff17 	ldw	r2,-4(fp)
    2fe8:	1105883a 	add	r2,r2,r4
    2fec:	1080000b 	ldhu	r2,0(r2)
    2ff0:	1880000d 	sth	r2,0(r3)
    2ff4:	e0bffc17 	ldw	r2,-16(fp)
    2ff8:	1085883a 	add	r2,r2,r2
    2ffc:	1007883a 	mov	r3,r2
    3000:	e0bfff17 	ldw	r2,-4(fp)
    3004:	10c5883a 	add	r2,r2,r3
    3008:	e0fffd17 	ldw	r3,-12(fp)
    300c:	10c0000d 	sth	r3,0(r2)
    3010:	e0bffb17 	ldw	r2,-20(fp)
    3014:	10800044 	addi	r2,r2,1
    3018:	e0bffb15 	stw	r2,-20(fp)
    301c:	e0fffb17 	ldw	r3,-20(fp)
    3020:	00800074 	movhi	r2,1
    3024:	108affc4 	addi	r2,r2,11263
    3028:	10ffb30e 	bge	r2,r3,2ef8 <__alt_mem_VGA_Subsystem_Char_Buf_Subsystem_Onchip_SRAM+0xf7002ef8>
    302c:	0001883a 	nop
    3030:	e037883a 	mov	sp,fp
    3034:	dfc00117 	ldw	ra,4(sp)
    3038:	df000017 	ldw	fp,0(sp)
    303c:	dec00204 	addi	sp,sp,8
    3040:	f800283a 	ret

00003044 <charRandS>:
    3044:	defff704 	addi	sp,sp,-36
    3048:	dfc00815 	stw	ra,32(sp)
    304c:	df000715 	stw	fp,28(sp)
    3050:	df000704 	addi	fp,sp,28
    3054:	e13ffe15 	stw	r4,-8(fp)
    3058:	e17fff15 	stw	r5,-4(fp)
    305c:	e03ffa15 	stw	zero,-24(fp)
    3060:	00001f06 	br	30e0 <charRandS+0x9c>
    3064:	e03ff915 	stw	zero,-28(fp)
    3068:	00001706 	br	30c8 <charRandS+0x84>
    306c:	e0bffa17 	ldw	r2,-24(fp)
    3070:	10c01424 	muli	r3,r2,80
    3074:	e0bff917 	ldw	r2,-28(fp)
    3078:	1885883a 	add	r2,r3,r2
    307c:	1085883a 	add	r2,r2,r2
    3080:	1007883a 	mov	r3,r2
    3084:	e0bffe17 	ldw	r2,-8(fp)
    3088:	10c5883a 	add	r2,r2,r3
    308c:	e0fff917 	ldw	r3,-28(fp)
    3090:	10c0000d 	sth	r3,0(r2)
    3094:	e0bffa17 	ldw	r2,-24(fp)
    3098:	10c01424 	muli	r3,r2,80
    309c:	e0bff917 	ldw	r2,-28(fp)
    30a0:	1885883a 	add	r2,r3,r2
    30a4:	1085883a 	add	r2,r2,r2
    30a8:	1007883a 	mov	r3,r2
    30ac:	e0bfff17 	ldw	r2,-4(fp)
    30b0:	10c5883a 	add	r2,r2,r3
    30b4:	e0fffa17 	ldw	r3,-24(fp)
    30b8:	10c0000d 	sth	r3,0(r2)
    30bc:	e0bff917 	ldw	r2,-28(fp)
    30c0:	10800044 	addi	r2,r2,1
    30c4:	e0bff915 	stw	r2,-28(fp)
    30c8:	e0bff917 	ldw	r2,-28(fp)
    30cc:	10801410 	cmplti	r2,r2,80
    30d0:	103fe61e 	bne	r2,zero,306c <__alt_mem_VGA_Subsystem_Char_Buf_Subsystem_Onchip_SRAM+0xf700306c>
    30d4:	e0bffa17 	ldw	r2,-24(fp)
    30d8:	10800044 	addi	r2,r2,1
    30dc:	e0bffa15 	stw	r2,-24(fp)
    30e0:	e0bffa17 	ldw	r2,-24(fp)
    30e4:	10800f10 	cmplti	r2,r2,60
    30e8:	103fde1e 	bne	r2,zero,3064 <__alt_mem_VGA_Subsystem_Char_Buf_Subsystem_Onchip_SRAM+0xf7003064>
    30ec:	e03ffb15 	stw	zero,-20(fp)
    30f0:	00004806 	br	3214 <charRandS+0x1d0>
    30f4:	000541c0 	call	541c <rand>
    30f8:	1007883a 	mov	r3,r2
    30fc:	0104b004 	movi	r4,4800
    3100:	e0bffb17 	ldw	r2,-20(fp)
    3104:	2085c83a 	sub	r2,r4,r2
    3108:	1889283a 	div	r4,r3,r2
    310c:	2085383a 	mul	r2,r4,r2
    3110:	1887c83a 	sub	r3,r3,r2
    3114:	e0bffb17 	ldw	r2,-20(fp)
    3118:	1885883a 	add	r2,r3,r2
    311c:	e0bffc15 	stw	r2,-16(fp)
    3120:	e0bffb17 	ldw	r2,-20(fp)
    3124:	1085883a 	add	r2,r2,r2
    3128:	1007883a 	mov	r3,r2
    312c:	e0bffe17 	ldw	r2,-8(fp)
    3130:	10c5883a 	add	r2,r2,r3
    3134:	1080000b 	ldhu	r2,0(r2)
    3138:	10bfffcc 	andi	r2,r2,65535
    313c:	10a0001c 	xori	r2,r2,32768
    3140:	10a00004 	addi	r2,r2,-32768
    3144:	e0bffd15 	stw	r2,-12(fp)
    3148:	e0bffb17 	ldw	r2,-20(fp)
    314c:	1085883a 	add	r2,r2,r2
    3150:	1007883a 	mov	r3,r2
    3154:	e0bffe17 	ldw	r2,-8(fp)
    3158:	10c7883a 	add	r3,r2,r3
    315c:	e0bffc17 	ldw	r2,-16(fp)
    3160:	1085883a 	add	r2,r2,r2
    3164:	1009883a 	mov	r4,r2
    3168:	e0bffe17 	ldw	r2,-8(fp)
    316c:	1105883a 	add	r2,r2,r4
    3170:	1080000b 	ldhu	r2,0(r2)
    3174:	1880000d 	sth	r2,0(r3)
    3178:	e0bffc17 	ldw	r2,-16(fp)
    317c:	1085883a 	add	r2,r2,r2
    3180:	1007883a 	mov	r3,r2
    3184:	e0bffe17 	ldw	r2,-8(fp)
    3188:	10c5883a 	add	r2,r2,r3
    318c:	e0fffd17 	ldw	r3,-12(fp)
    3190:	10c0000d 	sth	r3,0(r2)
    3194:	e0bffb17 	ldw	r2,-20(fp)
    3198:	1085883a 	add	r2,r2,r2
    319c:	1007883a 	mov	r3,r2
    31a0:	e0bfff17 	ldw	r2,-4(fp)
    31a4:	10c5883a 	add	r2,r2,r3
    31a8:	1080000b 	ldhu	r2,0(r2)
    31ac:	10bfffcc 	andi	r2,r2,65535
    31b0:	10a0001c 	xori	r2,r2,32768
    31b4:	10a00004 	addi	r2,r2,-32768
    31b8:	e0bffd15 	stw	r2,-12(fp)
    31bc:	e0bffb17 	ldw	r2,-20(fp)
    31c0:	1085883a 	add	r2,r2,r2
    31c4:	1007883a 	mov	r3,r2
    31c8:	e0bfff17 	ldw	r2,-4(fp)
    31cc:	10c7883a 	add	r3,r2,r3
    31d0:	e0bffc17 	ldw	r2,-16(fp)
    31d4:	1085883a 	add	r2,r2,r2
    31d8:	1009883a 	mov	r4,r2
    31dc:	e0bfff17 	ldw	r2,-4(fp)
    31e0:	1105883a 	add	r2,r2,r4
    31e4:	1080000b 	ldhu	r2,0(r2)
    31e8:	1880000d 	sth	r2,0(r3)
    31ec:	e0bffc17 	ldw	r2,-16(fp)
    31f0:	1085883a 	add	r2,r2,r2
    31f4:	1007883a 	mov	r3,r2
    31f8:	e0bfff17 	ldw	r2,-4(fp)
    31fc:	10c5883a 	add	r2,r2,r3
    3200:	e0fffd17 	ldw	r3,-12(fp)
    3204:	10c0000d 	sth	r3,0(r2)
    3208:	e0bffb17 	ldw	r2,-20(fp)
    320c:	10800044 	addi	r2,r2,1
    3210:	e0bffb15 	stw	r2,-20(fp)
    3214:	e0bffb17 	ldw	r2,-20(fp)
    3218:	1084b010 	cmplti	r2,r2,4800
    321c:	103fb51e 	bne	r2,zero,30f4 <__alt_mem_VGA_Subsystem_Char_Buf_Subsystem_Onchip_SRAM+0xf70030f4>
    3220:	0001883a 	nop
    3224:	e037883a 	mov	sp,fp
    3228:	dfc00117 	ldw	ra,4(sp)
    322c:	df000017 	ldw	fp,0(sp)
    3230:	dec00204 	addi	sp,sp,8
    3234:	f800283a 	ret

00003238 <fadeBGM>:
    3238:	defff604 	addi	sp,sp,-40
    323c:	dfc00915 	stw	ra,36(sp)
    3240:	df000815 	stw	fp,32(sp)
    3244:	df000804 	addi	fp,sp,32
    3248:	e13fff15 	stw	r4,-4(fp)
    324c:	d0a00217 	ldw	r2,-32760(gp)
    3250:	1005feb2 	custom	250,r2,r2,zero
    3254:	00cfe034 	movhi	r3,16256
    3258:	1885fff2 	custom	255,r2,r3,r2
    325c:	e0bffc15 	stw	r2,-16(fp)
    3260:	008fe034 	movhi	r2,16256
    3264:	e0bff815 	stw	r2,-32(fp)
    3268:	e03ffe15 	stw	zero,-8(fp)
    326c:	e03ff915 	stw	zero,-28(fp)
    3270:	00004c06 	br	33a4 <fadeBGM+0x16c>
    3274:	e0fff917 	ldw	r3,-28(fp)
    3278:	00817704 	movi	r2,1500
    327c:	1885283a 	div	r2,r3,r2
    3280:	d0a77a15 	stw	r2,-25112(gp)
    3284:	00bfc834 	movhi	r2,65312
    3288:	108c1004 	addi	r2,r2,12352
    328c:	e0bffd15 	stw	r2,-12(fp)
    3290:	e0bffd17 	ldw	r2,-12(fp)
    3294:	10800117 	ldw	r2,4(r2)
    3298:	e0bffa15 	stw	r2,-24(fp)
    329c:	e0bffa17 	ldw	r2,-24(fp)
    32a0:	10803fec 	andhi	r2,r2,255
    32a4:	10801850 	cmplti	r2,r2,97
    32a8:	1000331e 	bne	r2,zero,3378 <fadeBGM+0x140>
    32ac:	00002a06 	br	3358 <fadeBGM+0x120>
    32b0:	d0a78717 	ldw	r2,-25060(gp)
    32b4:	10c00017 	ldw	r3,0(r2)
    32b8:	008001b4 	movhi	r2,6
    32bc:	10a3dc04 	addi	r2,r2,-28816
    32c0:	18c7883a 	add	r3,r3,r3
    32c4:	18c7883a 	add	r3,r3,r3
    32c8:	10c5883a 	add	r2,r2,r3
    32cc:	10800017 	ldw	r2,0(r2)
    32d0:	1007feb2 	custom	250,r3,r2,zero
    32d4:	e0bff817 	ldw	r2,-32(fp)
    32d8:	1885ff32 	custom	252,r2,r3,r2
    32dc:	1005fe72 	custom	249,r2,r2,zero
    32e0:	e0bffe15 	stw	r2,-8(fp)
    32e4:	e0bffe04 	addi	r2,fp,-8
    32e8:	01c00044 	movi	r7,1
    32ec:	01800044 	movi	r6,1
    32f0:	100b883a 	mov	r5,r2
    32f4:	e13fff17 	ldw	r4,-4(fp)
    32f8:	000726c0 	call	726c <alt_up_audio_write_fifo>
    32fc:	e0bffe04 	addi	r2,fp,-8
    3300:	000f883a 	mov	r7,zero
    3304:	01800044 	movi	r6,1
    3308:	100b883a 	mov	r5,r2
    330c:	e13fff17 	ldw	r4,-4(fp)
    3310:	000726c0 	call	726c <alt_up_audio_write_fifo>
    3314:	e0fff817 	ldw	r3,-32(fp)
    3318:	e0bffc17 	ldw	r2,-16(fp)
    331c:	1885ffb2 	custom	254,r2,r3,r2
    3320:	e0bff815 	stw	r2,-32(fp)
    3324:	d0a78717 	ldw	r2,-25060(gp)
    3328:	10c00017 	ldw	r3,0(r2)
    332c:	18c00044 	addi	r3,r3,1
    3330:	10c00015 	stw	r3,0(r2)
    3334:	d0a78717 	ldw	r2,-25060(gp)
    3338:	10c00017 	ldw	r3,0(r2)
    333c:	d0a00217 	ldw	r2,-32760(gp)
    3340:	18800216 	blt	r3,r2,334c <fadeBGM+0x114>
    3344:	d0a78717 	ldw	r2,-25060(gp)
    3348:	10000015 	stw	zero,0(r2)
    334c:	e0bffd17 	ldw	r2,-12(fp)
    3350:	10800117 	ldw	r2,4(r2)
    3354:	e0bffa15 	stw	r2,-24(fp)
    3358:	e0bffa17 	ldw	r2,-24(fp)
    335c:	10803fec 	andhi	r2,r2,255
    3360:	10000d26 	beq	r2,zero,3398 <fadeBGM+0x160>
    3364:	d0a78717 	ldw	r2,-25060(gp)
    3368:	10800017 	ldw	r2,0(r2)
    336c:	d0e00217 	ldw	r3,-32760(gp)
    3370:	18bfcf0e 	bge	r3,r2,32b0 <__alt_mem_VGA_Subsystem_Char_Buf_Subsystem_Onchip_SRAM+0xf70032b0>
    3374:	00000806 	br	3398 <fadeBGM+0x160>
    3378:	e03ffb15 	stw	zero,-20(fp)
    337c:	00000306 	br	338c <fadeBGM+0x154>
    3380:	e0bffb17 	ldw	r2,-20(fp)
    3384:	10800044 	addi	r2,r2,1
    3388:	e0bffb15 	stw	r2,-20(fp)
    338c:	e0bffb17 	ldw	r2,-20(fp)
    3390:	1089c410 	cmplti	r2,r2,10000
    3394:	103ffa1e 	bne	r2,zero,3380 <__alt_mem_VGA_Subsystem_Char_Buf_Subsystem_Onchip_SRAM+0xf7003380>
    3398:	e0bff917 	ldw	r2,-28(fp)
    339c:	10800044 	addi	r2,r2,1
    33a0:	e0bff915 	stw	r2,-28(fp)
    33a4:	d0e00217 	ldw	r3,-32760(gp)
    33a8:	008006c4 	movi	r2,27
    33ac:	1887283a 	div	r3,r3,r2
    33b0:	e0bff917 	ldw	r2,-28(fp)
    33b4:	18bfaf0e 	bge	r3,r2,3274 <__alt_mem_VGA_Subsystem_Char_Buf_Subsystem_Onchip_SRAM+0xf7003274>
    33b8:	0001883a 	nop
    33bc:	e037883a 	mov	sp,fp
    33c0:	dfc00117 	ldw	ra,4(sp)
    33c4:	df000017 	ldw	fp,0(sp)
    33c8:	dec00204 	addi	sp,sp,8
    33cc:	f800283a 	ret

000033d0 <copyPoint>:
    33d0:	defffc04 	addi	sp,sp,-16
    33d4:	dfc00315 	stw	ra,12(sp)
    33d8:	df000215 	stw	fp,8(sp)
    33dc:	df000204 	addi	fp,sp,8
    33e0:	e13ffe15 	stw	r4,-8(fp)
    33e4:	e17fff15 	stw	r5,-4(fp)
    33e8:	01800204 	movi	r6,8
    33ec:	e17ffe17 	ldw	r5,-8(fp)
    33f0:	e13fff17 	ldw	r4,-4(fp)
    33f4:	00052500 	call	5250 <memcpy>
    33f8:	0001883a 	nop
    33fc:	e037883a 	mov	sp,fp
    3400:	dfc00117 	ldw	ra,4(sp)
    3404:	df000017 	ldw	fp,0(sp)
    3408:	dec00204 	addi	sp,sp,8
    340c:	f800283a 	ret

00003410 <drawCursor>:
    3410:	defff604 	addi	sp,sp,-40
    3414:	dfc00915 	stw	ra,36(sp)
    3418:	df000815 	stw	fp,32(sp)
    341c:	df000804 	addi	fp,sp,32
    3420:	e13ffc15 	stw	r4,-16(fp)
    3424:	e17ffd15 	stw	r5,-12(fp)
    3428:	e1bffe15 	stw	r6,-8(fp)
    342c:	e1ffff15 	stw	r7,-4(fp)
    3430:	e0fffd17 	ldw	r3,-12(fp)
    3434:	e0bffe17 	ldw	r2,-8(fp)
    3438:	100d883a 	mov	r6,r2
    343c:	e0bfff17 	ldw	r2,-4(fp)
    3440:	100f883a 	mov	r7,r2
    3444:	e0bffe17 	ldw	r2,-8(fp)
    3448:	10800084 	addi	r2,r2,2
    344c:	1009883a 	mov	r4,r2
    3450:	e0bfff17 	ldw	r2,-4(fp)
    3454:	10800084 	addi	r2,r2,2
    3458:	100b883a 	mov	r5,r2
    345c:	00800044 	movi	r2,1
    3460:	d8800315 	stw	r2,12(sp)
    3464:	e0800217 	ldw	r2,8(fp)
    3468:	d8800215 	stw	r2,8(sp)
    346c:	d9400115 	stw	r5,4(sp)
    3470:	d9000015 	stw	r4,0(sp)
    3474:	180b883a 	mov	r5,r3
    3478:	e13ffc17 	ldw	r4,-16(fp)
    347c:	0007ec40 	call	7ec4 <alt_up_video_dma_draw_box>
    3480:	0001883a 	nop
    3484:	e037883a 	mov	sp,fp
    3488:	dfc00117 	ldw	ra,4(sp)
    348c:	df000017 	ldw	fp,0(sp)
    3490:	dec00204 	addi	sp,sp,8
    3494:	f800283a 	ret

00003498 <restoreSplash>:
    3498:	defff304 	addi	sp,sp,-52
    349c:	dfc00c15 	stw	ra,48(sp)
    34a0:	df000b15 	stw	fp,44(sp)
    34a4:	df000b04 	addi	fp,sp,44
    34a8:	e13ffc15 	stw	r4,-16(fp)
    34ac:	e17ffd15 	stw	r5,-12(fp)
    34b0:	e1bffe15 	stw	r6,-8(fp)
    34b4:	e1ffff15 	stw	r7,-4(fp)
    34b8:	e0bffe17 	ldw	r2,-8(fp)
    34bc:	10bfffc4 	addi	r2,r2,-1
    34c0:	e0bff615 	stw	r2,-40(fp)
    34c4:	e0bffe17 	ldw	r2,-8(fp)
    34c8:	108000c4 	addi	r2,r2,3
    34cc:	e0bff715 	stw	r2,-36(fp)
    34d0:	e0bffd17 	ldw	r2,-12(fp)
    34d4:	10bfffc4 	addi	r2,r2,-1
    34d8:	e0bff815 	stw	r2,-32(fp)
    34dc:	e0bffd17 	ldw	r2,-12(fp)
    34e0:	108000c4 	addi	r2,r2,3
    34e4:	e0bff915 	stw	r2,-28(fp)
    34e8:	e0bffe17 	ldw	r2,-8(fp)
    34ec:	10000626 	beq	r2,zero,3508 <restoreSplash+0x70>
    34f0:	e0bffe17 	ldw	r2,-8(fp)
    34f4:	1007883a 	mov	r3,r2
    34f8:	e0bffc17 	ldw	r2,-16(fp)
    34fc:	10801217 	ldw	r2,72(r2)
    3500:	10bfff44 	addi	r2,r2,-3
    3504:	1880061e 	bne	r3,r2,3520 <restoreSplash+0x88>
    3508:	e0bff617 	ldw	r2,-40(fp)
    350c:	10800044 	addi	r2,r2,1
    3510:	e0bff615 	stw	r2,-40(fp)
    3514:	e0bff717 	ldw	r2,-36(fp)
    3518:	10bfffc4 	addi	r2,r2,-1
    351c:	e0bff715 	stw	r2,-36(fp)
    3520:	e0bffd17 	ldw	r2,-12(fp)
    3524:	10000626 	beq	r2,zero,3540 <restoreSplash+0xa8>
    3528:	e0bffd17 	ldw	r2,-12(fp)
    352c:	1007883a 	mov	r3,r2
    3530:	e0bffc17 	ldw	r2,-16(fp)
    3534:	10801117 	ldw	r2,68(r2)
    3538:	10bfff44 	addi	r2,r2,-3
    353c:	1880061e 	bne	r3,r2,3558 <restoreSplash+0xc0>
    3540:	e0bff817 	ldw	r2,-32(fp)
    3544:	10800044 	addi	r2,r2,1
    3548:	e0bff815 	stw	r2,-32(fp)
    354c:	e0bff917 	ldw	r2,-28(fp)
    3550:	10bfffc4 	addi	r2,r2,-1
    3554:	e0bff915 	stw	r2,-28(fp)
    3558:	e0bff617 	ldw	r2,-40(fp)
    355c:	e0bffa15 	stw	r2,-24(fp)
    3560:	00002106 	br	35e8 <restoreSplash+0x150>
    3564:	e0bff817 	ldw	r2,-32(fp)
    3568:	e0bffb15 	stw	r2,-20(fp)
    356c:	00001806 	br	35d0 <restoreSplash+0x138>
    3570:	e0bffa17 	ldw	r2,-24(fp)
    3574:	10c05024 	muli	r3,r2,320
    3578:	e0bffb17 	ldw	r2,-20(fp)
    357c:	1885883a 	add	r2,r3,r2
    3580:	1085883a 	add	r2,r2,r2
    3584:	1007883a 	mov	r3,r2
    3588:	e0bfff17 	ldw	r2,-4(fp)
    358c:	10c5883a 	add	r2,r2,r3
    3590:	1080000b 	ldhu	r2,0(r2)
    3594:	10ffffcc 	andi	r3,r2,65535
    3598:	18e0001c 	xori	r3,r3,32768
    359c:	18e00004 	addi	r3,r3,-32768
    35a0:	e13ffb17 	ldw	r4,-20(fp)
    35a4:	e17ffa17 	ldw	r5,-24(fp)
    35a8:	e0800217 	ldw	r2,8(fp)
    35ac:	d8800015 	stw	r2,0(sp)
    35b0:	280f883a 	mov	r7,r5
    35b4:	200d883a 	mov	r6,r4
    35b8:	180b883a 	mov	r5,r3
    35bc:	e13ffc17 	ldw	r4,-16(fp)
    35c0:	0007c080 	call	7c08 <alt_up_video_dma_draw>
    35c4:	e0bffb17 	ldw	r2,-20(fp)
    35c8:	10800044 	addi	r2,r2,1
    35cc:	e0bffb15 	stw	r2,-20(fp)
    35d0:	e0bffb17 	ldw	r2,-20(fp)
    35d4:	e0fff917 	ldw	r3,-28(fp)
    35d8:	18bfe50e 	bge	r3,r2,3570 <__alt_mem_VGA_Subsystem_Char_Buf_Subsystem_Onchip_SRAM+0xf7003570>
    35dc:	e0bffa17 	ldw	r2,-24(fp)
    35e0:	10800044 	addi	r2,r2,1
    35e4:	e0bffa15 	stw	r2,-24(fp)
    35e8:	e0bffa17 	ldw	r2,-24(fp)
    35ec:	e0fff717 	ldw	r3,-36(fp)
    35f0:	18bfdc0e 	bge	r3,r2,3564 <__alt_mem_VGA_Subsystem_Char_Buf_Subsystem_Onchip_SRAM+0xf7003564>
    35f4:	0001883a 	nop
    35f8:	e037883a 	mov	sp,fp
    35fc:	dfc00117 	ldw	ra,4(sp)
    3600:	df000017 	ldw	fp,0(sp)
    3604:	dec00204 	addi	sp,sp,8
    3608:	f800283a 	ret

0000360c <moveMouse>:
    360c:	defffa04 	addi	sp,sp,-24
    3610:	dfc00515 	stw	ra,20(sp)
    3614:	df000415 	stw	fp,16(sp)
    3618:	df000404 	addi	fp,sp,16
    361c:	e13ffc15 	stw	r4,-16(fp)
    3620:	e17ffd15 	stw	r5,-12(fp)
    3624:	e1bffe15 	stw	r6,-8(fp)
    3628:	e1ffff15 	stw	r7,-4(fp)
    362c:	e0bffe17 	ldw	r2,-8(fp)
    3630:	10c00017 	ldw	r3,0(r2)
    3634:	d0a7888b 	ldhu	r2,-25054(gp)
    3638:	10bfffcc 	andi	r2,r2,65535
    363c:	10a0001c 	xori	r2,r2,32768
    3640:	10a00004 	addi	r2,r2,-32768
    3644:	1885883a 	add	r2,r3,r2
    3648:	10000c16 	blt	r2,zero,367c <moveMouse+0x70>
    364c:	e0bffe17 	ldw	r2,-8(fp)
    3650:	10c00017 	ldw	r3,0(r2)
    3654:	d0a7888b 	ldhu	r2,-25054(gp)
    3658:	10bfffcc 	andi	r2,r2,65535
    365c:	10a0001c 	xori	r2,r2,32768
    3660:	10a00004 	addi	r2,r2,-32768
    3664:	1885883a 	add	r2,r3,r2
    3668:	1007883a 	mov	r3,r2
    366c:	e0bffd17 	ldw	r2,-12(fp)
    3670:	10801117 	ldw	r2,68(r2)
    3674:	10bfff44 	addi	r2,r2,-3
    3678:	10c0122e 	bgeu	r2,r3,36c4 <moveMouse+0xb8>
    367c:	e0bffe17 	ldw	r2,-8(fp)
    3680:	10c00017 	ldw	r3,0(r2)
    3684:	d0a7888b 	ldhu	r2,-25054(gp)
    3688:	10bfffcc 	andi	r2,r2,65535
    368c:	10a0001c 	xori	r2,r2,32768
    3690:	10a00004 	addi	r2,r2,-32768
    3694:	1885883a 	add	r2,r3,r2
    3698:	1000030e 	bge	r2,zero,36a8 <moveMouse+0x9c>
    369c:	e0bffe17 	ldw	r2,-8(fp)
    36a0:	10000015 	stw	zero,0(r2)
    36a4:	00001006 	br	36e8 <moveMouse+0xdc>
    36a8:	e0bffd17 	ldw	r2,-12(fp)
    36ac:	10801117 	ldw	r2,68(r2)
    36b0:	10bfff44 	addi	r2,r2,-3
    36b4:	1007883a 	mov	r3,r2
    36b8:	e0bffe17 	ldw	r2,-8(fp)
    36bc:	10c00015 	stw	r3,0(r2)
    36c0:	00000906 	br	36e8 <moveMouse+0xdc>
    36c4:	e0bfff17 	ldw	r2,-4(fp)
    36c8:	10c00017 	ldw	r3,0(r2)
    36cc:	d0a7888b 	ldhu	r2,-25054(gp)
    36d0:	10bfffcc 	andi	r2,r2,65535
    36d4:	10a0001c 	xori	r2,r2,32768
    36d8:	10a00004 	addi	r2,r2,-32768
    36dc:	1887883a 	add	r3,r3,r2
    36e0:	e0bffe17 	ldw	r2,-8(fp)
    36e4:	10c00015 	stw	r3,0(r2)
    36e8:	e0bffe17 	ldw	r2,-8(fp)
    36ec:	10c00117 	ldw	r3,4(r2)
    36f0:	d0a77f0b 	ldhu	r2,-25092(gp)
    36f4:	10bfffcc 	andi	r2,r2,65535
    36f8:	10a0001c 	xori	r2,r2,32768
    36fc:	10a00004 	addi	r2,r2,-32768
    3700:	1885883a 	add	r2,r3,r2
    3704:	10000c16 	blt	r2,zero,3738 <moveMouse+0x12c>
    3708:	e0bffe17 	ldw	r2,-8(fp)
    370c:	10c00117 	ldw	r3,4(r2)
    3710:	d0a77f0b 	ldhu	r2,-25092(gp)
    3714:	10bfffcc 	andi	r2,r2,65535
    3718:	10a0001c 	xori	r2,r2,32768
    371c:	10a00004 	addi	r2,r2,-32768
    3720:	1885883a 	add	r2,r3,r2
    3724:	1007883a 	mov	r3,r2
    3728:	e0bffd17 	ldw	r2,-12(fp)
    372c:	10801217 	ldw	r2,72(r2)
    3730:	10bfff44 	addi	r2,r2,-3
    3734:	10c0122e 	bgeu	r2,r3,3780 <moveMouse+0x174>
    3738:	e0bffe17 	ldw	r2,-8(fp)
    373c:	10c00117 	ldw	r3,4(r2)
    3740:	d0a77f0b 	ldhu	r2,-25092(gp)
    3744:	10bfffcc 	andi	r2,r2,65535
    3748:	10a0001c 	xori	r2,r2,32768
    374c:	10a00004 	addi	r2,r2,-32768
    3750:	1885883a 	add	r2,r3,r2
    3754:	1000030e 	bge	r2,zero,3764 <moveMouse+0x158>
    3758:	e0bffe17 	ldw	r2,-8(fp)
    375c:	10000115 	stw	zero,4(r2)
    3760:	00001006 	br	37a4 <moveMouse+0x198>
    3764:	e0bffd17 	ldw	r2,-12(fp)
    3768:	10801217 	ldw	r2,72(r2)
    376c:	10bfff44 	addi	r2,r2,-3
    3770:	1007883a 	mov	r3,r2
    3774:	e0bffe17 	ldw	r2,-8(fp)
    3778:	10c00115 	stw	r3,4(r2)
    377c:	00000906 	br	37a4 <moveMouse+0x198>
    3780:	e0bfff17 	ldw	r2,-4(fp)
    3784:	10c00117 	ldw	r3,4(r2)
    3788:	d0a77f0b 	ldhu	r2,-25092(gp)
    378c:	10bfffcc 	andi	r2,r2,65535
    3790:	10a0001c 	xori	r2,r2,32768
    3794:	10a00004 	addi	r2,r2,-32768
    3798:	1887883a 	add	r3,r3,r2
    379c:	e0bffe17 	ldw	r2,-8(fp)
    37a0:	10c00115 	stw	r3,4(r2)
    37a4:	e1400217 	ldw	r5,8(fp)
    37a8:	e13fff17 	ldw	r4,-4(fp)
    37ac:	00033d00 	call	33d0 <copyPoint>
    37b0:	e17fff17 	ldw	r5,-4(fp)
    37b4:	e13ffe17 	ldw	r4,-8(fp)
    37b8:	00033d00 	call	33d0 <copyPoint>
    37bc:	e13ffc17 	ldw	r4,-16(fp)
    37c0:	00079240 	call	7924 <alt_up_ps2_clear_fifo>
    37c4:	0001883a 	nop
    37c8:	e037883a 	mov	sp,fp
    37cc:	dfc00117 	ldw	ra,4(sp)
    37d0:	df000017 	ldw	fp,0(sp)
    37d4:	dec00204 	addi	sp,sp,8
    37d8:	f800283a 	ret

000037dc <openPS2Device>:
    37dc:	defffd04 	addi	sp,sp,-12
    37e0:	dfc00215 	stw	ra,8(sp)
    37e4:	df000115 	stw	fp,4(sp)
    37e8:	df000104 	addi	fp,sp,4
    37ec:	e13fff15 	stw	r4,-4(fp)
    37f0:	010001b4 	movhi	r4,6
    37f4:	2122ce04 	addi	r4,r4,-29896
    37f8:	0007aa00 	call	7aa0 <alt_up_ps2_open_dev>
    37fc:	1007883a 	mov	r3,r2
    3800:	e0bfff17 	ldw	r2,-4(fp)
    3804:	10c00015 	stw	r3,0(r2)
    3808:	e0bfff17 	ldw	r2,-4(fp)
    380c:	10800017 	ldw	r2,0(r2)
    3810:	1000051e 	bne	r2,zero,3828 <openPS2Device+0x4c>
    3814:	010001b4 	movhi	r4,6
    3818:	2122d204 	addi	r4,r4,-29880
    381c:	00057c40 	call	57c4 <alt_printf>
    3820:	00bfffc4 	movi	r2,-1
    3824:	00001c06 	br	3898 <openPS2Device+0xbc>
    3828:	010001b4 	movhi	r4,6
    382c:	2122db04 	addi	r4,r4,-29844
    3830:	00057c40 	call	57c4 <alt_printf>
    3834:	e0bfff17 	ldw	r2,-4(fp)
    3838:	10800017 	ldw	r2,0(r2)
    383c:	d0a77c15 	stw	r2,-25104(gp)
    3840:	d0a77c17 	ldw	r2,-25104(gp)
    3844:	01403fc4 	movi	r5,255
    3848:	1009883a 	mov	r4,r2
    384c:	00076d80 	call	76d8 <alt_up_ps2_write_data_byte>
    3850:	e0bfff17 	ldw	r2,-4(fp)
    3854:	10800017 	ldw	r2,0(r2)
    3858:	01403fc4 	movi	r5,255
    385c:	1009883a 	mov	r4,r2
    3860:	00076d80 	call	76d8 <alt_up_ps2_write_data_byte>
    3864:	d0a77c17 	ldw	r2,-25104(gp)
    3868:	01403d04 	movi	r5,244
    386c:	1009883a 	mov	r4,r2
    3870:	00076d80 	call	76d8 <alt_up_ps2_write_data_byte>
    3874:	e0bfff17 	ldw	r2,-4(fp)
    3878:	10800017 	ldw	r2,0(r2)
    387c:	1009883a 	mov	r4,r2
    3880:	000761c0 	call	761c <alt_up_ps2_enable_read_interrupt>
    3884:	e0bfff17 	ldw	r2,-4(fp)
    3888:	10800017 	ldw	r2,0(r2)
    388c:	1009883a 	mov	r4,r2
    3890:	00079240 	call	7924 <alt_up_ps2_clear_fifo>
    3894:	0005883a 	mov	r2,zero
    3898:	e037883a 	mov	sp,fp
    389c:	dfc00117 	ldw	ra,4(sp)
    38a0:	df000017 	ldw	fp,0(sp)
    38a4:	dec00204 	addi	sp,sp,8
    38a8:	f800283a 	ret

000038ac <openAudioDevice>:
    38ac:	defffd04 	addi	sp,sp,-12
    38b0:	dfc00215 	stw	ra,8(sp)
    38b4:	df000115 	stw	fp,4(sp)
    38b8:	df000104 	addi	fp,sp,4
    38bc:	e13fff15 	stw	r4,-4(fp)
    38c0:	010001b4 	movhi	r4,6
    38c4:	2122e004 	addi	r4,r4,-29824
    38c8:	0006c840 	call	6c84 <alt_up_audio_open_dev>
    38cc:	1007883a 	mov	r3,r2
    38d0:	e0bfff17 	ldw	r2,-4(fp)
    38d4:	10c00015 	stw	r3,0(r2)
    38d8:	e0bfff17 	ldw	r2,-4(fp)
    38dc:	10800017 	ldw	r2,0(r2)
    38e0:	1000051e 	bne	r2,zero,38f8 <openAudioDevice+0x4c>
    38e4:	010001b4 	movhi	r4,6
    38e8:	2122e704 	addi	r4,r4,-29796
    38ec:	00057c40 	call	57c4 <alt_printf>
    38f0:	00bfffc4 	movi	r2,-1
    38f4:	00000a06 	br	3920 <openAudioDevice+0x74>
    38f8:	010001b4 	movhi	r4,6
    38fc:	2122f104 	addi	r4,r4,-29756
    3900:	00057c40 	call	57c4 <alt_printf>
    3904:	e0bfff17 	ldw	r2,-4(fp)
    3908:	10800017 	ldw	r2,0(r2)
    390c:	d0a77d15 	stw	r2,-25100(gp)
    3910:	d0a77d17 	ldw	r2,-25100(gp)
    3914:	1009883a 	mov	r4,r2
    3918:	0006e980 	call	6e98 <alt_up_audio_reset_audio_core>
    391c:	0005883a 	mov	r2,zero
    3920:	e037883a 	mov	sp,fp
    3924:	dfc00117 	ldw	ra,4(sp)
    3928:	df000017 	ldw	fp,0(sp)
    392c:	dec00204 	addi	sp,sp,8
    3930:	f800283a 	ret

00003934 <resampleColours>:
    3934:	defffb04 	addi	sp,sp,-20
    3938:	df000415 	stw	fp,16(sp)
    393c:	df000404 	addi	fp,sp,16
    3940:	e13ffc15 	stw	r4,-16(fp)
    3944:	e17ffd15 	stw	r5,-12(fp)
    3948:	e1bffe15 	stw	r6,-8(fp)
    394c:	e1ffff15 	stw	r7,-4(fp)
    3950:	e0bffc17 	ldw	r2,-16(fp)
    3954:	10801017 	ldw	r2,64(r2)
    3958:	10800058 	cmpnei	r2,r2,1
    395c:	1000511e 	bne	r2,zero,3aa4 <resampleColours+0x170>
    3960:	e0bffd17 	ldw	r2,-12(fp)
    3964:	10800017 	ldw	r2,0(r2)
    3968:	1005d43a 	srai	r2,r2,16
    396c:	10c0380c 	andi	r3,r2,224
    3970:	e0bffd17 	ldw	r2,-12(fp)
    3974:	10800017 	ldw	r2,0(r2)
    3978:	1005d2fa 	srai	r2,r2,11
    397c:	1080070c 	andi	r2,r2,28
    3980:	1886b03a 	or	r3,r3,r2
    3984:	e0bffd17 	ldw	r2,-12(fp)
    3988:	10800017 	ldw	r2,0(r2)
    398c:	1005d1ba 	srai	r2,r2,6
    3990:	108000cc 	andi	r2,r2,3
    3994:	1886b03a 	or	r3,r3,r2
    3998:	e0bffd17 	ldw	r2,-12(fp)
    399c:	10c00015 	stw	r3,0(r2)
    39a0:	e0bffe17 	ldw	r2,-8(fp)
    39a4:	10800017 	ldw	r2,0(r2)
    39a8:	1005d43a 	srai	r2,r2,16
    39ac:	10c0380c 	andi	r3,r2,224
    39b0:	e0bffe17 	ldw	r2,-8(fp)
    39b4:	10800017 	ldw	r2,0(r2)
    39b8:	1005d2fa 	srai	r2,r2,11
    39bc:	1080070c 	andi	r2,r2,28
    39c0:	1886b03a 	or	r3,r3,r2
    39c4:	e0bffe17 	ldw	r2,-8(fp)
    39c8:	10800017 	ldw	r2,0(r2)
    39cc:	1005d1ba 	srai	r2,r2,6
    39d0:	108000cc 	andi	r2,r2,3
    39d4:	1886b03a 	or	r3,r3,r2
    39d8:	e0bffe17 	ldw	r2,-8(fp)
    39dc:	10c00015 	stw	r3,0(r2)
    39e0:	e0bfff17 	ldw	r2,-4(fp)
    39e4:	10800017 	ldw	r2,0(r2)
    39e8:	1005d43a 	srai	r2,r2,16
    39ec:	10c0380c 	andi	r3,r2,224
    39f0:	e0bfff17 	ldw	r2,-4(fp)
    39f4:	10800017 	ldw	r2,0(r2)
    39f8:	1005d2fa 	srai	r2,r2,11
    39fc:	1080070c 	andi	r2,r2,28
    3a00:	1886b03a 	or	r3,r3,r2
    3a04:	e0bfff17 	ldw	r2,-4(fp)
    3a08:	10800017 	ldw	r2,0(r2)
    3a0c:	1005d1ba 	srai	r2,r2,6
    3a10:	108000cc 	andi	r2,r2,3
    3a14:	1886b03a 	or	r3,r3,r2
    3a18:	e0bfff17 	ldw	r2,-4(fp)
    3a1c:	10c00015 	stw	r3,0(r2)
    3a20:	e0800117 	ldw	r2,4(fp)
    3a24:	10800017 	ldw	r2,0(r2)
    3a28:	1005d43a 	srai	r2,r2,16
    3a2c:	10c0380c 	andi	r3,r2,224
    3a30:	e0800117 	ldw	r2,4(fp)
    3a34:	10800017 	ldw	r2,0(r2)
    3a38:	1005d2fa 	srai	r2,r2,11
    3a3c:	1080070c 	andi	r2,r2,28
    3a40:	1886b03a 	or	r3,r3,r2
    3a44:	e0800117 	ldw	r2,4(fp)
    3a48:	10800017 	ldw	r2,0(r2)
    3a4c:	1005d1ba 	srai	r2,r2,6
    3a50:	108000cc 	andi	r2,r2,3
    3a54:	1886b03a 	or	r3,r3,r2
    3a58:	e0800117 	ldw	r2,4(fp)
    3a5c:	10c00015 	stw	r3,0(r2)
    3a60:	e0800217 	ldw	r2,8(fp)
    3a64:	10800017 	ldw	r2,0(r2)
    3a68:	1005d43a 	srai	r2,r2,16
    3a6c:	10c0380c 	andi	r3,r2,224
    3a70:	e0800217 	ldw	r2,8(fp)
    3a74:	10800017 	ldw	r2,0(r2)
    3a78:	1005d2fa 	srai	r2,r2,11
    3a7c:	1080070c 	andi	r2,r2,28
    3a80:	1886b03a 	or	r3,r3,r2
    3a84:	e0800217 	ldw	r2,8(fp)
    3a88:	10800017 	ldw	r2,0(r2)
    3a8c:	1005d1ba 	srai	r2,r2,6
    3a90:	108000cc 	andi	r2,r2,3
    3a94:	1886b03a 	or	r3,r3,r2
    3a98:	e0800217 	ldw	r2,8(fp)
    3a9c:	10c00015 	stw	r3,0(r2)
    3aa0:	00005406 	br	3bf4 <resampleColours+0x2c0>
    3aa4:	e0bffc17 	ldw	r2,-16(fp)
    3aa8:	10801017 	ldw	r2,64(r2)
    3aac:	10800098 	cmpnei	r2,r2,2
    3ab0:	1000501e 	bne	r2,zero,3bf4 <resampleColours+0x2c0>
    3ab4:	e0bffd17 	ldw	r2,-12(fp)
    3ab8:	10800017 	ldw	r2,0(r2)
    3abc:	1005d23a 	srai	r2,r2,8
    3ac0:	10fe000c 	andi	r3,r2,63488
    3ac4:	e0bffd17 	ldw	r2,-12(fp)
    3ac8:	10800017 	ldw	r2,0(r2)
    3acc:	1005d17a 	srai	r2,r2,5
    3ad0:	1081f80c 	andi	r2,r2,2016
    3ad4:	1886b03a 	or	r3,r3,r2
    3ad8:	e0bffd17 	ldw	r2,-12(fp)
    3adc:	10800017 	ldw	r2,0(r2)
    3ae0:	1005d0fa 	srai	r2,r2,3
    3ae4:	108007cc 	andi	r2,r2,31
    3ae8:	1886b03a 	or	r3,r3,r2
    3aec:	e0bffd17 	ldw	r2,-12(fp)
    3af0:	10c00015 	stw	r3,0(r2)
    3af4:	e0bffe17 	ldw	r2,-8(fp)
    3af8:	10800017 	ldw	r2,0(r2)
    3afc:	1005d23a 	srai	r2,r2,8
    3b00:	10fe000c 	andi	r3,r2,63488
    3b04:	e0bffe17 	ldw	r2,-8(fp)
    3b08:	10800017 	ldw	r2,0(r2)
    3b0c:	1005d17a 	srai	r2,r2,5
    3b10:	1081f80c 	andi	r2,r2,2016
    3b14:	1886b03a 	or	r3,r3,r2
    3b18:	e0bffe17 	ldw	r2,-8(fp)
    3b1c:	10800017 	ldw	r2,0(r2)
    3b20:	1005d0fa 	srai	r2,r2,3
    3b24:	108007cc 	andi	r2,r2,31
    3b28:	1886b03a 	or	r3,r3,r2
    3b2c:	e0bffe17 	ldw	r2,-8(fp)
    3b30:	10c00015 	stw	r3,0(r2)
    3b34:	e0bfff17 	ldw	r2,-4(fp)
    3b38:	10800017 	ldw	r2,0(r2)
    3b3c:	1005d23a 	srai	r2,r2,8
    3b40:	10fe000c 	andi	r3,r2,63488
    3b44:	e0bfff17 	ldw	r2,-4(fp)
    3b48:	10800017 	ldw	r2,0(r2)
    3b4c:	1005d17a 	srai	r2,r2,5
    3b50:	1081f80c 	andi	r2,r2,2016
    3b54:	1886b03a 	or	r3,r3,r2
    3b58:	e0bfff17 	ldw	r2,-4(fp)
    3b5c:	10800017 	ldw	r2,0(r2)
    3b60:	1005d0fa 	srai	r2,r2,3
    3b64:	108007cc 	andi	r2,r2,31
    3b68:	1886b03a 	or	r3,r3,r2
    3b6c:	e0bfff17 	ldw	r2,-4(fp)
    3b70:	10c00015 	stw	r3,0(r2)
    3b74:	e0800117 	ldw	r2,4(fp)
    3b78:	10800017 	ldw	r2,0(r2)
    3b7c:	1005d23a 	srai	r2,r2,8
    3b80:	10fe000c 	andi	r3,r2,63488
    3b84:	e0800117 	ldw	r2,4(fp)
    3b88:	10800017 	ldw	r2,0(r2)
    3b8c:	1005d17a 	srai	r2,r2,5
    3b90:	1081f80c 	andi	r2,r2,2016
    3b94:	1886b03a 	or	r3,r3,r2
    3b98:	e0800117 	ldw	r2,4(fp)
    3b9c:	10800017 	ldw	r2,0(r2)
    3ba0:	1005d0fa 	srai	r2,r2,3
    3ba4:	108007cc 	andi	r2,r2,31
    3ba8:	1886b03a 	or	r3,r3,r2
    3bac:	e0800117 	ldw	r2,4(fp)
    3bb0:	10c00015 	stw	r3,0(r2)
    3bb4:	e0800217 	ldw	r2,8(fp)
    3bb8:	10800017 	ldw	r2,0(r2)
    3bbc:	1005d23a 	srai	r2,r2,8
    3bc0:	10fe000c 	andi	r3,r2,63488
    3bc4:	e0800217 	ldw	r2,8(fp)
    3bc8:	10800017 	ldw	r2,0(r2)
    3bcc:	1005d17a 	srai	r2,r2,5
    3bd0:	1081f80c 	andi	r2,r2,2016
    3bd4:	1886b03a 	or	r3,r3,r2
    3bd8:	e0800217 	ldw	r2,8(fp)
    3bdc:	10800017 	ldw	r2,0(r2)
    3be0:	1005d0fa 	srai	r2,r2,3
    3be4:	108007cc 	andi	r2,r2,31
    3be8:	1886b03a 	or	r3,r3,r2
    3bec:	e0800217 	ldw	r2,8(fp)
    3bf0:	10c00015 	stw	r3,0(r2)
    3bf4:	0001883a 	nop
    3bf8:	e037883a 	mov	sp,fp
    3bfc:	df000017 	ldw	fp,0(sp)
    3c00:	dec00104 	addi	sp,sp,4
    3c04:	f800283a 	ret

00003c08 <openPixelDMA>:
    3c08:	defffd04 	addi	sp,sp,-12
    3c0c:	dfc00215 	stw	ra,8(sp)
    3c10:	df000115 	stw	fp,4(sp)
    3c14:	df000104 	addi	fp,sp,4
    3c18:	e13fff15 	stw	r4,-4(fp)
    3c1c:	010001b4 	movhi	r4,6
    3c20:	2122f704 	addi	r4,r4,-29732
    3c24:	0007adc0 	call	7adc <alt_up_video_dma_open_dev>
    3c28:	1007883a 	mov	r3,r2
    3c2c:	e0bfff17 	ldw	r2,-4(fp)
    3c30:	10c00015 	stw	r3,0(r2)
    3c34:	e0bfff17 	ldw	r2,-4(fp)
    3c38:	10800017 	ldw	r2,0(r2)
    3c3c:	1000051e 	bne	r2,zero,3c54 <openPixelDMA+0x4c>
    3c40:	010001b4 	movhi	r4,6
    3c44:	21230004 	addi	r4,r4,-29696
    3c48:	00057c40 	call	57c4 <alt_printf>
    3c4c:	00bfffc4 	movi	r2,-1
    3c50:	00000406 	br	3c64 <openPixelDMA+0x5c>
    3c54:	010001b4 	movhi	r4,6
    3c58:	21230d04 	addi	r4,r4,-29644
    3c5c:	00057c40 	call	57c4 <alt_printf>
    3c60:	0005883a 	mov	r2,zero
    3c64:	e037883a 	mov	sp,fp
    3c68:	dfc00117 	ldw	ra,4(sp)
    3c6c:	df000017 	ldw	fp,0(sp)
    3c70:	dec00204 	addi	sp,sp,8
    3c74:	f800283a 	ret

00003c78 <openCharDMA>:
    3c78:	defffd04 	addi	sp,sp,-12
    3c7c:	dfc00215 	stw	ra,8(sp)
    3c80:	df000115 	stw	fp,4(sp)
    3c84:	df000104 	addi	fp,sp,4
    3c88:	e13fff15 	stw	r4,-4(fp)
    3c8c:	010001b4 	movhi	r4,6
    3c90:	21231604 	addi	r4,r4,-29608
    3c94:	0007adc0 	call	7adc <alt_up_video_dma_open_dev>
    3c98:	1007883a 	mov	r3,r2
    3c9c:	e0bfff17 	ldw	r2,-4(fp)
    3ca0:	10c00015 	stw	r3,0(r2)
    3ca4:	e0bfff17 	ldw	r2,-4(fp)
    3ca8:	10800017 	ldw	r2,0(r2)
    3cac:	1000051e 	bne	r2,zero,3cc4 <openCharDMA+0x4c>
    3cb0:	010001b4 	movhi	r4,6
    3cb4:	21232304 	addi	r4,r4,-29556
    3cb8:	00057c40 	call	57c4 <alt_printf>
    3cbc:	00bfffc4 	movi	r2,-1
    3cc0:	00000406 	br	3cd4 <openCharDMA+0x5c>
    3cc4:	010001b4 	movhi	r4,6
    3cc8:	21233304 	addi	r4,r4,-29492
    3ccc:	00057c40 	call	57c4 <alt_printf>
    3cd0:	0005883a 	mov	r2,zero
    3cd4:	e037883a 	mov	sp,fp
    3cd8:	dfc00117 	ldw	ra,4(sp)
    3cdc:	df000017 	ldw	fp,0(sp)
    3ce0:	dec00204 	addi	sp,sp,8
    3ce4:	f800283a 	ret

00003ce8 <assignPixelBuffers>:
    3ce8:	defffd04 	addi	sp,sp,-12
    3cec:	dfc00215 	stw	ra,8(sp)
    3cf0:	df000115 	stw	fp,4(sp)
    3cf4:	df000104 	addi	fp,sp,4
    3cf8:	e13fff15 	stw	r4,-4(fp)
    3cfc:	01420034 	movhi	r5,2048
    3d00:	e13fff17 	ldw	r4,-4(fp)
    3d04:	0007b180 	call	7b18 <alt_up_video_dma_ctrl_set_bb_addr>
    3d08:	01400044 	movi	r5,1
    3d0c:	e13fff17 	ldw	r4,-4(fp)
    3d10:	00086c00 	call	86c0 <alt_up_video_dma_screen_clear>
    3d14:	e13fff17 	ldw	r4,-4(fp)
    3d18:	0007b740 	call	7b74 <alt_up_video_dma_ctrl_swap_buffers>
    3d1c:	0001883a 	nop
    3d20:	e13fff17 	ldw	r4,-4(fp)
    3d24:	0007bd40 	call	7bd4 <alt_up_video_dma_ctrl_check_swap_status>
    3d28:	103ffd1e 	bne	r2,zero,3d20 <__alt_mem_VGA_Subsystem_Char_Buf_Subsystem_Onchip_SRAM+0xf7003d20>
    3d2c:	01420834 	movhi	r5,2080
    3d30:	e13fff17 	ldw	r4,-4(fp)
    3d34:	0007b180 	call	7b18 <alt_up_video_dma_ctrl_set_bb_addr>
    3d38:	0001883a 	nop
    3d3c:	e037883a 	mov	sp,fp
    3d40:	dfc00117 	ldw	ra,4(sp)
    3d44:	df000017 	ldw	fp,0(sp)
    3d48:	dec00204 	addi	sp,sp,8
    3d4c:	f800283a 	ret

00003d50 <assignCharBuffers>:
    3d50:	defffd04 	addi	sp,sp,-12
    3d54:	dfc00215 	stw	ra,8(sp)
    3d58:	df000115 	stw	fp,4(sp)
    3d5c:	df000104 	addi	fp,sp,4
    3d60:	e13fff15 	stw	r4,-4(fp)
    3d64:	01400044 	movi	r5,1
    3d68:	e13fff17 	ldw	r4,-4(fp)
    3d6c:	00086c00 	call	86c0 <alt_up_video_dma_screen_clear>
    3d70:	01424034 	movhi	r5,2304
    3d74:	e13fff17 	ldw	r4,-4(fp)
    3d78:	0007b180 	call	7b18 <alt_up_video_dma_ctrl_set_bb_addr>
    3d7c:	e13fff17 	ldw	r4,-4(fp)
    3d80:	0007b740 	call	7b74 <alt_up_video_dma_ctrl_swap_buffers>
    3d84:	0001883a 	nop
    3d88:	e13fff17 	ldw	r4,-4(fp)
    3d8c:	0007bd40 	call	7bd4 <alt_up_video_dma_ctrl_check_swap_status>
    3d90:	103ffd1e 	bne	r2,zero,3d88 <__alt_mem_VGA_Subsystem_Char_Buf_Subsystem_Onchip_SRAM+0xf7003d88>
    3d94:	01424034 	movhi	r5,2304
    3d98:	e13fff17 	ldw	r4,-4(fp)
    3d9c:	0007b180 	call	7b18 <alt_up_video_dma_ctrl_set_bb_addr>
    3da0:	01400044 	movi	r5,1
    3da4:	e13fff17 	ldw	r4,-4(fp)
    3da8:	00086c00 	call	86c0 <alt_up_video_dma_screen_clear>
    3dac:	0001883a 	nop
    3db0:	e037883a 	mov	sp,fp
    3db4:	dfc00117 	ldw	ra,4(sp)
    3db8:	df000017 	ldw	fp,0(sp)
    3dbc:	dec00204 	addi	sp,sp,8
    3dc0:	f800283a 	ret

00003dc4 <initSplash>:
    3dc4:	defffb04 	addi	sp,sp,-20
    3dc8:	dfc00415 	stw	ra,16(sp)
    3dcc:	df000315 	stw	fp,12(sp)
    3dd0:	df000304 	addi	fp,sp,12
    3dd4:	e13ffd15 	stw	r4,-12(fp)
    3dd8:	e17ffe15 	stw	r5,-8(fp)
    3ddc:	e1bfff15 	stw	r6,-4(fp)
    3de0:	e1bfff17 	ldw	r6,-4(fp)
    3de4:	e17ffe17 	ldw	r5,-8(fp)
    3de8:	e13ffd17 	ldw	r4,-12(fp)
    3dec:	0002d7c0 	call	2d7c <drawSplash>
    3df0:	e13ffd17 	ldw	r4,-12(fp)
    3df4:	0007b740 	call	7b74 <alt_up_video_dma_ctrl_swap_buffers>
    3df8:	0001883a 	nop
    3dfc:	e13ffd17 	ldw	r4,-12(fp)
    3e00:	0007bd40 	call	7bd4 <alt_up_video_dma_ctrl_check_swap_status>
    3e04:	103ffd1e 	bne	r2,zero,3dfc <__alt_mem_VGA_Subsystem_Char_Buf_Subsystem_Onchip_SRAM+0xf7003dfc>
    3e08:	e1bfff17 	ldw	r6,-4(fp)
    3e0c:	e17ffe17 	ldw	r5,-8(fp)
    3e10:	e13ffd17 	ldw	r4,-12(fp)
    3e14:	0002d7c0 	call	2d7c <drawSplash>
    3e18:	0001883a 	nop
    3e1c:	e037883a 	mov	sp,fp
    3e20:	dfc00117 	ldw	ra,4(sp)
    3e24:	df000017 	ldw	fp,0(sp)
    3e28:	dec00204 	addi	sp,sp,8
    3e2c:	f800283a 	ret

00003e30 <initMouse>:
    3e30:	defff904 	addi	sp,sp,-28
    3e34:	dfc00615 	stw	ra,24(sp)
    3e38:	df000515 	stw	fp,20(sp)
    3e3c:	df000504 	addi	fp,sp,20
    3e40:	e13ffc15 	stw	r4,-16(fp)
    3e44:	e17ffd15 	stw	r5,-12(fp)
    3e48:	e1bffe15 	stw	r6,-8(fp)
    3e4c:	e1ffff15 	stw	r7,-4(fp)
    3e50:	e0bffc17 	ldw	r2,-16(fp)
    3e54:	10801117 	ldw	r2,68(r2)
    3e58:	1004d07a 	srli	r2,r2,1
    3e5c:	1007883a 	mov	r3,r2
    3e60:	e0bffe17 	ldw	r2,-8(fp)
    3e64:	10c00015 	stw	r3,0(r2)
    3e68:	e0bffc17 	ldw	r2,-16(fp)
    3e6c:	10801217 	ldw	r2,72(r2)
    3e70:	1004d07a 	srli	r2,r2,1
    3e74:	1007883a 	mov	r3,r2
    3e78:	e0bffe17 	ldw	r2,-8(fp)
    3e7c:	10c00115 	stw	r3,4(r2)
    3e80:	e0bffe17 	ldw	r2,-8(fp)
    3e84:	e0c00317 	ldw	r3,12(fp)
    3e88:	d8c00015 	stw	r3,0(sp)
    3e8c:	11800017 	ldw	r6,0(r2)
    3e90:	11c00117 	ldw	r7,4(r2)
    3e94:	e17ffd17 	ldw	r5,-12(fp)
    3e98:	e13ffc17 	ldw	r4,-16(fp)
    3e9c:	00034100 	call	3410 <drawCursor>
    3ea0:	e17fff17 	ldw	r5,-4(fp)
    3ea4:	e13ffe17 	ldw	r4,-8(fp)
    3ea8:	00033d00 	call	33d0 <copyPoint>
    3eac:	e1400217 	ldw	r5,8(fp)
    3eb0:	e13ffe17 	ldw	r4,-8(fp)
    3eb4:	00033d00 	call	33d0 <copyPoint>
    3eb8:	0001883a 	nop
    3ebc:	e037883a 	mov	sp,fp
    3ec0:	dfc00117 	ldw	ra,4(sp)
    3ec4:	df000017 	ldw	fp,0(sp)
    3ec8:	dec00204 	addi	sp,sp,8
    3ecc:	f800283a 	ret

00003ed0 <clickedInArea>:
    3ed0:	defffb04 	addi	sp,sp,-20
    3ed4:	df000415 	stw	fp,16(sp)
    3ed8:	df000404 	addi	fp,sp,16
    3edc:	e13ffc15 	stw	r4,-16(fp)
    3ee0:	e17ffd15 	stw	r5,-12(fp)
    3ee4:	e1bffe15 	stw	r6,-8(fp)
    3ee8:	e1ffff15 	stw	r7,-4(fp)
    3eec:	e0fffc17 	ldw	r3,-16(fp)
    3ef0:	e0bffe17 	ldw	r2,-8(fp)
    3ef4:	18800b16 	blt	r3,r2,3f24 <clickedInArea+0x54>
    3ef8:	e0bffc17 	ldw	r2,-16(fp)
    3efc:	e0c00117 	ldw	r3,4(fp)
    3f00:	18800816 	blt	r3,r2,3f24 <clickedInArea+0x54>
    3f04:	e0fffd17 	ldw	r3,-12(fp)
    3f08:	e0bfff17 	ldw	r2,-4(fp)
    3f0c:	18800516 	blt	r3,r2,3f24 <clickedInArea+0x54>
    3f10:	e0bffd17 	ldw	r2,-12(fp)
    3f14:	e0c00217 	ldw	r3,8(fp)
    3f18:	18800216 	blt	r3,r2,3f24 <clickedInArea+0x54>
    3f1c:	00800044 	movi	r2,1
    3f20:	00000106 	br	3f28 <clickedInArea+0x58>
    3f24:	0005883a 	mov	r2,zero
    3f28:	e037883a 	mov	sp,fp
    3f2c:	df000017 	ldw	fp,0(sp)
    3f30:	dec00104 	addi	sp,sp,4
    3f34:	f800283a 	ret

00003f38 <displayInstructionsScreen>:
    3f38:	defffa04 	addi	sp,sp,-24
    3f3c:	dfc00515 	stw	ra,20(sp)
    3f40:	df000415 	stw	fp,16(sp)
    3f44:	df000404 	addi	fp,sp,16
    3f48:	e13ffe15 	stw	r4,-8(fp)
    3f4c:	e17fff15 	stw	r5,-4(fp)
    3f50:	01400044 	movi	r5,1
    3f54:	e13ffe17 	ldw	r4,-8(fp)
    3f58:	00086c00 	call	86c0 <alt_up_video_dma_screen_clear>
    3f5c:	e13ffe17 	ldw	r4,-8(fp)
    3f60:	0007b740 	call	7b74 <alt_up_video_dma_ctrl_swap_buffers>
    3f64:	0001883a 	nop
    3f68:	e13ffe17 	ldw	r4,-8(fp)
    3f6c:	0007bd40 	call	7bd4 <alt_up_video_dma_ctrl_check_swap_status>
    3f70:	103ffd1e 	bne	r2,zero,3f68 <__alt_mem_VGA_Subsystem_Char_Buf_Subsystem_Onchip_SRAM+0xf7003f68>
    3f74:	01400044 	movi	r5,1
    3f78:	e13ffe17 	ldw	r4,-8(fp)
    3f7c:	00086c00 	call	86c0 <alt_up_video_dma_screen_clear>
    3f80:	e03ffd15 	stw	zero,-12(fp)
    3f84:	00800044 	movi	r2,1
    3f88:	d8800015 	stw	r2,0(sp)
    3f8c:	000f883a 	mov	r7,zero
    3f90:	000d883a 	mov	r6,zero
    3f94:	014001b4 	movhi	r5,6
    3f98:	29634004 	addi	r5,r5,-29440
    3f9c:	e13fff17 	ldw	r4,-4(fp)
    3fa0:	000847c0 	call	847c <alt_up_video_dma_draw_string>
    3fa4:	00800044 	movi	r2,1
    3fa8:	d8800015 	stw	r2,0(sp)
    3fac:	01c000c4 	movi	r7,3
    3fb0:	000d883a 	mov	r6,zero
    3fb4:	014001b4 	movhi	r5,6
    3fb8:	29634404 	addi	r5,r5,-29424
    3fbc:	e13fff17 	ldw	r4,-4(fp)
    3fc0:	000847c0 	call	847c <alt_up_video_dma_draw_string>
    3fc4:	00800044 	movi	r2,1
    3fc8:	d8800015 	stw	r2,0(sp)
    3fcc:	01c00184 	movi	r7,6
    3fd0:	000d883a 	mov	r6,zero
    3fd4:	014001b4 	movhi	r5,6
    3fd8:	29634b04 	addi	r5,r5,-29396
    3fdc:	e13fff17 	ldw	r4,-4(fp)
    3fe0:	000847c0 	call	847c <alt_up_video_dma_draw_string>
    3fe4:	00800044 	movi	r2,1
    3fe8:	d8800015 	stw	r2,0(sp)
    3fec:	01c00244 	movi	r7,9
    3ff0:	000d883a 	mov	r6,zero
    3ff4:	014001b4 	movhi	r5,6
    3ff8:	29634e04 	addi	r5,r5,-29384
    3ffc:	e13fff17 	ldw	r4,-4(fp)
    4000:	000847c0 	call	847c <alt_up_video_dma_draw_string>
    4004:	00800044 	movi	r2,1
    4008:	d8800015 	stw	r2,0(sp)
    400c:	01c00304 	movi	r7,12
    4010:	000d883a 	mov	r6,zero
    4014:	014001b4 	movhi	r5,6
    4018:	29635e04 	addi	r5,r5,-29320
    401c:	e13fff17 	ldw	r4,-4(fp)
    4020:	000847c0 	call	847c <alt_up_video_dma_draw_string>
    4024:	00800044 	movi	r2,1
    4028:	d8800015 	stw	r2,0(sp)
    402c:	01c003c4 	movi	r7,15
    4030:	000d883a 	mov	r6,zero
    4034:	014001b4 	movhi	r5,6
    4038:	29636d04 	addi	r5,r5,-29260
    403c:	e13fff17 	ldw	r4,-4(fp)
    4040:	000847c0 	call	847c <alt_up_video_dma_draw_string>
    4044:	00800044 	movi	r2,1
    4048:	d8800015 	stw	r2,0(sp)
    404c:	01c00484 	movi	r7,18
    4050:	000d883a 	mov	r6,zero
    4054:	014001b4 	movhi	r5,6
    4058:	29637304 	addi	r5,r5,-29236
    405c:	e13fff17 	ldw	r4,-4(fp)
    4060:	000847c0 	call	847c <alt_up_video_dma_draw_string>
    4064:	00800044 	movi	r2,1
    4068:	d8800015 	stw	r2,0(sp)
    406c:	01c00544 	movi	r7,21
    4070:	000d883a 	mov	r6,zero
    4074:	014001b4 	movhi	r5,6
    4078:	29638504 	addi	r5,r5,-29164
    407c:	e13fff17 	ldw	r4,-4(fp)
    4080:	000847c0 	call	847c <alt_up_video_dma_draw_string>
    4084:	00800044 	movi	r2,1
    4088:	d8800015 	stw	r2,0(sp)
    408c:	01c00604 	movi	r7,24
    4090:	000d883a 	mov	r6,zero
    4094:	014001b4 	movhi	r5,6
    4098:	29638b04 	addi	r5,r5,-29140
    409c:	e13fff17 	ldw	r4,-4(fp)
    40a0:	000847c0 	call	847c <alt_up_video_dma_draw_string>
    40a4:	00800044 	movi	r2,1
    40a8:	d8800015 	stw	r2,0(sp)
    40ac:	01c006c4 	movi	r7,27
    40b0:	000d883a 	mov	r6,zero
    40b4:	014001b4 	movhi	r5,6
    40b8:	29639a04 	addi	r5,r5,-29080
    40bc:	e13fff17 	ldw	r4,-4(fp)
    40c0:	000847c0 	call	847c <alt_up_video_dma_draw_string>
    40c4:	00800044 	movi	r2,1
    40c8:	d8800015 	stw	r2,0(sp)
    40cc:	01c00784 	movi	r7,30
    40d0:	000d883a 	mov	r6,zero
    40d4:	014001b4 	movhi	r5,6
    40d8:	2963a904 	addi	r5,r5,-29020
    40dc:	e13fff17 	ldw	r4,-4(fp)
    40e0:	000847c0 	call	847c <alt_up_video_dma_draw_string>
    40e4:	00800044 	movi	r2,1
    40e8:	d8800015 	stw	r2,0(sp)
    40ec:	01c00844 	movi	r7,33
    40f0:	000d883a 	mov	r6,zero
    40f4:	014001b4 	movhi	r5,6
    40f8:	2963bb04 	addi	r5,r5,-28948
    40fc:	e13fff17 	ldw	r4,-4(fp)
    4100:	000847c0 	call	847c <alt_up_video_dma_draw_string>
    4104:	00800044 	movi	r2,1
    4108:	d8800015 	stw	r2,0(sp)
    410c:	01c00904 	movi	r7,36
    4110:	000d883a 	mov	r6,zero
    4114:	014001b4 	movhi	r5,6
    4118:	2963cd04 	addi	r5,r5,-28876
    411c:	e13fff17 	ldw	r4,-4(fp)
    4120:	000847c0 	call	847c <alt_up_video_dma_draw_string>
    4124:	00800044 	movi	r2,1
    4128:	d8800015 	stw	r2,0(sp)
    412c:	01c009c4 	movi	r7,39
    4130:	000d883a 	mov	r6,zero
    4134:	014001b4 	movhi	r5,6
    4138:	2963d904 	addi	r5,r5,-28828
    413c:	e13fff17 	ldw	r4,-4(fp)
    4140:	000847c0 	call	847c <alt_up_video_dma_draw_string>
    4144:	0001883a 	nop
    4148:	e037883a 	mov	sp,fp
    414c:	dfc00117 	ldw	ra,4(sp)
    4150:	df000017 	ldw	fp,0(sp)
    4154:	dec00204 	addi	sp,sp,8
    4158:	f800283a 	ret

0000415c <resolve_collisions_dynamic>:
    415c:	defff304 	addi	sp,sp,-52
    4160:	dfc00c15 	stw	ra,48(sp)
    4164:	df000b15 	stw	fp,44(sp)
    4168:	df000b04 	addi	fp,sp,44
    416c:	e03ff50d 	sth	zero,-44(fp)
    4170:	00008706 	br	4390 <resolve_collisions_dynamic+0x234>
    4174:	e0bff50f 	ldh	r2,-44(fp)
    4178:	10c00d24 	muli	r3,r2,52
    417c:	00800374 	movhi	r2,13
    4180:	10b51204 	addi	r2,r2,-11192
    4184:	1885883a 	add	r2,r3,r2
    4188:	e0bff615 	stw	r2,-40(fp)
    418c:	e0bff50b 	ldhu	r2,-44(fp)
    4190:	10800044 	addi	r2,r2,1
    4194:	e0bff58d 	sth	r2,-42(fp)
    4198:	00007706 	br	4378 <resolve_collisions_dynamic+0x21c>
    419c:	e0bff58f 	ldh	r2,-42(fp)
    41a0:	10c00d24 	muli	r3,r2,52
    41a4:	00800374 	movhi	r2,13
    41a8:	10b51204 	addi	r2,r2,-11192
    41ac:	1885883a 	add	r2,r3,r2
    41b0:	e0bff715 	stw	r2,-36(fp)
    41b4:	e0bff617 	ldw	r2,-40(fp)
    41b8:	10c00017 	ldw	r3,0(r2)
    41bc:	e13ff717 	ldw	r4,-36(fp)
    41c0:	20800017 	ldw	r2,0(r4)
    41c4:	1885ffb2 	custom	254,r2,r3,r2
    41c8:	e0bff815 	stw	r2,-32(fp)
    41cc:	e0bff617 	ldw	r2,-40(fp)
    41d0:	10c00117 	ldw	r3,4(r2)
    41d4:	e13ff717 	ldw	r4,-36(fp)
    41d8:	20800117 	ldw	r2,4(r4)
    41dc:	1885ffb2 	custom	254,r2,r3,r2
    41e0:	e0bff915 	stw	r2,-28(fp)
    41e4:	e0fff817 	ldw	r3,-32(fp)
    41e8:	e0bff817 	ldw	r2,-32(fp)
    41ec:	1887ff32 	custom	252,r3,r3,r2
    41f0:	e13ff917 	ldw	r4,-28(fp)
    41f4:	e0bff917 	ldw	r2,-28(fp)
    41f8:	2085ff32 	custom	252,r2,r4,r2
    41fc:	1885ff72 	custom	253,r2,r3,r2
    4200:	e0bffa15 	stw	r2,-24(fp)
    4204:	e0bff617 	ldw	r2,-40(fp)
    4208:	10c00a17 	ldw	r3,40(r2)
    420c:	e0bff717 	ldw	r2,-36(fp)
    4210:	10800a17 	ldw	r2,40(r2)
    4214:	1885883a 	add	r2,r3,r2
    4218:	e0bffb15 	stw	r2,-20(fp)
    421c:	e0fffb17 	ldw	r3,-20(fp)
    4220:	e0bffb17 	ldw	r2,-20(fp)
    4224:	1885383a 	mul	r2,r3,r2
    4228:	1007feb2 	custom	250,r3,r2,zero
    422c:	e0bffa17 	ldw	r2,-24(fp)
    4230:	1885f932 	custom	228,r2,r3,r2
    4234:	10004d26 	beq	r2,zero,436c <resolve_collisions_dynamic+0x210>
    4238:	e0bffa17 	ldw	r2,-24(fp)
    423c:	1005fef2 	custom	251,r2,r2,zero
    4240:	e0bffc15 	stw	r2,-16(fp)
    4244:	e0fff817 	ldw	r3,-32(fp)
    4248:	e0bffc17 	ldw	r2,-16(fp)
    424c:	1885fff2 	custom	255,r2,r3,r2
    4250:	e0bffd15 	stw	r2,-12(fp)
    4254:	e0fff917 	ldw	r3,-28(fp)
    4258:	e0bffc17 	ldw	r2,-16(fp)
    425c:	1885fff2 	custom	255,r2,r3,r2
    4260:	e0bffe15 	stw	r2,-8(fp)
    4264:	e0bffb17 	ldw	r2,-20(fp)
    4268:	1005feb2 	custom	250,r2,r2,zero
    426c:	e0fffc17 	ldw	r3,-16(fp)
    4270:	1885ffb2 	custom	254,r2,r3,r2
    4274:	e0bfff15 	stw	r2,-4(fp)
    4278:	e0bff617 	ldw	r2,-40(fp)
    427c:	10c00017 	ldw	r3,0(r2)
    4280:	e13ffd17 	ldw	r4,-12(fp)
    4284:	008fc034 	movhi	r2,16128
    4288:	2089ff32 	custom	252,r4,r4,r2
    428c:	e0bfff17 	ldw	r2,-4(fp)
    4290:	2085ff32 	custom	252,r2,r4,r2
    4294:	1887ffb2 	custom	254,r3,r3,r2
    4298:	e0bff617 	ldw	r2,-40(fp)
    429c:	10c00015 	stw	r3,0(r2)
    42a0:	e0bff617 	ldw	r2,-40(fp)
    42a4:	10c00117 	ldw	r3,4(r2)
    42a8:	e13ffe17 	ldw	r4,-8(fp)
    42ac:	008fc034 	movhi	r2,16128
    42b0:	2089ff32 	custom	252,r4,r4,r2
    42b4:	e0bfff17 	ldw	r2,-4(fp)
    42b8:	2085ff32 	custom	252,r2,r4,r2
    42bc:	1887ffb2 	custom	254,r3,r3,r2
    42c0:	e0bff617 	ldw	r2,-40(fp)
    42c4:	10c00115 	stw	r3,4(r2)
    42c8:	e0bff717 	ldw	r2,-36(fp)
    42cc:	10c00017 	ldw	r3,0(r2)
    42d0:	e13ffd17 	ldw	r4,-12(fp)
    42d4:	008fc034 	movhi	r2,16128
    42d8:	2089ff32 	custom	252,r4,r4,r2
    42dc:	e0bfff17 	ldw	r2,-4(fp)
    42e0:	2085ff32 	custom	252,r2,r4,r2
    42e4:	1887ff72 	custom	253,r3,r3,r2
    42e8:	e0bff717 	ldw	r2,-36(fp)
    42ec:	10c00015 	stw	r3,0(r2)
    42f0:	e0bff717 	ldw	r2,-36(fp)
    42f4:	10c00117 	ldw	r3,4(r2)
    42f8:	e13ffe17 	ldw	r4,-8(fp)
    42fc:	008fc034 	movhi	r2,16128
    4300:	2089ff32 	custom	252,r4,r4,r2
    4304:	e0bfff17 	ldw	r2,-4(fp)
    4308:	2085ff32 	custom	252,r2,r4,r2
    430c:	1887ff72 	custom	253,r3,r3,r2
    4310:	e0bff717 	ldw	r2,-36(fp)
    4314:	10c00115 	stw	r3,4(r2)
    4318:	e0bffd17 	ldw	r2,-12(fp)
    431c:	0007883a 	mov	r3,zero
    4320:	10c5f972 	custom	229,r2,r2,r3
    4324:	10000926 	beq	r2,zero,434c <resolve_collisions_dynamic+0x1f0>
    4328:	e1bff617 	ldw	r6,-40(fp)
    432c:	000b883a 	mov	r5,zero
    4330:	01104434 	movhi	r4,16656
    4334:	000479c0 	call	479c <accelerate_dynamic>
    4338:	e1bff717 	ldw	r6,-36(fp)
    433c:	000b883a 	mov	r5,zero
    4340:	01304434 	movhi	r4,49424
    4344:	000479c0 	call	479c <accelerate_dynamic>
    4348:	00000806 	br	436c <resolve_collisions_dynamic+0x210>
    434c:	e1bff617 	ldw	r6,-40(fp)
    4350:	000b883a 	mov	r5,zero
    4354:	01304434 	movhi	r4,49424
    4358:	000479c0 	call	479c <accelerate_dynamic>
    435c:	e1bff717 	ldw	r6,-36(fp)
    4360:	000b883a 	mov	r5,zero
    4364:	01104434 	movhi	r4,16656
    4368:	000479c0 	call	479c <accelerate_dynamic>
    436c:	e0bff58b 	ldhu	r2,-42(fp)
    4370:	10800044 	addi	r2,r2,1
    4374:	e0bff58d 	sth	r2,-42(fp)
    4378:	e0fff58f 	ldh	r3,-42(fp)
    437c:	d0a77517 	ldw	r2,-25132(gp)
    4380:	18bf8616 	blt	r3,r2,419c <__alt_mem_VGA_Subsystem_Char_Buf_Subsystem_Onchip_SRAM+0xf700419c>
    4384:	e0bff50b 	ldhu	r2,-44(fp)
    4388:	10800044 	addi	r2,r2,1
    438c:	e0bff50d 	sth	r2,-44(fp)
    4390:	e0fff50f 	ldh	r3,-44(fp)
    4394:	d0a77517 	ldw	r2,-25132(gp)
    4398:	18bf7616 	blt	r3,r2,4174 <__alt_mem_VGA_Subsystem_Char_Buf_Subsystem_Onchip_SRAM+0xf7004174>
    439c:	0001883a 	nop
    43a0:	e037883a 	mov	sp,fp
    43a4:	dfc00117 	ldw	ra,4(sp)
    43a8:	df000017 	ldw	fp,0(sp)
    43ac:	dec00204 	addi	sp,sp,8
    43b0:	f800283a 	ret

000043b4 <update_gravity>:
    43b4:	defffd04 	addi	sp,sp,-12
    43b8:	df000215 	stw	fp,8(sp)
    43bc:	df000204 	addi	fp,sp,8
    43c0:	e03ffe0d 	sth	zero,-8(fp)
    43c4:	00000e06 	br	4400 <update_gravity+0x4c>
    43c8:	e0bffe0f 	ldh	r2,-8(fp)
    43cc:	10c00d24 	muli	r3,r2,52
    43d0:	00800374 	movhi	r2,13
    43d4:	10b51204 	addi	r2,r2,-11192
    43d8:	1885883a 	add	r2,r3,r2
    43dc:	e0bfff15 	stw	r2,-4(fp)
    43e0:	e0bfff17 	ldw	r2,-4(fp)
    43e4:	10000515 	stw	zero,20(r2)
    43e8:	e0bfff17 	ldw	r2,-4(fp)
    43ec:	00d04834 	movhi	r3,16672
    43f0:	10c00615 	stw	r3,24(r2)
    43f4:	e0bffe0b 	ldhu	r2,-8(fp)
    43f8:	10800044 	addi	r2,r2,1
    43fc:	e0bffe0d 	sth	r2,-8(fp)
    4400:	e0fffe0f 	ldh	r3,-8(fp)
    4404:	d0a77517 	ldw	r2,-25132(gp)
    4408:	18bfef16 	blt	r3,r2,43c8 <__alt_mem_VGA_Subsystem_Char_Buf_Subsystem_Onchip_SRAM+0xf70043c8>
    440c:	0001883a 	nop
    4410:	e037883a 	mov	sp,fp
    4414:	df000017 	ldw	fp,0(sp)
    4418:	dec00104 	addi	sp,sp,4
    441c:	f800283a 	ret

00004420 <check_bounds>:
    4420:	defff804 	addi	sp,sp,-32
    4424:	dfc00715 	stw	ra,28(sp)
    4428:	df000615 	stw	fp,24(sp)
    442c:	df000604 	addi	fp,sp,24
    4430:	e13ffc15 	stw	r4,-16(fp)
    4434:	e17ffd15 	stw	r5,-12(fp)
    4438:	e1bffe15 	stw	r6,-8(fp)
    443c:	e1ffff15 	stw	r7,-4(fp)
    4440:	e03ffa0d 	sth	zero,-24(fp)
    4444:	00007d06 	br	463c <check_bounds+0x21c>
    4448:	e0bffa0f 	ldh	r2,-24(fp)
    444c:	10c00d24 	muli	r3,r2,52
    4450:	00800374 	movhi	r2,13
    4454:	10b51204 	addi	r2,r2,-11192
    4458:	1885883a 	add	r2,r3,r2
    445c:	e0bffb15 	stw	r2,-20(fp)
    4460:	e0bffb17 	ldw	r2,-20(fp)
    4464:	10c00017 	ldw	r3,0(r2)
    4468:	e0bffb17 	ldw	r2,-20(fp)
    446c:	10800a17 	ldw	r2,40(r2)
    4470:	e13ffd17 	ldw	r4,-12(fp)
    4474:	2085c83a 	sub	r2,r4,r2
    4478:	1005feb2 	custom	250,r2,r2,zero
    447c:	1885f972 	custom	229,r2,r3,r2
    4480:	10001926 	beq	r2,zero,44e8 <check_bounds+0xc8>
    4484:	e0bffb17 	ldw	r2,-20(fp)
    4488:	10c00017 	ldw	r3,0(r2)
    448c:	e0bffb17 	ldw	r2,-20(fp)
    4490:	10c00215 	stw	r3,8(r2)
    4494:	e0bffb17 	ldw	r2,-20(fp)
    4498:	10800a17 	ldw	r2,40(r2)
    449c:	e0fffd17 	ldw	r3,-12(fp)
    44a0:	1885c83a 	sub	r2,r3,r2
    44a4:	1007feb2 	custom	250,r3,r2,zero
    44a8:	e0bffb17 	ldw	r2,-20(fp)
    44ac:	10c00015 	stw	r3,0(r2)
    44b0:	e0bffb17 	ldw	r2,-20(fp)
    44b4:	10000515 	stw	zero,20(r2)
    44b8:	e1bffb17 	ldw	r6,-20(fp)
    44bc:	000b883a 	mov	r5,zero
    44c0:	01104434 	movhi	r4,16656
    44c4:	000479c0 	call	479c <accelerate_dynamic>
    44c8:	e0bffb17 	ldw	r2,-20(fp)
    44cc:	10c00517 	ldw	r3,20(r2)
    44d0:	e0bffb17 	ldw	r2,-20(fp)
    44d4:	10c00415 	stw	r3,16(r2)
    44d8:	e0bffb17 	ldw	r2,-20(fp)
    44dc:	00c00044 	movi	r3,1
    44e0:	10c00b05 	stb	r3,44(r2)
    44e4:	00002106 	br	456c <check_bounds+0x14c>
    44e8:	e0bffb17 	ldw	r2,-20(fp)
    44ec:	10c00017 	ldw	r3,0(r2)
    44f0:	e0bffb17 	ldw	r2,-20(fp)
    44f4:	11000a17 	ldw	r4,40(r2)
    44f8:	e0bffc17 	ldw	r2,-16(fp)
    44fc:	2085883a 	add	r2,r4,r2
    4500:	1005feb2 	custom	250,r2,r2,zero
    4504:	1885f9f2 	custom	231,r2,r3,r2
    4508:	10001826 	beq	r2,zero,456c <check_bounds+0x14c>
    450c:	e0bffb17 	ldw	r2,-20(fp)
    4510:	10c00017 	ldw	r3,0(r2)
    4514:	e0bffb17 	ldw	r2,-20(fp)
    4518:	10c00215 	stw	r3,8(r2)
    451c:	e0bffb17 	ldw	r2,-20(fp)
    4520:	10c00a17 	ldw	r3,40(r2)
    4524:	e0bffc17 	ldw	r2,-16(fp)
    4528:	1885883a 	add	r2,r3,r2
    452c:	1007feb2 	custom	250,r3,r2,zero
    4530:	e0bffb17 	ldw	r2,-20(fp)
    4534:	10c00015 	stw	r3,0(r2)
    4538:	e0bffb17 	ldw	r2,-20(fp)
    453c:	10000515 	stw	zero,20(r2)
    4540:	e1bffb17 	ldw	r6,-20(fp)
    4544:	000b883a 	mov	r5,zero
    4548:	01304434 	movhi	r4,49424
    454c:	000479c0 	call	479c <accelerate_dynamic>
    4550:	e0bffb17 	ldw	r2,-20(fp)
    4554:	10c00517 	ldw	r3,20(r2)
    4558:	e0bffb17 	ldw	r2,-20(fp)
    455c:	10c00415 	stw	r3,16(r2)
    4560:	e0bffb17 	ldw	r2,-20(fp)
    4564:	00c00044 	movi	r3,1
    4568:	10c00b05 	stb	r3,44(r2)
    456c:	e0bffb17 	ldw	r2,-20(fp)
    4570:	10c00117 	ldw	r3,4(r2)
    4574:	e0bffb17 	ldw	r2,-20(fp)
    4578:	10800a17 	ldw	r2,40(r2)
    457c:	e13fff17 	ldw	r4,-4(fp)
    4580:	2085c83a 	sub	r2,r4,r2
    4584:	1005feb2 	custom	250,r2,r2,zero
    4588:	1885f972 	custom	229,r2,r3,r2
    458c:	10001026 	beq	r2,zero,45d0 <check_bounds+0x1b0>
    4590:	e0bffb17 	ldw	r2,-20(fp)
    4594:	10c00317 	ldw	r3,12(r2)
    4598:	e0bffb17 	ldw	r2,-20(fp)
    459c:	10c00115 	stw	r3,4(r2)
    45a0:	e0bffb17 	ldw	r2,-20(fp)
    45a4:	10800a17 	ldw	r2,40(r2)
    45a8:	e0ffff17 	ldw	r3,-4(fp)
    45ac:	1885c83a 	sub	r2,r3,r2
    45b0:	1007feb2 	custom	250,r3,r2,zero
    45b4:	e0bffb17 	ldw	r2,-20(fp)
    45b8:	10c00315 	stw	r3,12(r2)
    45bc:	e1bffb17 	ldw	r6,-20(fp)
    45c0:	01700034 	movhi	r5,49152
    45c4:	0009883a 	mov	r4,zero
    45c8:	000479c0 	call	479c <accelerate_dynamic>
    45cc:	00001806 	br	4630 <check_bounds+0x210>
    45d0:	e0bffb17 	ldw	r2,-20(fp)
    45d4:	10c00117 	ldw	r3,4(r2)
    45d8:	e0bffb17 	ldw	r2,-20(fp)
    45dc:	11000a17 	ldw	r4,40(r2)
    45e0:	e0bffe17 	ldw	r2,-8(fp)
    45e4:	2085883a 	add	r2,r4,r2
    45e8:	1005feb2 	custom	250,r2,r2,zero
    45ec:	1885f9f2 	custom	231,r2,r3,r2
    45f0:	10000f26 	beq	r2,zero,4630 <check_bounds+0x210>
    45f4:	e0bffb17 	ldw	r2,-20(fp)
    45f8:	10c00317 	ldw	r3,12(r2)
    45fc:	e0bffb17 	ldw	r2,-20(fp)
    4600:	10c00115 	stw	r3,4(r2)
    4604:	e0bffb17 	ldw	r2,-20(fp)
    4608:	10c00a17 	ldw	r3,40(r2)
    460c:	e0bffe17 	ldw	r2,-8(fp)
    4610:	1885883a 	add	r2,r3,r2
    4614:	1007feb2 	custom	250,r3,r2,zero
    4618:	e0bffb17 	ldw	r2,-20(fp)
    461c:	10c00315 	stw	r3,12(r2)
    4620:	e1bffb17 	ldw	r6,-20(fp)
    4624:	01700034 	movhi	r5,49152
    4628:	0009883a 	mov	r4,zero
    462c:	000479c0 	call	479c <accelerate_dynamic>
    4630:	e0bffa0b 	ldhu	r2,-24(fp)
    4634:	10800044 	addi	r2,r2,1
    4638:	e0bffa0d 	sth	r2,-24(fp)
    463c:	e0fffa0f 	ldh	r3,-24(fp)
    4640:	d0a77517 	ldw	r2,-25132(gp)
    4644:	18bf8016 	blt	r3,r2,4448 <__alt_mem_VGA_Subsystem_Char_Buf_Subsystem_Onchip_SRAM+0xf7004448>
    4648:	0001883a 	nop
    464c:	e037883a 	mov	sp,fp
    4650:	dfc00117 	ldw	ra,4(sp)
    4654:	df000017 	ldw	fp,0(sp)
    4658:	dec00204 	addi	sp,sp,8
    465c:	f800283a 	ret

00004660 <update_dynamic>:
    4660:	defffb04 	addi	sp,sp,-20
    4664:	df000415 	stw	fp,16(sp)
    4668:	df000404 	addi	fp,sp,16
    466c:	e13ffe15 	stw	r4,-8(fp)
    4670:	e17fff15 	stw	r5,-4(fp)
    4674:	e0bfff17 	ldw	r2,-4(fp)
    4678:	10c00017 	ldw	r3,0(r2)
    467c:	e13fff17 	ldw	r4,-4(fp)
    4680:	20800217 	ldw	r2,8(r4)
    4684:	1885ffb2 	custom	254,r2,r3,r2
    4688:	e0bffc15 	stw	r2,-16(fp)
    468c:	e0bfff17 	ldw	r2,-4(fp)
    4690:	10c00117 	ldw	r3,4(r2)
    4694:	e13fff17 	ldw	r4,-4(fp)
    4698:	20800317 	ldw	r2,12(r4)
    469c:	1885ffb2 	custom	254,r2,r3,r2
    46a0:	e0bffd15 	stw	r2,-12(fp)
    46a4:	e0bfff17 	ldw	r2,-4(fp)
    46a8:	10c00017 	ldw	r3,0(r2)
    46ac:	e0bfff17 	ldw	r2,-4(fp)
    46b0:	10c00215 	stw	r3,8(r2)
    46b4:	e0bfff17 	ldw	r2,-4(fp)
    46b8:	10c00117 	ldw	r3,4(r2)
    46bc:	e0bfff17 	ldw	r2,-4(fp)
    46c0:	10c00315 	stw	r3,12(r2)
    46c4:	e0bfff17 	ldw	r2,-4(fp)
    46c8:	10c00017 	ldw	r3,0(r2)
    46cc:	e0bffc17 	ldw	r2,-16(fp)
    46d0:	1887ff72 	custom	253,r3,r3,r2
    46d4:	e0bfff17 	ldw	r2,-4(fp)
    46d8:	11000517 	ldw	r4,20(r2)
    46dc:	e17ffe17 	ldw	r5,-8(fp)
    46e0:	e0bffe17 	ldw	r2,-8(fp)
    46e4:	2885ff32 	custom	252,r2,r5,r2
    46e8:	2085ff32 	custom	252,r2,r4,r2
    46ec:	1887ff72 	custom	253,r3,r3,r2
    46f0:	e0bfff17 	ldw	r2,-4(fp)
    46f4:	10c00015 	stw	r3,0(r2)
    46f8:	e0bfff17 	ldw	r2,-4(fp)
    46fc:	10c00117 	ldw	r3,4(r2)
    4700:	e0bffd17 	ldw	r2,-12(fp)
    4704:	1887ff72 	custom	253,r3,r3,r2
    4708:	e0bfff17 	ldw	r2,-4(fp)
    470c:	11000617 	ldw	r4,24(r2)
    4710:	e17ffe17 	ldw	r5,-8(fp)
    4714:	e0bffe17 	ldw	r2,-8(fp)
    4718:	2885ff32 	custom	252,r2,r5,r2
    471c:	2085ff32 	custom	252,r2,r4,r2
    4720:	1887ff72 	custom	253,r3,r3,r2
    4724:	e0bfff17 	ldw	r2,-4(fp)
    4728:	10c00115 	stw	r3,4(r2)
    472c:	e0bfff17 	ldw	r2,-4(fp)
    4730:	10c00017 	ldw	r3,0(r2)
    4734:	e13fff17 	ldw	r4,-4(fp)
    4738:	20800217 	ldw	r2,8(r4)
    473c:	1887ffb2 	custom	254,r3,r3,r2
    4740:	e0bffc17 	ldw	r2,-16(fp)
    4744:	1885ff32 	custom	252,r2,r3,r2
    4748:	0007883a 	mov	r3,zero
    474c:	10c5f9f2 	custom	231,r2,r2,r3
    4750:	1000011e 	bne	r2,zero,4758 <update_dynamic+0xf8>
    4754:	00000c06 	br	4788 <update_dynamic+0x128>
    4758:	e0bfff17 	ldw	r2,-4(fp)
    475c:	10800b03 	ldbu	r2,44(r2)
    4760:	10803fcc 	andi	r2,r2,255
    4764:	10000826 	beq	r2,zero,4788 <update_dynamic+0x128>
    4768:	e0bfff17 	ldw	r2,-4(fp)
    476c:	10c00217 	ldw	r3,8(r2)
    4770:	e0bfff17 	ldw	r2,-4(fp)
    4774:	10c00015 	stw	r3,0(r2)
    4778:	e0bfff17 	ldw	r2,-4(fp)
    477c:	10000515 	stw	zero,20(r2)
    4780:	e0bfff17 	ldw	r2,-4(fp)
    4784:	10000415 	stw	zero,16(r2)
    4788:	0001883a 	nop
    478c:	e037883a 	mov	sp,fp
    4790:	df000017 	ldw	fp,0(sp)
    4794:	dec00104 	addi	sp,sp,4
    4798:	f800283a 	ret

0000479c <accelerate_dynamic>:
    479c:	defffc04 	addi	sp,sp,-16
    47a0:	df000315 	stw	fp,12(sp)
    47a4:	df000304 	addi	fp,sp,12
    47a8:	e13ffd15 	stw	r4,-12(fp)
    47ac:	e17ffe15 	stw	r5,-8(fp)
    47b0:	e1bfff15 	stw	r6,-4(fp)
    47b4:	e0bfff17 	ldw	r2,-4(fp)
    47b8:	10c00517 	ldw	r3,20(r2)
    47bc:	e0bffd17 	ldw	r2,-12(fp)
    47c0:	1887ff72 	custom	253,r3,r3,r2
    47c4:	e0bfff17 	ldw	r2,-4(fp)
    47c8:	10c00515 	stw	r3,20(r2)
    47cc:	e0bfff17 	ldw	r2,-4(fp)
    47d0:	10c00617 	ldw	r3,24(r2)
    47d4:	e0bffe17 	ldw	r2,-8(fp)
    47d8:	1887ff72 	custom	253,r3,r3,r2
    47dc:	e0bfff17 	ldw	r2,-4(fp)
    47e0:	10c00615 	stw	r3,24(r2)
    47e4:	0001883a 	nop
    47e8:	e037883a 	mov	sp,fp
    47ec:	df000017 	ldw	fp,0(sp)
    47f0:	dec00104 	addi	sp,sp,4
    47f4:	f800283a 	ret

000047f8 <set_new_velocity_dynamic>:
    47f8:	defffb04 	addi	sp,sp,-20
    47fc:	df000415 	stw	fp,16(sp)
    4800:	df000404 	addi	fp,sp,16
    4804:	e13ffc15 	stw	r4,-16(fp)
    4808:	e17ffd15 	stw	r5,-12(fp)
    480c:	e1bffe15 	stw	r6,-8(fp)
    4810:	e1ffff15 	stw	r7,-4(fp)
    4814:	e0bfff17 	ldw	r2,-4(fp)
    4818:	10c00017 	ldw	r3,0(r2)
    481c:	e13ffc17 	ldw	r4,-16(fp)
    4820:	e0bffe17 	ldw	r2,-8(fp)
    4824:	2085ff32 	custom	252,r2,r4,r2
    4828:	1887ffb2 	custom	254,r3,r3,r2
    482c:	e0bfff17 	ldw	r2,-4(fp)
    4830:	10c00215 	stw	r3,8(r2)
    4834:	e0bfff17 	ldw	r2,-4(fp)
    4838:	10c00117 	ldw	r3,4(r2)
    483c:	e13ffd17 	ldw	r4,-12(fp)
    4840:	e0bffe17 	ldw	r2,-8(fp)
    4844:	2085ff32 	custom	252,r2,r4,r2
    4848:	1887ffb2 	custom	254,r3,r3,r2
    484c:	e0bfff17 	ldw	r2,-4(fp)
    4850:	10c00315 	stw	r3,12(r2)
    4854:	0001883a 	nop
    4858:	e037883a 	mov	sp,fp
    485c:	df000017 	ldw	fp,0(sp)
    4860:	dec00104 	addi	sp,sp,4
    4864:	f800283a 	ret

00004868 <add_velocity_dynamic>:
    4868:	defffb04 	addi	sp,sp,-20
    486c:	df000415 	stw	fp,16(sp)
    4870:	df000404 	addi	fp,sp,16
    4874:	e13ffc15 	stw	r4,-16(fp)
    4878:	e17ffd15 	stw	r5,-12(fp)
    487c:	e1bffe15 	stw	r6,-8(fp)
    4880:	e1ffff15 	stw	r7,-4(fp)
    4884:	e0bfff17 	ldw	r2,-4(fp)
    4888:	10c00217 	ldw	r3,8(r2)
    488c:	e13ffc17 	ldw	r4,-16(fp)
    4890:	e0bffe17 	ldw	r2,-8(fp)
    4894:	2085ff32 	custom	252,r2,r4,r2
    4898:	1887ffb2 	custom	254,r3,r3,r2
    489c:	e0bfff17 	ldw	r2,-4(fp)
    48a0:	10c00215 	stw	r3,8(r2)
    48a4:	e0bfff17 	ldw	r2,-4(fp)
    48a8:	10c00317 	ldw	r3,12(r2)
    48ac:	e13ffd17 	ldw	r4,-12(fp)
    48b0:	e0bffe17 	ldw	r2,-8(fp)
    48b4:	2085ff32 	custom	252,r2,r4,r2
    48b8:	1887ffb2 	custom	254,r3,r3,r2
    48bc:	e0bfff17 	ldw	r2,-4(fp)
    48c0:	10c00315 	stw	r3,12(r2)
    48c4:	0001883a 	nop
    48c8:	e037883a 	mov	sp,fp
    48cc:	df000017 	ldw	fp,0(sp)
    48d0:	dec00104 	addi	sp,sp,4
    48d4:	f800283a 	ret

000048d8 <get_vel_x>:
    48d8:	defffd04 	addi	sp,sp,-12
    48dc:	df000215 	stw	fp,8(sp)
    48e0:	df000204 	addi	fp,sp,8
    48e4:	e13ffe15 	stw	r4,-8(fp)
    48e8:	e17fff15 	stw	r5,-4(fp)
    48ec:	e0bfff17 	ldw	r2,-4(fp)
    48f0:	10c00017 	ldw	r3,0(r2)
    48f4:	e13fff17 	ldw	r4,-4(fp)
    48f8:	20800217 	ldw	r2,8(r4)
    48fc:	1887ffb2 	custom	254,r3,r3,r2
    4900:	e0bffe17 	ldw	r2,-8(fp)
    4904:	1885fff2 	custom	255,r2,r3,r2
    4908:	1007883a 	mov	r3,r2
    490c:	1805883a 	mov	r2,r3
    4910:	e037883a 	mov	sp,fp
    4914:	df000017 	ldw	fp,0(sp)
    4918:	dec00104 	addi	sp,sp,4
    491c:	f800283a 	ret

00004920 <get_vel_y>:
    4920:	defffd04 	addi	sp,sp,-12
    4924:	df000215 	stw	fp,8(sp)
    4928:	df000204 	addi	fp,sp,8
    492c:	e13ffe15 	stw	r4,-8(fp)
    4930:	e17fff15 	stw	r5,-4(fp)
    4934:	e0bfff17 	ldw	r2,-4(fp)
    4938:	10c00117 	ldw	r3,4(r2)
    493c:	e13fff17 	ldw	r4,-4(fp)
    4940:	20800317 	ldw	r2,12(r4)
    4944:	1887ffb2 	custom	254,r3,r3,r2
    4948:	e0bffe17 	ldw	r2,-8(fp)
    494c:	1885fff2 	custom	255,r2,r3,r2
    4950:	1007883a 	mov	r3,r2
    4954:	1805883a 	mov	r2,r3
    4958:	e037883a 	mov	sp,fp
    495c:	df000017 	ldw	fp,0(sp)
    4960:	dec00104 	addi	sp,sp,4
    4964:	f800283a 	ret

00004968 <update_all>:
    4968:	defff704 	addi	sp,sp,-36
    496c:	dfc00815 	stw	ra,32(sp)
    4970:	df000715 	stw	fp,28(sp)
    4974:	df000704 	addi	fp,sp,28
    4978:	e13ffe15 	stw	r4,-8(fp)
    497c:	e17fff15 	stw	r5,-4(fp)
    4980:	00043b40 	call	43b4 <update_gravity>
    4984:	000415c0 	call	415c <resolve_collisions_dynamic>
    4988:	01c03c04 	movi	r7,240
    498c:	000d883a 	mov	r6,zero
    4990:	01405004 	movi	r5,320
    4994:	0009883a 	mov	r4,zero
    4998:	00044200 	call	4420 <check_bounds>
    499c:	0004cc00 	call	4cc0 <capture_ball>
    49a0:	e03ffc15 	stw	zero,-16(fp)
    49a4:	00003d06 	br	4a9c <update_all+0x134>
    49a8:	e0bffc17 	ldw	r2,-16(fp)
    49ac:	10c00d24 	muli	r3,r2,52
    49b0:	00800374 	movhi	r2,13
    49b4:	10b51204 	addi	r2,r2,-11192
    49b8:	1885883a 	add	r2,r3,r2
    49bc:	e0bffd15 	stw	r2,-12(fp)
    49c0:	e0fffd17 	ldw	r3,-12(fp)
    49c4:	18800417 	ldw	r2,16(r3)
    49c8:	0007883a 	mov	r3,zero
    49cc:	10c5f8f2 	custom	227,r2,r2,r3
    49d0:	1000061e 	bne	r2,zero,49ec <update_all+0x84>
    49d4:	e0bffd17 	ldw	r2,-12(fp)
    49d8:	10c00417 	ldw	r3,16(r2)
    49dc:	e1bffd17 	ldw	r6,-12(fp)
    49e0:	000b883a 	mov	r5,zero
    49e4:	1809883a 	mov	r4,r3
    49e8:	000479c0 	call	479c <accelerate_dynamic>
    49ec:	e17ffd17 	ldw	r5,-12(fp)
    49f0:	e13ffe17 	ldw	r4,-8(fp)
    49f4:	00046600 	call	4660 <update_dynamic>
    49f8:	e0bffd17 	ldw	r2,-12(fp)
    49fc:	10800c17 	ldw	r2,48(r2)
    4a00:	100b883a 	mov	r5,r2
    4a04:	e0fffd17 	ldw	r3,-12(fp)
    4a08:	18800017 	ldw	r2,0(r3)
    4a0c:	00d3c034 	movhi	r3,20224
    4a10:	10c7f932 	custom	228,r3,r2,r3
    4a14:	1800021e 	bne	r3,zero,4a20 <update_all+0xb8>
    4a18:	1005fe72 	custom	249,r2,r2,zero
    4a1c:	00000406 	br	4a30 <update_all+0xc8>
    4a20:	00d3c034 	movhi	r3,20224
    4a24:	10c5ffb2 	custom	254,r2,r2,r3
    4a28:	1005fe72 	custom	249,r2,r2,zero
    4a2c:	10a0003c 	xorhi	r2,r2,32768
    4a30:	e13ffd17 	ldw	r4,-12(fp)
    4a34:	20c00117 	ldw	r3,4(r4)
    4a38:	0113c034 	movhi	r4,20224
    4a3c:	1909f932 	custom	228,r4,r3,r4
    4a40:	2000021e 	bne	r4,zero,4a4c <update_all+0xe4>
    4a44:	1807fe72 	custom	249,r3,r3,zero
    4a48:	00000406 	br	4a5c <update_all+0xf4>
    4a4c:	0113c034 	movhi	r4,20224
    4a50:	1907ffb2 	custom	254,r3,r3,r4
    4a54:	1807fe72 	custom	249,r3,r3,zero
    4a58:	18e0003c 	xorhi	r3,r3,32768
    4a5c:	01000044 	movi	r4,1
    4a60:	d9000215 	stw	r4,8(sp)
    4a64:	01000374 	movhi	r4,13
    4a68:	21261f04 	addi	r4,r4,-26500
    4a6c:	d9000115 	stw	r4,4(sp)
    4a70:	01000244 	movi	r4,9
    4a74:	d9000015 	stw	r4,0(sp)
    4a78:	180f883a 	mov	r7,r3
    4a7c:	100d883a 	mov	r6,r2
    4a80:	e13fff17 	ldw	r4,-4(fp)
    4a84:	00087780 	call	8778 <alt_up_video_dma_draw_circle>
    4a88:	e13ffc17 	ldw	r4,-16(fp)
    4a8c:	0004ac00 	call	4ac0 <check_stopped>
    4a90:	e0bffc17 	ldw	r2,-16(fp)
    4a94:	10800044 	addi	r2,r2,1
    4a98:	e0bffc15 	stw	r2,-16(fp)
    4a9c:	d0a77517 	ldw	r2,-25132(gp)
    4aa0:	e0fffc17 	ldw	r3,-16(fp)
    4aa4:	18bfc016 	blt	r3,r2,49a8 <__alt_mem_VGA_Subsystem_Char_Buf_Subsystem_Onchip_SRAM+0xf70049a8>
    4aa8:	0001883a 	nop
    4aac:	e037883a 	mov	sp,fp
    4ab0:	dfc00117 	ldw	ra,4(sp)
    4ab4:	df000017 	ldw	fp,0(sp)
    4ab8:	dec00204 	addi	sp,sp,8
    4abc:	f800283a 	ret

00004ac0 <check_stopped>:
    4ac0:	defffd04 	addi	sp,sp,-12
    4ac4:	df000215 	stw	fp,8(sp)
    4ac8:	df000204 	addi	fp,sp,8
    4acc:	e13fff15 	stw	r4,-4(fp)
    4ad0:	e0bfff17 	ldw	r2,-4(fp)
    4ad4:	10c00d24 	muli	r3,r2,52
    4ad8:	00800374 	movhi	r2,13
    4adc:	10b51204 	addi	r2,r2,-11192
    4ae0:	1885883a 	add	r2,r3,r2
    4ae4:	e0bffe15 	stw	r2,-8(fp)
    4ae8:	e0bffe17 	ldw	r2,-8(fp)
    4aec:	10c00017 	ldw	r3,0(r2)
    4af0:	e13ffe17 	ldw	r4,-8(fp)
    4af4:	20800217 	ldw	r2,8(r4)
    4af8:	1885ffb2 	custom	254,r2,r3,r2
    4afc:	1005f832 	custom	224,r2,r2,zero
    4b00:	1005fe72 	custom	249,r2,r2,zero
    4b04:	1000141e 	bne	r2,zero,4b58 <check_stopped+0x98>
    4b08:	e0bffe17 	ldw	r2,-8(fp)
    4b0c:	10c00117 	ldw	r3,4(r2)
    4b10:	e13ffe17 	ldw	r4,-8(fp)
    4b14:	20800317 	ldw	r2,12(r4)
    4b18:	1885ffb2 	custom	254,r2,r3,r2
    4b1c:	1005f832 	custom	224,r2,r2,zero
    4b20:	1005fe72 	custom	249,r2,r2,zero
    4b24:	10000c1e 	bne	r2,zero,4b58 <check_stopped+0x98>
    4b28:	e0bffe17 	ldw	r2,-8(fp)
    4b2c:	10c00017 	ldw	r3,0(r2)
    4b30:	e0bffe17 	ldw	r2,-8(fp)
    4b34:	10c00815 	stw	r3,32(r2)
    4b38:	e0bffe17 	ldw	r2,-8(fp)
    4b3c:	10c00117 	ldw	r3,4(r2)
    4b40:	e0bffe17 	ldw	r2,-8(fp)
    4b44:	10c00715 	stw	r3,28(r2)
    4b48:	e0bffe17 	ldw	r2,-8(fp)
    4b4c:	00c00044 	movi	r3,1
    4b50:	10c00905 	stb	r3,36(r2)
    4b54:	00000206 	br	4b60 <check_stopped+0xa0>
    4b58:	e0bffe17 	ldw	r2,-8(fp)
    4b5c:	10000905 	stb	zero,36(r2)
    4b60:	0001883a 	nop
    4b64:	e037883a 	mov	sp,fp
    4b68:	df000017 	ldw	fp,0(sp)
    4b6c:	dec00104 	addi	sp,sp,4
    4b70:	f800283a 	ret

00004b74 <check_game_status>:
    4b74:	deffeb04 	addi	sp,sp,-84
    4b78:	df001415 	stw	fp,80(sp)
    4b7c:	df001404 	addi	fp,sp,80
    4b80:	e13ffc15 	stw	r4,-16(fp)
    4b84:	e17ffd15 	stw	r5,-12(fp)
    4b88:	e1bffe15 	stw	r6,-8(fp)
    4b8c:	e1ffff15 	stw	r7,-4(fp)
    4b90:	00800044 	movi	r2,1
    4b94:	e0bfec05 	stb	r2,-80(fp)
    4b98:	00800044 	movi	r2,1
    4b9c:	e0bfed15 	stw	r2,-76(fp)
    4ba0:	00003f06 	br	4ca0 <check_game_status+0x12c>
    4ba4:	00800374 	movhi	r2,13
    4ba8:	10b51204 	addi	r2,r2,-11192
    4bac:	e0ffed17 	ldw	r3,-76(fp)
    4bb0:	18c00d24 	muli	r3,r3,52
    4bb4:	10c5883a 	add	r2,r2,r3
    4bb8:	10c00017 	ldw	r3,0(r2)
    4bbc:	e0ffef15 	stw	r3,-68(fp)
    4bc0:	10c00117 	ldw	r3,4(r2)
    4bc4:	e0fff015 	stw	r3,-64(fp)
    4bc8:	10c00217 	ldw	r3,8(r2)
    4bcc:	e0fff115 	stw	r3,-60(fp)
    4bd0:	10c00317 	ldw	r3,12(r2)
    4bd4:	e0fff215 	stw	r3,-56(fp)
    4bd8:	10c00417 	ldw	r3,16(r2)
    4bdc:	e0fff315 	stw	r3,-52(fp)
    4be0:	10c00517 	ldw	r3,20(r2)
    4be4:	e0fff415 	stw	r3,-48(fp)
    4be8:	10c00617 	ldw	r3,24(r2)
    4bec:	e0fff515 	stw	r3,-44(fp)
    4bf0:	10c00717 	ldw	r3,28(r2)
    4bf4:	e0fff615 	stw	r3,-40(fp)
    4bf8:	10c00817 	ldw	r3,32(r2)
    4bfc:	e0fff715 	stw	r3,-36(fp)
    4c00:	10c00917 	ldw	r3,36(r2)
    4c04:	e0fff815 	stw	r3,-32(fp)
    4c08:	10c00a17 	ldw	r3,40(r2)
    4c0c:	e0fff915 	stw	r3,-28(fp)
    4c10:	10c00b17 	ldw	r3,44(r2)
    4c14:	e0fffa15 	stw	r3,-24(fp)
    4c18:	10800c17 	ldw	r2,48(r2)
    4c1c:	e0bffb15 	stw	r2,-20(fp)
    4c20:	e0fff717 	ldw	r3,-36(fp)
    4c24:	e0bffc17 	ldw	r2,-16(fp)
    4c28:	1005feb2 	custom	250,r2,r2,zero
    4c2c:	1885f972 	custom	229,r2,r3,r2
    4c30:	10001226 	beq	r2,zero,4c7c <check_game_status+0x108>
    4c34:	e0fff717 	ldw	r3,-36(fp)
    4c38:	e0bffd17 	ldw	r2,-12(fp)
    4c3c:	1005feb2 	custom	250,r2,r2,zero
    4c40:	1885f9f2 	custom	231,r2,r3,r2
    4c44:	10000d26 	beq	r2,zero,4c7c <check_game_status+0x108>
    4c48:	e0fff617 	ldw	r3,-40(fp)
    4c4c:	e0bffe17 	ldw	r2,-8(fp)
    4c50:	1005feb2 	custom	250,r2,r2,zero
    4c54:	1885f972 	custom	229,r2,r3,r2
    4c58:	10000826 	beq	r2,zero,4c7c <check_game_status+0x108>
    4c5c:	e0fff617 	ldw	r3,-40(fp)
    4c60:	e0bfff17 	ldw	r2,-4(fp)
    4c64:	1005feb2 	custom	250,r2,r2,zero
    4c68:	1885f9f2 	custom	231,r2,r3,r2
    4c6c:	10000326 	beq	r2,zero,4c7c <check_game_status+0x108>
    4c70:	00800044 	movi	r2,1
    4c74:	e0bfee05 	stb	r2,-72(fp)
    4c78:	00000106 	br	4c80 <check_game_status+0x10c>
    4c7c:	e03fee05 	stb	zero,-72(fp)
    4c80:	e0ffec03 	ldbu	r3,-80(fp)
    4c84:	e0bfee03 	ldbu	r2,-72(fp)
    4c88:	1884703a 	and	r2,r3,r2
    4c8c:	1004c03a 	cmpne	r2,r2,zero
    4c90:	e0bfec05 	stb	r2,-80(fp)
    4c94:	e0bfed17 	ldw	r2,-76(fp)
    4c98:	10800044 	addi	r2,r2,1
    4c9c:	e0bfed15 	stw	r2,-76(fp)
    4ca0:	d0a77517 	ldw	r2,-25132(gp)
    4ca4:	e0ffed17 	ldw	r3,-76(fp)
    4ca8:	18bfbe16 	blt	r3,r2,4ba4 <__alt_mem_VGA_Subsystem_Char_Buf_Subsystem_Onchip_SRAM+0xf7004ba4>
    4cac:	e0bfec03 	ldbu	r2,-80(fp)
    4cb0:	e037883a 	mov	sp,fp
    4cb4:	df000017 	ldw	fp,0(sp)
    4cb8:	dec00104 	addi	sp,sp,4
    4cbc:	f800283a 	ret

00004cc0 <capture_ball>:
    4cc0:	defffd04 	addi	sp,sp,-12
    4cc4:	df000215 	stw	fp,8(sp)
    4cc8:	df000204 	addi	fp,sp,8
    4ccc:	00800044 	movi	r2,1
    4cd0:	e0bffe15 	stw	r2,-8(fp)
    4cd4:	00002606 	br	4d70 <capture_ball+0xb0>
    4cd8:	e0bffe17 	ldw	r2,-8(fp)
    4cdc:	10c00d24 	muli	r3,r2,52
    4ce0:	00800374 	movhi	r2,13
    4ce4:	10b51204 	addi	r2,r2,-11192
    4ce8:	1885883a 	add	r2,r3,r2
    4cec:	e0bfff15 	stw	r2,-4(fp)
    4cf0:	e0bfff17 	ldw	r2,-4(fp)
    4cf4:	10c00017 	ldw	r3,0(r2)
    4cf8:	0090e334 	movhi	r2,17292
    4cfc:	1885f972 	custom	229,r2,r3,r2
    4d00:	10001826 	beq	r2,zero,4d64 <capture_ball+0xa4>
    4d04:	e0bfff17 	ldw	r2,-4(fp)
    4d08:	10c00017 	ldw	r3,0(r2)
    4d0c:	0090e834 	movhi	r2,17312
    4d10:	10a00004 	addi	r2,r2,-32768
    4d14:	1885f9f2 	custom	231,r2,r3,r2
    4d18:	10001226 	beq	r2,zero,4d64 <capture_ball+0xa4>
    4d1c:	e0bfff17 	ldw	r2,-4(fp)
    4d20:	10c00117 	ldw	r3,4(r2)
    4d24:	0090d234 	movhi	r2,17224
    4d28:	1885f972 	custom	229,r2,r3,r2
    4d2c:	10000d26 	beq	r2,zero,4d64 <capture_ball+0xa4>
    4d30:	e0bfff17 	ldw	r2,-4(fp)
    4d34:	10c00117 	ldw	r3,4(r2)
    4d38:	0090dc34 	movhi	r2,17264
    4d3c:	1885f9f2 	custom	231,r2,r3,r2
    4d40:	10000826 	beq	r2,zero,4d64 <capture_ball+0xa4>
    4d44:	e0bfff17 	ldw	r2,-4(fp)
    4d48:	10c00017 	ldw	r3,0(r2)
    4d4c:	e0bfff17 	ldw	r2,-4(fp)
    4d50:	10c00215 	stw	r3,8(r2)
    4d54:	e0bfff17 	ldw	r2,-4(fp)
    4d58:	10000515 	stw	zero,20(r2)
    4d5c:	e0bfff17 	ldw	r2,-4(fp)
    4d60:	10000415 	stw	zero,16(r2)
    4d64:	e0bffe17 	ldw	r2,-8(fp)
    4d68:	10800044 	addi	r2,r2,1
    4d6c:	e0bffe15 	stw	r2,-8(fp)
    4d70:	d0a77517 	ldw	r2,-25132(gp)
    4d74:	e0fffe17 	ldw	r3,-8(fp)
    4d78:	18bfd716 	blt	r3,r2,4cd8 <__alt_mem_VGA_Subsystem_Char_Buf_Subsystem_Onchip_SRAM+0xf7004cd8>
    4d7c:	0001883a 	nop
    4d80:	e037883a 	mov	sp,fp
    4d84:	df000017 	ldw	fp,0(sp)
    4d88:	dec00104 	addi	sp,sp,4
    4d8c:	f800283a 	ret

00004d90 <reset_circles>:
    4d90:	defffd04 	addi	sp,sp,-12
    4d94:	df000215 	stw	fp,8(sp)
    4d98:	df000204 	addi	fp,sp,8
    4d9c:	e13ffe15 	stw	r4,-8(fp)
    4da0:	e17fff15 	stw	r5,-4(fp)
    4da4:	e0bfff17 	ldw	r2,-4(fp)
    4da8:	10c00017 	ldw	r3,0(r2)
    4dac:	e0bffe17 	ldw	r2,-8(fp)
    4db0:	10c00015 	stw	r3,0(r2)
    4db4:	e0bfff17 	ldw	r2,-4(fp)
    4db8:	10c00117 	ldw	r3,4(r2)
    4dbc:	e0bffe17 	ldw	r2,-8(fp)
    4dc0:	10c00215 	stw	r3,8(r2)
    4dc4:	e0bfff17 	ldw	r2,-4(fp)
    4dc8:	10c00217 	ldw	r3,8(r2)
    4dcc:	e0bffe17 	ldw	r2,-8(fp)
    4dd0:	10c00115 	stw	r3,4(r2)
    4dd4:	e0bfff17 	ldw	r2,-4(fp)
    4dd8:	10c00317 	ldw	r3,12(r2)
    4ddc:	e0bffe17 	ldw	r2,-8(fp)
    4de0:	10c00315 	stw	r3,12(r2)
    4de4:	e0bffe17 	ldw	r2,-8(fp)
    4de8:	10000905 	stb	zero,36(r2)
    4dec:	e0bffe17 	ldw	r2,-8(fp)
    4df0:	10000b05 	stb	zero,44(r2)
    4df4:	e0bffe17 	ldw	r2,-8(fp)
    4df8:	10000415 	stw	zero,16(r2)
    4dfc:	e0bffe17 	ldw	r2,-8(fp)
    4e00:	10000515 	stw	zero,20(r2)
    4e04:	e0bffe17 	ldw	r2,-8(fp)
    4e08:	00d04834 	movhi	r3,16672
    4e0c:	10c00615 	stw	r3,24(r2)
    4e10:	0001883a 	nop
    4e14:	e037883a 	mov	sp,fp
    4e18:	df000017 	ldw	fp,0(sp)
    4e1c:	dec00104 	addi	sp,sp,4
    4e20:	f800283a 	ret

00004e24 <randomize_position>:
    4e24:	defffb04 	addi	sp,sp,-20
    4e28:	dfc00415 	stw	ra,16(sp)
    4e2c:	df000315 	stw	fp,12(sp)
    4e30:	df000304 	addi	fp,sp,12
    4e34:	e13fff15 	stw	r4,-4(fp)
    4e38:	000541c0 	call	541c <rand>
    4e3c:	00c02d04 	movi	r3,180
    4e40:	10c7283a 	div	r3,r2,r3
    4e44:	18c02d24 	muli	r3,r3,180
    4e48:	10c5c83a 	sub	r2,r2,r3
    4e4c:	e0bffd15 	stw	r2,-12(fp)
    4e50:	e0bffd17 	ldw	r2,-12(fp)
    4e54:	1007feb2 	custom	250,r3,r2,zero
    4e58:	e0bfff17 	ldw	r2,-4(fp)
    4e5c:	10c00015 	stw	r3,0(r2)
    4e60:	e0bffd17 	ldw	r2,-12(fp)
    4e64:	1007feb2 	custom	250,r3,r2,zero
    4e68:	e0bfff17 	ldw	r2,-4(fp)
    4e6c:	10c00215 	stw	r3,8(r2)
    4e70:	000541c0 	call	541c <rand>
    4e74:	1007883a 	mov	r3,r2
    4e78:	e0bfff17 	ldw	r2,-4(fp)
    4e7c:	10800a17 	ldw	r2,40(r2)
    4e80:	01003204 	movi	r4,200
    4e84:	2085c83a 	sub	r2,r4,r2
    4e88:	1889283a 	div	r4,r3,r2
    4e8c:	2085383a 	mul	r2,r4,r2
    4e90:	1885c83a 	sub	r2,r3,r2
    4e94:	10800a04 	addi	r2,r2,40
    4e98:	e0bffe15 	stw	r2,-8(fp)
    4e9c:	e0bffe17 	ldw	r2,-8(fp)
    4ea0:	1007feb2 	custom	250,r3,r2,zero
    4ea4:	e0bfff17 	ldw	r2,-4(fp)
    4ea8:	10c00115 	stw	r3,4(r2)
    4eac:	e0bffe17 	ldw	r2,-8(fp)
    4eb0:	1007feb2 	custom	250,r3,r2,zero
    4eb4:	e0bfff17 	ldw	r2,-4(fp)
    4eb8:	10c00315 	stw	r3,12(r2)
    4ebc:	0001883a 	nop
    4ec0:	e037883a 	mov	sp,fp
    4ec4:	dfc00117 	ldw	ra,4(sp)
    4ec8:	df000017 	ldw	fp,0(sp)
    4ecc:	dec00204 	addi	sp,sp,8
    4ed0:	f800283a 	ret

00004ed4 <audio_ISR>:
    4ed4:	defffa04 	addi	sp,sp,-24
    4ed8:	dfc00515 	stw	ra,20(sp)
    4edc:	df000415 	stw	fp,16(sp)
    4ee0:	df000404 	addi	fp,sp,16
    4ee4:	e13ffe15 	stw	r4,-8(fp)
    4ee8:	e17fff15 	stw	r5,-4(fp)
    4eec:	e0bffe17 	ldw	r2,-8(fp)
    4ef0:	10800117 	ldw	r2,4(r2)
    4ef4:	1009883a 	mov	r4,r2
    4ef8:	0006e580 	call	6e58 <alt_up_audio_write_interrupt_pending>
    4efc:	10003a26 	beq	r2,zero,4fe8 <audio_ISR+0x114>
    4f00:	00bfc834 	movhi	r2,65312
    4f04:	108c1004 	addi	r2,r2,12352
    4f08:	e0bffd15 	stw	r2,-12(fp)
    4f0c:	e0bffd17 	ldw	r2,-12(fp)
    4f10:	10800117 	ldw	r2,4(r2)
    4f14:	e0bffc15 	stw	r2,-16(fp)
    4f18:	e0bffc17 	ldw	r2,-16(fp)
    4f1c:	10803fec 	andhi	r2,r2,255
    4f20:	10801850 	cmplti	r2,r2,97
    4f24:	1000301e 	bne	r2,zero,4fe8 <audio_ISR+0x114>
    4f28:	00002706 	br	4fc8 <audio_ISR+0xf4>
    4f2c:	e0bffe17 	ldw	r2,-8(fp)
    4f30:	11000117 	ldw	r4,4(r2)
    4f34:	d0a78717 	ldw	r2,-25060(gp)
    4f38:	10800017 	ldw	r2,0(r2)
    4f3c:	1085883a 	add	r2,r2,r2
    4f40:	1087883a 	add	r3,r2,r2
    4f44:	008001b4 	movhi	r2,6
    4f48:	10a3dc04 	addi	r2,r2,-28816
    4f4c:	1885883a 	add	r2,r3,r2
    4f50:	01c00044 	movi	r7,1
    4f54:	01800044 	movi	r6,1
    4f58:	100b883a 	mov	r5,r2
    4f5c:	000726c0 	call	726c <alt_up_audio_write_fifo>
    4f60:	e0bffe17 	ldw	r2,-8(fp)
    4f64:	11000117 	ldw	r4,4(r2)
    4f68:	d0a78717 	ldw	r2,-25060(gp)
    4f6c:	10800017 	ldw	r2,0(r2)
    4f70:	1085883a 	add	r2,r2,r2
    4f74:	1087883a 	add	r3,r2,r2
    4f78:	008001b4 	movhi	r2,6
    4f7c:	10a3dc04 	addi	r2,r2,-28816
    4f80:	1885883a 	add	r2,r3,r2
    4f84:	000f883a 	mov	r7,zero
    4f88:	01800044 	movi	r6,1
    4f8c:	100b883a 	mov	r5,r2
    4f90:	000726c0 	call	726c <alt_up_audio_write_fifo>
    4f94:	d0a78717 	ldw	r2,-25060(gp)
    4f98:	10c00017 	ldw	r3,0(r2)
    4f9c:	18c00044 	addi	r3,r3,1
    4fa0:	10c00015 	stw	r3,0(r2)
    4fa4:	d0a78717 	ldw	r2,-25060(gp)
    4fa8:	10c00017 	ldw	r3,0(r2)
    4fac:	d0a00217 	ldw	r2,-32760(gp)
    4fb0:	18800216 	blt	r3,r2,4fbc <audio_ISR+0xe8>
    4fb4:	d0a78717 	ldw	r2,-25060(gp)
    4fb8:	10000015 	stw	zero,0(r2)
    4fbc:	e0bffd17 	ldw	r2,-12(fp)
    4fc0:	10800117 	ldw	r2,4(r2)
    4fc4:	e0bffc15 	stw	r2,-16(fp)
    4fc8:	e0bffc17 	ldw	r2,-16(fp)
    4fcc:	10803fec 	andhi	r2,r2,255
    4fd0:	10000526 	beq	r2,zero,4fe8 <audio_ISR+0x114>
    4fd4:	d0a78717 	ldw	r2,-25060(gp)
    4fd8:	10800017 	ldw	r2,0(r2)
    4fdc:	d0e00217 	ldw	r3,-32760(gp)
    4fe0:	18bfd20e 	bge	r3,r2,4f2c <__alt_mem_VGA_Subsystem_Char_Buf_Subsystem_Onchip_SRAM+0xf7004f2c>
    4fe4:	0001883a 	nop
    4fe8:	0001883a 	nop
    4fec:	e037883a 	mov	sp,fp
    4ff0:	dfc00117 	ldw	ra,4(sp)
    4ff4:	df000017 	ldw	fp,0(sp)
    4ff8:	dec00204 	addi	sp,sp,8
    4ffc:	f800283a 	ret

00005000 <interval_timer_ISR>:
    5000:	deffe104 	addi	sp,sp,-124
    5004:	df001e15 	stw	fp,120(sp)
    5008:	df001e04 	addi	fp,sp,120
    500c:	e13ffe15 	stw	r4,-8(fp)
    5010:	e17fff15 	stw	r5,-4(fp)
    5014:	d0a78517 	ldw	r2,-25068(gp)
    5018:	10000015 	stw	zero,0(r2)
    501c:	d0a77917 	ldw	r2,-25116(gp)
    5020:	1000811e 	bne	r2,zero,5228 <interval_timer_ISR+0x228>
    5024:	d0a77a17 	ldw	r2,-25112(gp)
    5028:	d0a77915 	stw	r2,-25116(gp)
    502c:	00bfc834 	movhi	r2,65312
    5030:	10800804 	addi	r2,r2,32
    5034:	e0bfe215 	stw	r2,-120(fp)
    5038:	00bfc834 	movhi	r2,65312
    503c:	10800c04 	addi	r2,r2,48
    5040:	e0bfe315 	stw	r2,-116(fp)
    5044:	e03fe405 	stb	zero,-112(fp)
    5048:	e03fe445 	stb	zero,-111(fp)
    504c:	e03fe485 	stb	zero,-110(fp)
    5050:	e03fe4c5 	stb	zero,-109(fp)
    5054:	e03fe505 	stb	zero,-108(fp)
    5058:	e03fe545 	stb	zero,-107(fp)
    505c:	e03fe585 	stb	zero,-106(fp)
    5060:	e03fe5c5 	stb	zero,-105(fp)
    5064:	00800044 	movi	r2,1
    5068:	e0bff215 	stw	r2,-56(fp)
    506c:	00800044 	movi	r2,1
    5070:	e0bff315 	stw	r2,-52(fp)
    5074:	00800044 	movi	r2,1
    5078:	e0bff415 	stw	r2,-48(fp)
    507c:	00800044 	movi	r2,1
    5080:	e0bff515 	stw	r2,-44(fp)
    5084:	00800804 	movi	r2,32
    5088:	e0bff615 	stw	r2,-40(fp)
    508c:	00800404 	movi	r2,16
    5090:	e0bff715 	stw	r2,-36(fp)
    5094:	00800204 	movi	r2,8
    5098:	e0bff815 	stw	r2,-32(fp)
    509c:	00800204 	movi	r2,8
    50a0:	e0bff915 	stw	r2,-28(fp)
    50a4:	00800204 	movi	r2,8
    50a8:	e0bffa15 	stw	r2,-24(fp)
    50ac:	00800204 	movi	r2,8
    50b0:	e0bffb15 	stw	r2,-20(fp)
    50b4:	00800104 	movi	r2,4
    50b8:	e0bffc15 	stw	r2,-16(fp)
    50bc:	00800084 	movi	r2,2
    50c0:	e0bffd15 	stw	r2,-12(fp)
    50c4:	00800084 	movi	r2,2
    50c8:	e0bfe615 	stw	r2,-104(fp)
    50cc:	008000c4 	movi	r2,3
    50d0:	e0bfe715 	stw	r2,-100(fp)
    50d4:	00800104 	movi	r2,4
    50d8:	e0bfe815 	stw	r2,-96(fp)
    50dc:	00800144 	movi	r2,5
    50e0:	e0bfe915 	stw	r2,-92(fp)
    50e4:	00800144 	movi	r2,5
    50e8:	e0bfea15 	stw	r2,-88(fp)
    50ec:	00800144 	movi	r2,5
    50f0:	e0bfeb15 	stw	r2,-84(fp)
    50f4:	00800144 	movi	r2,5
    50f8:	e0bfec15 	stw	r2,-80(fp)
    50fc:	00800104 	movi	r2,4
    5100:	e0bfed15 	stw	r2,-76(fp)
    5104:	008000c4 	movi	r2,3
    5108:	e0bfee15 	stw	r2,-72(fp)
    510c:	00800084 	movi	r2,2
    5110:	e0bfef15 	stw	r2,-68(fp)
    5114:	00800084 	movi	r2,2
    5118:	e0bff015 	stw	r2,-64(fp)
    511c:	00800084 	movi	r2,2
    5120:	e0bff115 	stw	r2,-60(fp)
    5124:	d0a00317 	ldw	r2,-32756(gp)
    5128:	10001a1e 	bne	r2,zero,5194 <interval_timer_ISR+0x194>
    512c:	d0a78317 	ldw	r2,-25076(gp)
    5130:	10800310 	cmplti	r2,r2,12
    5134:	1000011e 	bne	r2,zero,513c <interval_timer_ISR+0x13c>
    5138:	d0278315 	stw	zero,-25076(gp)
    513c:	d0a78317 	ldw	r2,-25076(gp)
    5140:	1085883a 	add	r2,r2,r2
    5144:	1085883a 	add	r2,r2,r2
    5148:	e0ffe204 	addi	r3,fp,-120
    514c:	1885883a 	add	r2,r3,r2
    5150:	10800404 	addi	r2,r2,16
    5154:	10c00017 	ldw	r3,0(r2)
    5158:	d0a78317 	ldw	r2,-25076(gp)
    515c:	1085883a 	add	r2,r2,r2
    5160:	1085883a 	add	r2,r2,r2
    5164:	e13fe204 	addi	r4,fp,-120
    5168:	2085883a 	add	r2,r4,r2
    516c:	10801004 	addi	r2,r2,64
    5170:	10800017 	ldw	r2,0(r2)
    5174:	1009883a 	mov	r4,r2
    5178:	e0bfe404 	addi	r2,fp,-112
    517c:	10c5883a 	add	r2,r2,r3
    5180:	11000005 	stb	r4,0(r2)
    5184:	d0a78317 	ldw	r2,-25076(gp)
    5188:	10800044 	addi	r2,r2,1
    518c:	d0a78315 	stw	r2,-25076(gp)
    5190:	00001906 	br	51f8 <interval_timer_ISR+0x1f8>
    5194:	d0a78317 	ldw	r2,-25076(gp)
    5198:	1000020e 	bge	r2,zero,51a4 <interval_timer_ISR+0x1a4>
    519c:	008002c4 	movi	r2,11
    51a0:	d0a78315 	stw	r2,-25076(gp)
    51a4:	d0a78317 	ldw	r2,-25076(gp)
    51a8:	1085883a 	add	r2,r2,r2
    51ac:	1085883a 	add	r2,r2,r2
    51b0:	e0ffe204 	addi	r3,fp,-120
    51b4:	1885883a 	add	r2,r3,r2
    51b8:	10800404 	addi	r2,r2,16
    51bc:	10c00017 	ldw	r3,0(r2)
    51c0:	d0a78317 	ldw	r2,-25076(gp)
    51c4:	1085883a 	add	r2,r2,r2
    51c8:	1085883a 	add	r2,r2,r2
    51cc:	e13fe204 	addi	r4,fp,-120
    51d0:	2085883a 	add	r2,r4,r2
    51d4:	10801004 	addi	r2,r2,64
    51d8:	10800017 	ldw	r2,0(r2)
    51dc:	1009883a 	mov	r4,r2
    51e0:	e0bfe404 	addi	r2,fp,-112
    51e4:	10c5883a 	add	r2,r2,r3
    51e8:	11000005 	stb	r4,0(r2)
    51ec:	d0a78317 	ldw	r2,-25076(gp)
    51f0:	10bfffc4 	addi	r2,r2,-1
    51f4:	d0a78315 	stw	r2,-25076(gp)
    51f8:	e0bfe217 	ldw	r2,-120(fp)
    51fc:	10800017 	ldw	r2,0(r2)
    5200:	10dfffcc 	andi	r3,r2,32767
    5204:	e0bfe404 	addi	r2,fp,-112
    5208:	10800017 	ldw	r2,0(r2)
    520c:	1886b03a 	or	r3,r3,r2
    5210:	e0bfe217 	ldw	r2,-120(fp)
    5214:	10c00015 	stw	r3,0(r2)
    5218:	e0ffe517 	ldw	r3,-108(fp)
    521c:	e0bfe317 	ldw	r2,-116(fp)
    5220:	10c00015 	stw	r3,0(r2)
    5224:	00000306 	br	5234 <interval_timer_ISR+0x234>
    5228:	d0a77917 	ldw	r2,-25116(gp)
    522c:	10bfffc4 	addi	r2,r2,-1
    5230:	d0a77915 	stw	r2,-25116(gp)
    5234:	00800044 	movi	r2,1
    5238:	d0a78215 	stw	r2,-25080(gp)
    523c:	0001883a 	nop
    5240:	e037883a 	mov	sp,fp
    5244:	df000017 	ldw	fp,0(sp)
    5248:	dec00104 	addi	sp,sp,4
    524c:	f800283a 	ret

00005250 <memcpy>:
    5250:	defff804 	addi	sp,sp,-32
    5254:	df000715 	stw	fp,28(sp)
    5258:	df000704 	addi	fp,sp,28
    525c:	e13ffd15 	stw	r4,-12(fp)
    5260:	e17ffe15 	stw	r5,-8(fp)
    5264:	e1bfff15 	stw	r6,-4(fp)
    5268:	e0bffd17 	ldw	r2,-12(fp)
    526c:	e0bff915 	stw	r2,-28(fp)
    5270:	e0bffe17 	ldw	r2,-8(fp)
    5274:	e0bffa15 	stw	r2,-24(fp)
    5278:	e0bfff17 	ldw	r2,-4(fp)
    527c:	10800430 	cmpltui	r2,r2,16
    5280:	10004c1e 	bne	r2,zero,53b4 <memcpy+0x164>
    5284:	e0fffa17 	ldw	r3,-24(fp)
    5288:	e0bff917 	ldw	r2,-28(fp)
    528c:	1884b03a 	or	r2,r3,r2
    5290:	108000cc 	andi	r2,r2,3
    5294:	1000471e 	bne	r2,zero,53b4 <memcpy+0x164>
    5298:	e0bff917 	ldw	r2,-28(fp)
    529c:	e0bffb15 	stw	r2,-20(fp)
    52a0:	e0bffa17 	ldw	r2,-24(fp)
    52a4:	e0bffc15 	stw	r2,-16(fp)
    52a8:	00002306 	br	5338 <memcpy+0xe8>
    52ac:	e0bffb17 	ldw	r2,-20(fp)
    52b0:	10c00104 	addi	r3,r2,4
    52b4:	e0fffb15 	stw	r3,-20(fp)
    52b8:	e0fffc17 	ldw	r3,-16(fp)
    52bc:	19000104 	addi	r4,r3,4
    52c0:	e13ffc15 	stw	r4,-16(fp)
    52c4:	18c00017 	ldw	r3,0(r3)
    52c8:	10c00015 	stw	r3,0(r2)
    52cc:	e0bffb17 	ldw	r2,-20(fp)
    52d0:	10c00104 	addi	r3,r2,4
    52d4:	e0fffb15 	stw	r3,-20(fp)
    52d8:	e0fffc17 	ldw	r3,-16(fp)
    52dc:	19000104 	addi	r4,r3,4
    52e0:	e13ffc15 	stw	r4,-16(fp)
    52e4:	18c00017 	ldw	r3,0(r3)
    52e8:	10c00015 	stw	r3,0(r2)
    52ec:	e0bffb17 	ldw	r2,-20(fp)
    52f0:	10c00104 	addi	r3,r2,4
    52f4:	e0fffb15 	stw	r3,-20(fp)
    52f8:	e0fffc17 	ldw	r3,-16(fp)
    52fc:	19000104 	addi	r4,r3,4
    5300:	e13ffc15 	stw	r4,-16(fp)
    5304:	18c00017 	ldw	r3,0(r3)
    5308:	10c00015 	stw	r3,0(r2)
    530c:	e0bffb17 	ldw	r2,-20(fp)
    5310:	10c00104 	addi	r3,r2,4
    5314:	e0fffb15 	stw	r3,-20(fp)
    5318:	e0fffc17 	ldw	r3,-16(fp)
    531c:	19000104 	addi	r4,r3,4
    5320:	e13ffc15 	stw	r4,-16(fp)
    5324:	18c00017 	ldw	r3,0(r3)
    5328:	10c00015 	stw	r3,0(r2)
    532c:	e0bfff17 	ldw	r2,-4(fp)
    5330:	10bffc04 	addi	r2,r2,-16
    5334:	e0bfff15 	stw	r2,-4(fp)
    5338:	e0bfff17 	ldw	r2,-4(fp)
    533c:	10800428 	cmpgeui	r2,r2,16
    5340:	103fda1e 	bne	r2,zero,52ac <__alt_mem_VGA_Subsystem_Char_Buf_Subsystem_Onchip_SRAM+0xf70052ac>
    5344:	00000b06 	br	5374 <memcpy+0x124>
    5348:	e0bffb17 	ldw	r2,-20(fp)
    534c:	10c00104 	addi	r3,r2,4
    5350:	e0fffb15 	stw	r3,-20(fp)
    5354:	e0fffc17 	ldw	r3,-16(fp)
    5358:	19000104 	addi	r4,r3,4
    535c:	e13ffc15 	stw	r4,-16(fp)
    5360:	18c00017 	ldw	r3,0(r3)
    5364:	10c00015 	stw	r3,0(r2)
    5368:	e0bfff17 	ldw	r2,-4(fp)
    536c:	10bfff04 	addi	r2,r2,-4
    5370:	e0bfff15 	stw	r2,-4(fp)
    5374:	e0bfff17 	ldw	r2,-4(fp)
    5378:	10800128 	cmpgeui	r2,r2,4
    537c:	103ff21e 	bne	r2,zero,5348 <__alt_mem_VGA_Subsystem_Char_Buf_Subsystem_Onchip_SRAM+0xf7005348>
    5380:	e0bffb17 	ldw	r2,-20(fp)
    5384:	e0bff915 	stw	r2,-28(fp)
    5388:	e0bffc17 	ldw	r2,-16(fp)
    538c:	e0bffa15 	stw	r2,-24(fp)
    5390:	00000806 	br	53b4 <memcpy+0x164>
    5394:	e0bff917 	ldw	r2,-28(fp)
    5398:	10c00044 	addi	r3,r2,1
    539c:	e0fff915 	stw	r3,-28(fp)
    53a0:	e0fffa17 	ldw	r3,-24(fp)
    53a4:	19000044 	addi	r4,r3,1
    53a8:	e13ffa15 	stw	r4,-24(fp)
    53ac:	18c00003 	ldbu	r3,0(r3)
    53b0:	10c00005 	stb	r3,0(r2)
    53b4:	e0bfff17 	ldw	r2,-4(fp)
    53b8:	10ffffc4 	addi	r3,r2,-1
    53bc:	e0ffff15 	stw	r3,-4(fp)
    53c0:	103ff41e 	bne	r2,zero,5394 <__alt_mem_VGA_Subsystem_Char_Buf_Subsystem_Onchip_SRAM+0xf7005394>
    53c4:	e0bffd17 	ldw	r2,-12(fp)
    53c8:	e037883a 	mov	sp,fp
    53cc:	df000017 	ldw	fp,0(sp)
    53d0:	dec00104 	addi	sp,sp,4
    53d4:	f800283a 	ret

000053d8 <srand>:
    53d8:	defffd04 	addi	sp,sp,-12
    53dc:	df000215 	stw	fp,8(sp)
    53e0:	df000204 	addi	fp,sp,8
    53e4:	e13fff15 	stw	r4,-4(fp)
    53e8:	d1200417 	ldw	r4,-32752(gp)
    53ec:	e13ffe15 	stw	r4,-8(fp)
    53f0:	e13fff17 	ldw	r4,-4(fp)
    53f4:	2005883a 	mov	r2,r4
    53f8:	0007883a 	mov	r3,zero
    53fc:	e13ffe17 	ldw	r4,-8(fp)
    5400:	20802915 	stw	r2,164(r4)
    5404:	20c02a15 	stw	r3,168(r4)
    5408:	0001883a 	nop
    540c:	e037883a 	mov	sp,fp
    5410:	df000017 	ldw	fp,0(sp)
    5414:	dec00104 	addi	sp,sp,4
    5418:	f800283a 	ret

0000541c <rand>:
    541c:	defffe04 	addi	sp,sp,-8
    5420:	df000115 	stw	fp,4(sp)
    5424:	df000104 	addi	fp,sp,4
    5428:	d0a00417 	ldw	r2,-32752(gp)
    542c:	e0bfff15 	stw	r2,-4(fp)
    5430:	e1bfff17 	ldw	r6,-4(fp)
    5434:	30802917 	ldw	r2,164(r6)
    5438:	30c02a17 	ldw	r3,168(r6)
    543c:	01932574 	movhi	r6,19605
    5440:	319fcb44 	addi	r6,r6,32557
    5444:	198f383a 	mul	r7,r3,r6
    5448:	019614b4 	movhi	r6,22610
    544c:	31bd0b44 	addi	r6,r6,-3027
    5450:	118d383a 	mul	r6,r2,r6
    5454:	398f883a 	add	r7,r7,r6
    5458:	01932574 	movhi	r6,19605
    545c:	319fcb44 	addi	r6,r6,32557
    5460:	1194383a 	mulxuu	r10,r2,r6
    5464:	1185383a 	mul	r2,r2,r6
    5468:	1009883a 	mov	r4,r2
    546c:	500b883a 	mov	r5,r10
    5470:	3945883a 	add	r2,r7,r5
    5474:	100b883a 	mov	r5,r2
    5478:	01800044 	movi	r6,1
    547c:	000f883a 	mov	r7,zero
    5480:	2185883a 	add	r2,r4,r6
    5484:	1115803a 	cmpltu	r10,r2,r4
    5488:	29c7883a 	add	r3,r5,r7
    548c:	50c9883a 	add	r4,r10,r3
    5490:	2007883a 	mov	r3,r4
    5494:	1009883a 	mov	r4,r2
    5498:	180b883a 	mov	r5,r3
    549c:	e0bfff17 	ldw	r2,-4(fp)
    54a0:	11002915 	stw	r4,164(r2)
    54a4:	11402a15 	stw	r5,168(r2)
    54a8:	e13fff17 	ldw	r4,-4(fp)
    54ac:	20802917 	ldw	r2,164(r4)
    54b0:	20c02a17 	ldw	r3,168(r4)
    54b4:	1810d83a 	srl	r8,r3,zero
    54b8:	0013883a 	mov	r9,zero
    54bc:	4007883a 	mov	r3,r8
    54c0:	00a00034 	movhi	r2,32768
    54c4:	10bfffc4 	addi	r2,r2,-1
    54c8:	1884703a 	and	r2,r3,r2
    54cc:	e037883a 	mov	sp,fp
    54d0:	df000017 	ldw	fp,0(sp)
    54d4:	dec00104 	addi	sp,sp,4
    54d8:	f800283a 	ret

000054dc <alt_irq_register>:
    54dc:	defff004 	addi	sp,sp,-64
    54e0:	df000f15 	stw	fp,60(sp)
    54e4:	df000f04 	addi	fp,sp,60
    54e8:	e13ffd15 	stw	r4,-12(fp)
    54ec:	e17ffe15 	stw	r5,-8(fp)
    54f0:	e1bfff15 	stw	r6,-4(fp)
    54f4:	00bffa84 	movi	r2,-22
    54f8:	e0bff115 	stw	r2,-60(fp)
    54fc:	e0bffd17 	ldw	r2,-12(fp)
    5500:	10800828 	cmpgeui	r2,r2,32
    5504:	1000501e 	bne	r2,zero,5648 <alt_irq_register+0x16c>
    5508:	0005303a 	rdctl	r2,status
    550c:	e0bff615 	stw	r2,-40(fp)
    5510:	e0fff617 	ldw	r3,-40(fp)
    5514:	00bfff84 	movi	r2,-2
    5518:	1884703a 	and	r2,r3,r2
    551c:	1001703a 	wrctl	status,r2
    5520:	e0bff617 	ldw	r2,-40(fp)
    5524:	e0bff315 	stw	r2,-52(fp)
    5528:	00800374 	movhi	r2,13
    552c:	10b52c04 	addi	r2,r2,-11088
    5530:	e0fffd17 	ldw	r3,-12(fp)
    5534:	180690fa 	slli	r3,r3,3
    5538:	10c5883a 	add	r2,r2,r3
    553c:	e0ffff17 	ldw	r3,-4(fp)
    5540:	10c00015 	stw	r3,0(r2)
    5544:	00800374 	movhi	r2,13
    5548:	10b52c04 	addi	r2,r2,-11088
    554c:	e0fffd17 	ldw	r3,-12(fp)
    5550:	180690fa 	slli	r3,r3,3
    5554:	10c5883a 	add	r2,r2,r3
    5558:	10800104 	addi	r2,r2,4
    555c:	e0fffe17 	ldw	r3,-8(fp)
    5560:	10c00015 	stw	r3,0(r2)
    5564:	e0bfff17 	ldw	r2,-4(fp)
    5568:	10001926 	beq	r2,zero,55d0 <alt_irq_register+0xf4>
    556c:	e0bffd17 	ldw	r2,-12(fp)
    5570:	e0bff215 	stw	r2,-56(fp)
    5574:	0005303a 	rdctl	r2,status
    5578:	e0bff715 	stw	r2,-36(fp)
    557c:	e0fff717 	ldw	r3,-36(fp)
    5580:	00bfff84 	movi	r2,-2
    5584:	1884703a 	and	r2,r3,r2
    5588:	1001703a 	wrctl	status,r2
    558c:	e0bff717 	ldw	r2,-36(fp)
    5590:	e0bff815 	stw	r2,-32(fp)
    5594:	00c00044 	movi	r3,1
    5598:	e0bff217 	ldw	r2,-56(fp)
    559c:	1884983a 	sll	r2,r3,r2
    55a0:	1007883a 	mov	r3,r2
    55a4:	d0a78a17 	ldw	r2,-25048(gp)
    55a8:	1884b03a 	or	r2,r3,r2
    55ac:	d0a78a15 	stw	r2,-25048(gp)
    55b0:	d0a78a17 	ldw	r2,-25048(gp)
    55b4:	100170fa 	wrctl	ienable,r2
    55b8:	e0bff817 	ldw	r2,-32(fp)
    55bc:	e0bff915 	stw	r2,-28(fp)
    55c0:	e0bff917 	ldw	r2,-28(fp)
    55c4:	1001703a 	wrctl	status,r2
    55c8:	0005883a 	mov	r2,zero
    55cc:	00001906 	br	5634 <alt_irq_register+0x158>
    55d0:	e0bffd17 	ldw	r2,-12(fp)
    55d4:	e0bff415 	stw	r2,-48(fp)
    55d8:	0005303a 	rdctl	r2,status
    55dc:	e0bffa15 	stw	r2,-24(fp)
    55e0:	e0fffa17 	ldw	r3,-24(fp)
    55e4:	00bfff84 	movi	r2,-2
    55e8:	1884703a 	and	r2,r3,r2
    55ec:	1001703a 	wrctl	status,r2
    55f0:	e0bffa17 	ldw	r2,-24(fp)
    55f4:	e0bffb15 	stw	r2,-20(fp)
    55f8:	00c00044 	movi	r3,1
    55fc:	e0bff417 	ldw	r2,-48(fp)
    5600:	1884983a 	sll	r2,r3,r2
    5604:	0084303a 	nor	r2,zero,r2
    5608:	1007883a 	mov	r3,r2
    560c:	d0a78a17 	ldw	r2,-25048(gp)
    5610:	1884703a 	and	r2,r3,r2
    5614:	d0a78a15 	stw	r2,-25048(gp)
    5618:	d0a78a17 	ldw	r2,-25048(gp)
    561c:	100170fa 	wrctl	ienable,r2
    5620:	e0bffb17 	ldw	r2,-20(fp)
    5624:	e0bffc15 	stw	r2,-16(fp)
    5628:	e0bffc17 	ldw	r2,-16(fp)
    562c:	1001703a 	wrctl	status,r2
    5630:	0005883a 	mov	r2,zero
    5634:	e0bff115 	stw	r2,-60(fp)
    5638:	e0bff317 	ldw	r2,-52(fp)
    563c:	e0bff515 	stw	r2,-44(fp)
    5640:	e0bff517 	ldw	r2,-44(fp)
    5644:	1001703a 	wrctl	status,r2
    5648:	e0bff117 	ldw	r2,-60(fp)
    564c:	e037883a 	mov	sp,fp
    5650:	df000017 	ldw	fp,0(sp)
    5654:	dec00104 	addi	sp,sp,4
    5658:	f800283a 	ret

0000565c <alt_load_section>:
    565c:	defffc04 	addi	sp,sp,-16
    5660:	df000315 	stw	fp,12(sp)
    5664:	df000304 	addi	fp,sp,12
    5668:	e13ffd15 	stw	r4,-12(fp)
    566c:	e17ffe15 	stw	r5,-8(fp)
    5670:	e1bfff15 	stw	r6,-4(fp)
    5674:	e0fffe17 	ldw	r3,-8(fp)
    5678:	e0bffd17 	ldw	r2,-12(fp)
    567c:	18800c26 	beq	r3,r2,56b0 <alt_load_section+0x54>
    5680:	00000806 	br	56a4 <alt_load_section+0x48>
    5684:	e0bffe17 	ldw	r2,-8(fp)
    5688:	10c00104 	addi	r3,r2,4
    568c:	e0fffe15 	stw	r3,-8(fp)
    5690:	e0fffd17 	ldw	r3,-12(fp)
    5694:	19000104 	addi	r4,r3,4
    5698:	e13ffd15 	stw	r4,-12(fp)
    569c:	18c00017 	ldw	r3,0(r3)
    56a0:	10c00015 	stw	r3,0(r2)
    56a4:	e0fffe17 	ldw	r3,-8(fp)
    56a8:	e0bfff17 	ldw	r2,-4(fp)
    56ac:	18bff51e 	bne	r3,r2,5684 <__alt_mem_VGA_Subsystem_Char_Buf_Subsystem_Onchip_SRAM+0xf7005684>
    56b0:	0001883a 	nop
    56b4:	e037883a 	mov	sp,fp
    56b8:	df000017 	ldw	fp,0(sp)
    56bc:	dec00104 	addi	sp,sp,4
    56c0:	f800283a 	ret

000056c4 <alt_load>:
    56c4:	defffe04 	addi	sp,sp,-8
    56c8:	dfc00115 	stw	ra,4(sp)
    56cc:	df000015 	stw	fp,0(sp)
    56d0:	d839883a 	mov	fp,sp
    56d4:	01800374 	movhi	r6,13
    56d8:	31ad8204 	addi	r6,r6,-18936
    56dc:	01400374 	movhi	r5,13
    56e0:	29661f04 	addi	r5,r5,-26500
    56e4:	01000374 	movhi	r4,13
    56e8:	212d8204 	addi	r4,r4,-18936
    56ec:	000565c0 	call	565c <alt_load_section>
    56f0:	01800034 	movhi	r6,0
    56f4:	31809204 	addi	r6,r6,584
    56f8:	01400034 	movhi	r5,0
    56fc:	29400804 	addi	r5,r5,32
    5700:	01000034 	movhi	r4,0
    5704:	21000804 	addi	r4,r4,32
    5708:	000565c0 	call	565c <alt_load_section>
    570c:	01800374 	movhi	r6,13
    5710:	31a61f04 	addi	r6,r6,-26500
    5714:	01400074 	movhi	r5,1
    5718:	2976b704 	addi	r5,r5,-9508
    571c:	01000074 	movhi	r4,1
    5720:	2136b704 	addi	r4,r4,-9508
    5724:	000565c0 	call	565c <alt_load_section>
    5728:	00091740 	call	9174 <alt_dcache_flush_all>
    572c:	00093f00 	call	93f0 <alt_icache_flush_all>
    5730:	0001883a 	nop
    5734:	e037883a 	mov	sp,fp
    5738:	dfc00117 	ldw	ra,4(sp)
    573c:	df000017 	ldw	fp,0(sp)
    5740:	dec00204 	addi	sp,sp,8
    5744:	f800283a 	ret

00005748 <alt_main>:
    5748:	defffd04 	addi	sp,sp,-12
    574c:	dfc00215 	stw	ra,8(sp)
    5750:	df000115 	stw	fp,4(sp)
    5754:	df000104 	addi	fp,sp,4
    5758:	0009883a 	mov	r4,zero
    575c:	0005a600 	call	5a60 <alt_irq_init>
    5760:	0001883a 	nop
    5764:	0005a980 	call	5a98 <alt_sys_init>
    5768:	01800374 	movhi	r6,13
    576c:	31a5df04 	addi	r6,r6,-26756
    5770:	01400374 	movhi	r5,13
    5774:	2965df04 	addi	r5,r5,-26756
    5778:	01000374 	movhi	r4,13
    577c:	2125df04 	addi	r4,r4,-26756
    5780:	00094e80 	call	94e8 <alt_io_redirect>
    5784:	00092a00 	call	92a0 <_do_ctors>
    5788:	01000074 	movhi	r4,1
    578c:	2124c004 	addi	r4,r4,-27904
    5790:	0009cbc0 	call	9cbc <atexit>
    5794:	d0a78b17 	ldw	r2,-25044(gp)
    5798:	d0e78c17 	ldw	r3,-25040(gp)
    579c:	d1278d17 	ldw	r4,-25036(gp)
    57a0:	200d883a 	mov	r6,r4
    57a4:	180b883a 	mov	r5,r3
    57a8:	1009883a 	mov	r4,r2
    57ac:	00004bc0 	call	4bc <main>
    57b0:	e0bfff15 	stw	r2,-4(fp)
    57b4:	01000044 	movi	r4,1
    57b8:	00090a40 	call	90a4 <close>
    57bc:	e13fff17 	ldw	r4,-4(fp)
    57c0:	0009cf80 	call	9cf8 <exit>

000057c4 <alt_printf>:
    57c4:	defff204 	addi	sp,sp,-56
    57c8:	dfc00a15 	stw	ra,40(sp)
    57cc:	df000915 	stw	fp,36(sp)
    57d0:	df000904 	addi	fp,sp,36
    57d4:	e13fff15 	stw	r4,-4(fp)
    57d8:	e1400215 	stw	r5,8(fp)
    57dc:	e1800315 	stw	r6,12(fp)
    57e0:	e1c00415 	stw	r7,16(fp)
    57e4:	e0800204 	addi	r2,fp,8
    57e8:	e0bffe15 	stw	r2,-8(fp)
    57ec:	e0bfff17 	ldw	r2,-4(fp)
    57f0:	e0bff715 	stw	r2,-36(fp)
    57f4:	00006f06 	br	59b4 <alt_printf+0x1f0>
    57f8:	e0bff807 	ldb	r2,-32(fp)
    57fc:	10800960 	cmpeqi	r2,r2,37
    5800:	1000041e 	bne	r2,zero,5814 <alt_printf+0x50>
    5804:	e0bff807 	ldb	r2,-32(fp)
    5808:	1009883a 	mov	r4,r2
    580c:	00059f00 	call	59f0 <alt_putchar>
    5810:	00006806 	br	59b4 <alt_printf+0x1f0>
    5814:	e0bff717 	ldw	r2,-36(fp)
    5818:	10c00044 	addi	r3,r2,1
    581c:	e0fff715 	stw	r3,-36(fp)
    5820:	10800003 	ldbu	r2,0(r2)
    5824:	e0bff805 	stb	r2,-32(fp)
    5828:	e0bff807 	ldb	r2,-32(fp)
    582c:	10006926 	beq	r2,zero,59d4 <alt_printf+0x210>
    5830:	e0bff807 	ldb	r2,-32(fp)
    5834:	10800958 	cmpnei	r2,r2,37
    5838:	1000041e 	bne	r2,zero,584c <alt_printf+0x88>
    583c:	e0bff807 	ldb	r2,-32(fp)
    5840:	1009883a 	mov	r4,r2
    5844:	00059f00 	call	59f0 <alt_putchar>
    5848:	00005a06 	br	59b4 <alt_printf+0x1f0>
    584c:	e0bff807 	ldb	r2,-32(fp)
    5850:	108018d8 	cmpnei	r2,r2,99
    5854:	1000081e 	bne	r2,zero,5878 <alt_printf+0xb4>
    5858:	e0bffe17 	ldw	r2,-8(fp)
    585c:	10c00104 	addi	r3,r2,4
    5860:	e0fffe15 	stw	r3,-8(fp)
    5864:	10800017 	ldw	r2,0(r2)
    5868:	e0bffd15 	stw	r2,-12(fp)
    586c:	e13ffd17 	ldw	r4,-12(fp)
    5870:	00059f00 	call	59f0 <alt_putchar>
    5874:	00004f06 	br	59b4 <alt_printf+0x1f0>
    5878:	e0bff807 	ldb	r2,-32(fp)
    587c:	10801e18 	cmpnei	r2,r2,120
    5880:	1000341e 	bne	r2,zero,5954 <alt_printf+0x190>
    5884:	e0bffe17 	ldw	r2,-8(fp)
    5888:	10c00104 	addi	r3,r2,4
    588c:	e0fffe15 	stw	r3,-8(fp)
    5890:	10800017 	ldw	r2,0(r2)
    5894:	e0bffb15 	stw	r2,-20(fp)
    5898:	e0bffb17 	ldw	r2,-20(fp)
    589c:	1000031e 	bne	r2,zero,58ac <alt_printf+0xe8>
    58a0:	01000c04 	movi	r4,48
    58a4:	00059f00 	call	59f0 <alt_putchar>
    58a8:	00004206 	br	59b4 <alt_printf+0x1f0>
    58ac:	00800704 	movi	r2,28
    58b0:	e0bff915 	stw	r2,-28(fp)
    58b4:	00000306 	br	58c4 <alt_printf+0x100>
    58b8:	e0bff917 	ldw	r2,-28(fp)
    58bc:	10bfff04 	addi	r2,r2,-4
    58c0:	e0bff915 	stw	r2,-28(fp)
    58c4:	00c003c4 	movi	r3,15
    58c8:	e0bff917 	ldw	r2,-28(fp)
    58cc:	1884983a 	sll	r2,r3,r2
    58d0:	1007883a 	mov	r3,r2
    58d4:	e0bffb17 	ldw	r2,-20(fp)
    58d8:	1884703a 	and	r2,r3,r2
    58dc:	103ff626 	beq	r2,zero,58b8 <__alt_mem_VGA_Subsystem_Char_Buf_Subsystem_Onchip_SRAM+0xf70058b8>
    58e0:	00001906 	br	5948 <alt_printf+0x184>
    58e4:	00c003c4 	movi	r3,15
    58e8:	e0bff917 	ldw	r2,-28(fp)
    58ec:	1884983a 	sll	r2,r3,r2
    58f0:	1007883a 	mov	r3,r2
    58f4:	e0bffb17 	ldw	r2,-20(fp)
    58f8:	1886703a 	and	r3,r3,r2
    58fc:	e0bff917 	ldw	r2,-28(fp)
    5900:	1884d83a 	srl	r2,r3,r2
    5904:	e0bffc15 	stw	r2,-16(fp)
    5908:	e0bffc17 	ldw	r2,-16(fp)
    590c:	108002a8 	cmpgeui	r2,r2,10
    5910:	1000041e 	bne	r2,zero,5924 <alt_printf+0x160>
    5914:	e0bffc17 	ldw	r2,-16(fp)
    5918:	10800c04 	addi	r2,r2,48
    591c:	e0bff805 	stb	r2,-32(fp)
    5920:	00000306 	br	5930 <alt_printf+0x16c>
    5924:	e0bffc17 	ldw	r2,-16(fp)
    5928:	108015c4 	addi	r2,r2,87
    592c:	e0bff805 	stb	r2,-32(fp)
    5930:	e0bff807 	ldb	r2,-32(fp)
    5934:	1009883a 	mov	r4,r2
    5938:	00059f00 	call	59f0 <alt_putchar>
    593c:	e0bff917 	ldw	r2,-28(fp)
    5940:	10bfff04 	addi	r2,r2,-4
    5944:	e0bff915 	stw	r2,-28(fp)
    5948:	e0bff917 	ldw	r2,-28(fp)
    594c:	103fe50e 	bge	r2,zero,58e4 <__alt_mem_VGA_Subsystem_Char_Buf_Subsystem_Onchip_SRAM+0xf70058e4>
    5950:	00001806 	br	59b4 <alt_printf+0x1f0>
    5954:	e0bff807 	ldb	r2,-32(fp)
    5958:	10801cd8 	cmpnei	r2,r2,115
    595c:	1000151e 	bne	r2,zero,59b4 <alt_printf+0x1f0>
    5960:	e0bffe17 	ldw	r2,-8(fp)
    5964:	10c00104 	addi	r3,r2,4
    5968:	e0fffe15 	stw	r3,-8(fp)
    596c:	10800017 	ldw	r2,0(r2)
    5970:	e0bffa15 	stw	r2,-24(fp)
    5974:	00000906 	br	599c <alt_printf+0x1d8>
    5978:	e0bffa17 	ldw	r2,-24(fp)
    597c:	10c00044 	addi	r3,r2,1
    5980:	e0fffa15 	stw	r3,-24(fp)
    5984:	10800003 	ldbu	r2,0(r2)
    5988:	10803fcc 	andi	r2,r2,255
    598c:	1080201c 	xori	r2,r2,128
    5990:	10bfe004 	addi	r2,r2,-128
    5994:	1009883a 	mov	r4,r2
    5998:	00059f00 	call	59f0 <alt_putchar>
    599c:	e0bffa17 	ldw	r2,-24(fp)
    59a0:	10800003 	ldbu	r2,0(r2)
    59a4:	10803fcc 	andi	r2,r2,255
    59a8:	1080201c 	xori	r2,r2,128
    59ac:	10bfe004 	addi	r2,r2,-128
    59b0:	103ff11e 	bne	r2,zero,5978 <__alt_mem_VGA_Subsystem_Char_Buf_Subsystem_Onchip_SRAM+0xf7005978>
    59b4:	e0bff717 	ldw	r2,-36(fp)
    59b8:	10c00044 	addi	r3,r2,1
    59bc:	e0fff715 	stw	r3,-36(fp)
    59c0:	10800003 	ldbu	r2,0(r2)
    59c4:	e0bff805 	stb	r2,-32(fp)
    59c8:	e0bff807 	ldb	r2,-32(fp)
    59cc:	103f8a1e 	bne	r2,zero,57f8 <__alt_mem_VGA_Subsystem_Char_Buf_Subsystem_Onchip_SRAM+0xf70057f8>
    59d0:	00000106 	br	59d8 <alt_printf+0x214>
    59d4:	0001883a 	nop
    59d8:	0001883a 	nop
    59dc:	e037883a 	mov	sp,fp
    59e0:	dfc00117 	ldw	ra,4(sp)
    59e4:	df000017 	ldw	fp,0(sp)
    59e8:	dec00504 	addi	sp,sp,20
    59ec:	f800283a 	ret

000059f0 <alt_putchar>:
    59f0:	defffd04 	addi	sp,sp,-12
    59f4:	dfc00215 	stw	ra,8(sp)
    59f8:	df000115 	stw	fp,4(sp)
    59fc:	df000104 	addi	fp,sp,4
    5a00:	e13fff15 	stw	r4,-4(fp)
    5a04:	d0a00417 	ldw	r2,-32752(gp)
    5a08:	10800217 	ldw	r2,8(r2)
    5a0c:	100b883a 	mov	r5,r2
    5a10:	e13fff17 	ldw	r4,-4(fp)
    5a14:	0009f780 	call	9f78 <putc>
    5a18:	e037883a 	mov	sp,fp
    5a1c:	dfc00117 	ldw	ra,4(sp)
    5a20:	df000017 	ldw	fp,0(sp)
    5a24:	dec00204 	addi	sp,sp,8
    5a28:	f800283a 	ret

00005a2c <alt_dev_reg>:
    5a2c:	defffd04 	addi	sp,sp,-12
    5a30:	dfc00215 	stw	ra,8(sp)
    5a34:	df000115 	stw	fp,4(sp)
    5a38:	df000104 	addi	fp,sp,4
    5a3c:	e13fff15 	stw	r4,-4(fp)
    5a40:	d1600904 	addi	r5,gp,-32732
    5a44:	e13fff17 	ldw	r4,-4(fp)
    5a48:	00091fc0 	call	91fc <alt_dev_llist_insert>
    5a4c:	e037883a 	mov	sp,fp
    5a50:	dfc00117 	ldw	ra,4(sp)
    5a54:	df000017 	ldw	fp,0(sp)
    5a58:	dec00204 	addi	sp,sp,8
    5a5c:	f800283a 	ret

00005a60 <alt_irq_init>:
    5a60:	defffd04 	addi	sp,sp,-12
    5a64:	dfc00215 	stw	ra,8(sp)
    5a68:	df000115 	stw	fp,4(sp)
    5a6c:	df000104 	addi	fp,sp,4
    5a70:	e13fff15 	stw	r4,-4(fp)
    5a74:	00099c00 	call	99c0 <altera_nios2_gen2_irq_init>
    5a78:	00800044 	movi	r2,1
    5a7c:	1001703a 	wrctl	status,r2
    5a80:	0001883a 	nop
    5a84:	e037883a 	mov	sp,fp
    5a88:	dfc00117 	ldw	ra,4(sp)
    5a8c:	df000017 	ldw	fp,0(sp)
    5a90:	dec00204 	addi	sp,sp,8
    5a94:	f800283a 	ret

00005a98 <alt_sys_init>:
    5a98:	defffc04 	addi	sp,sp,-16
    5a9c:	dfc00315 	stw	ra,12(sp)
    5aa0:	df000215 	stw	fp,8(sp)
    5aa4:	df000204 	addi	fp,sp,8
    5aa8:	01c00204 	movi	r7,8
    5aac:	000d883a 	mov	r6,zero
    5ab0:	000b883a 	mov	r5,zero
    5ab4:	013fc834 	movhi	r4,65312
    5ab8:	21080004 	addi	r4,r4,8192
    5abc:	0006c100 	call	6c10 <alt_avalon_timer_sc_init>
    5ac0:	01800204 	movi	r6,8
    5ac4:	000b883a 	mov	r5,zero
    5ac8:	01000374 	movhi	r4,13
    5acc:	21278304 	addi	r4,r4,-25076
    5ad0:	00062980 	call	6298 <altera_avalon_jtag_uart_init>
    5ad4:	01000374 	movhi	r4,13
    5ad8:	21277904 	addi	r4,r4,-25116
    5adc:	0005a2c0 	call	5a2c <alt_dev_reg>
    5ae0:	0001883a 	nop
    5ae4:	01000374 	movhi	r4,13
    5ae8:	212b9104 	addi	r4,r4,-20924
    5aec:	0005a2c0 	call	5a2c <alt_dev_reg>
    5af0:	01000374 	movhi	r4,13
    5af4:	212b9d04 	addi	r4,r4,-20876
    5af8:	0005a2c0 	call	5a2c <alt_dev_reg>
    5afc:	01000374 	movhi	r4,13
    5b00:	212ba904 	addi	r4,r4,-20828
    5b04:	00075540 	call	7554 <alt_up_ps2_init>
    5b08:	01000374 	movhi	r4,13
    5b0c:	212ba904 	addi	r4,r4,-20828
    5b10:	0005a2c0 	call	5a2c <alt_dev_reg>
    5b14:	01000374 	movhi	r4,13
    5b18:	212bb704 	addi	r4,r4,-20772
    5b1c:	00075540 	call	7554 <alt_up_ps2_init>
    5b20:	01000374 	movhi	r4,13
    5b24:	212bb704 	addi	r4,r4,-20772
    5b28:	0005a2c0 	call	5a2c <alt_dev_reg>
    5b2c:	00800374 	movhi	r2,13
    5b30:	10abc504 	addi	r2,r2,-20716
    5b34:	10800a17 	ldw	r2,40(r2)
    5b38:	10800017 	ldw	r2,0(r2)
    5b3c:	1007883a 	mov	r3,r2
    5b40:	00800374 	movhi	r2,13
    5b44:	10abc504 	addi	r2,r2,-20716
    5b48:	10c00b15 	stw	r3,44(r2)
    5b4c:	00800374 	movhi	r2,13
    5b50:	10abc504 	addi	r2,r2,-20716
    5b54:	10800a17 	ldw	r2,40(r2)
    5b58:	10800104 	addi	r2,r2,4
    5b5c:	10800017 	ldw	r2,0(r2)
    5b60:	1007883a 	mov	r3,r2
    5b64:	00800374 	movhi	r2,13
    5b68:	10abc504 	addi	r2,r2,-20716
    5b6c:	10c00c15 	stw	r3,48(r2)
    5b70:	00800374 	movhi	r2,13
    5b74:	10abc504 	addi	r2,r2,-20716
    5b78:	10800a17 	ldw	r2,40(r2)
    5b7c:	10800204 	addi	r2,r2,8
    5b80:	10800017 	ldw	r2,0(r2)
    5b84:	10ffffcc 	andi	r3,r2,65535
    5b88:	00800374 	movhi	r2,13
    5b8c:	10abc504 	addi	r2,r2,-20716
    5b90:	10c01115 	stw	r3,68(r2)
    5b94:	00800374 	movhi	r2,13
    5b98:	10abc504 	addi	r2,r2,-20716
    5b9c:	10800a17 	ldw	r2,40(r2)
    5ba0:	10800204 	addi	r2,r2,8
    5ba4:	10800017 	ldw	r2,0(r2)
    5ba8:	1006d43a 	srli	r3,r2,16
    5bac:	00800374 	movhi	r2,13
    5bb0:	10abc504 	addi	r2,r2,-20716
    5bb4:	10c01215 	stw	r3,72(r2)
    5bb8:	00800374 	movhi	r2,13
    5bbc:	10abc504 	addi	r2,r2,-20716
    5bc0:	10800a17 	ldw	r2,40(r2)
    5bc4:	10800304 	addi	r2,r2,12
    5bc8:	10800017 	ldw	r2,0(r2)
    5bcc:	1005d07a 	srai	r2,r2,1
    5bd0:	10c0004c 	andi	r3,r2,1
    5bd4:	00800374 	movhi	r2,13
    5bd8:	10abc504 	addi	r2,r2,-20716
    5bdc:	10c00d15 	stw	r3,52(r2)
    5be0:	00800374 	movhi	r2,13
    5be4:	10abc504 	addi	r2,r2,-20716
    5be8:	10800a17 	ldw	r2,40(r2)
    5bec:	10800304 	addi	r2,r2,12
    5bf0:	10800017 	ldw	r2,0(r2)
    5bf4:	1005d23a 	srai	r2,r2,8
    5bf8:	108003cc 	andi	r2,r2,15
    5bfc:	10800044 	addi	r2,r2,1
    5c00:	1007883a 	mov	r3,r2
    5c04:	00800374 	movhi	r2,13
    5c08:	10abc504 	addi	r2,r2,-20716
    5c0c:	10c00e15 	stw	r3,56(r2)
    5c10:	00800374 	movhi	r2,13
    5c14:	10abc504 	addi	r2,r2,-20716
    5c18:	10800a17 	ldw	r2,40(r2)
    5c1c:	10800304 	addi	r2,r2,12
    5c20:	10800017 	ldw	r2,0(r2)
    5c24:	1005d1ba 	srai	r2,r2,6
    5c28:	108000cc 	andi	r2,r2,3
    5c2c:	10800044 	addi	r2,r2,1
    5c30:	1007883a 	mov	r3,r2
    5c34:	00800374 	movhi	r2,13
    5c38:	10abc504 	addi	r2,r2,-20716
    5c3c:	10c00f15 	stw	r3,60(r2)
    5c40:	00800374 	movhi	r2,13
    5c44:	10abc504 	addi	r2,r2,-20716
    5c48:	10800e17 	ldw	r2,56(r2)
    5c4c:	1007883a 	mov	r3,r2
    5c50:	00800374 	movhi	r2,13
    5c54:	10abc504 	addi	r2,r2,-20716
    5c58:	10800f17 	ldw	r2,60(r2)
    5c5c:	1885383a 	mul	r2,r3,r2
    5c60:	e0bffe05 	stb	r2,-8(fp)
    5c64:	e0bffe03 	ldbu	r2,-8(fp)
    5c68:	10800268 	cmpgeui	r2,r2,9
    5c6c:	1000051e 	bne	r2,zero,5c84 <alt_sys_init+0x1ec>
    5c70:	00800374 	movhi	r2,13
    5c74:	10abc504 	addi	r2,r2,-20716
    5c78:	00c00044 	movi	r3,1
    5c7c:	10c01015 	stw	r3,64(r2)
    5c80:	00000c06 	br	5cb4 <alt_sys_init+0x21c>
    5c84:	e0bffe03 	ldbu	r2,-8(fp)
    5c88:	10800468 	cmpgeui	r2,r2,17
    5c8c:	1000051e 	bne	r2,zero,5ca4 <alt_sys_init+0x20c>
    5c90:	00800374 	movhi	r2,13
    5c94:	10abc504 	addi	r2,r2,-20716
    5c98:	00c00084 	movi	r3,2
    5c9c:	10c01015 	stw	r3,64(r2)
    5ca0:	00000406 	br	5cb4 <alt_sys_init+0x21c>
    5ca4:	00800374 	movhi	r2,13
    5ca8:	10abc504 	addi	r2,r2,-20716
    5cac:	00c00104 	movi	r3,4
    5cb0:	10c01015 	stw	r3,64(r2)
    5cb4:	00800374 	movhi	r2,13
    5cb8:	10abc504 	addi	r2,r2,-20716
    5cbc:	10800a17 	ldw	r2,40(r2)
    5cc0:	10800304 	addi	r2,r2,12
    5cc4:	10800017 	ldw	r2,0(r2)
    5cc8:	1005d43a 	srai	r2,r2,16
    5ccc:	e0bffe45 	stb	r2,-7(fp)
    5cd0:	00800374 	movhi	r2,13
    5cd4:	10abc504 	addi	r2,r2,-20716
    5cd8:	10800a17 	ldw	r2,40(r2)
    5cdc:	10800304 	addi	r2,r2,12
    5ce0:	10800017 	ldw	r2,0(r2)
    5ce4:	1004d63a 	srli	r2,r2,24
    5ce8:	e0bffe85 	stb	r2,-6(fp)
    5cec:	00800374 	movhi	r2,13
    5cf0:	10abc504 	addi	r2,r2,-20716
    5cf4:	10801017 	ldw	r2,64(r2)
    5cf8:	10800058 	cmpnei	r2,r2,1
    5cfc:	1000041e 	bne	r2,zero,5d10 <alt_sys_init+0x278>
    5d00:	00800374 	movhi	r2,13
    5d04:	10abc504 	addi	r2,r2,-20716
    5d08:	10001315 	stw	zero,76(r2)
    5d0c:	00000e06 	br	5d48 <alt_sys_init+0x2b0>
    5d10:	00800374 	movhi	r2,13
    5d14:	10abc504 	addi	r2,r2,-20716
    5d18:	10801017 	ldw	r2,64(r2)
    5d1c:	10800098 	cmpnei	r2,r2,2
    5d20:	1000051e 	bne	r2,zero,5d38 <alt_sys_init+0x2a0>
    5d24:	00800374 	movhi	r2,13
    5d28:	10abc504 	addi	r2,r2,-20716
    5d2c:	00c00044 	movi	r3,1
    5d30:	10c01315 	stw	r3,76(r2)
    5d34:	00000406 	br	5d48 <alt_sys_init+0x2b0>
    5d38:	00800374 	movhi	r2,13
    5d3c:	10abc504 	addi	r2,r2,-20716
    5d40:	00c00084 	movi	r3,2
    5d44:	10c01315 	stw	r3,76(r2)
    5d48:	e0bffe43 	ldbu	r2,-7(fp)
    5d4c:	00c00804 	movi	r3,32
    5d50:	1885c83a 	sub	r2,r3,r2
    5d54:	00ffffc4 	movi	r3,-1
    5d58:	1886d83a 	srl	r3,r3,r2
    5d5c:	00800374 	movhi	r2,13
    5d60:	10abc504 	addi	r2,r2,-20716
    5d64:	10c01415 	stw	r3,80(r2)
    5d68:	e0fffe43 	ldbu	r3,-7(fp)
    5d6c:	00800374 	movhi	r2,13
    5d70:	10abc504 	addi	r2,r2,-20716
    5d74:	10801317 	ldw	r2,76(r2)
    5d78:	1887883a 	add	r3,r3,r2
    5d7c:	00800374 	movhi	r2,13
    5d80:	10abc504 	addi	r2,r2,-20716
    5d84:	10c01515 	stw	r3,84(r2)
    5d88:	e0bffe83 	ldbu	r2,-6(fp)
    5d8c:	00c00804 	movi	r3,32
    5d90:	1885c83a 	sub	r2,r3,r2
    5d94:	00ffffc4 	movi	r3,-1
    5d98:	1886d83a 	srl	r3,r3,r2
    5d9c:	00800374 	movhi	r2,13
    5da0:	10abc504 	addi	r2,r2,-20716
    5da4:	10c01615 	stw	r3,88(r2)
    5da8:	01000374 	movhi	r4,13
    5dac:	212bc504 	addi	r4,r4,-20716
    5db0:	0005a2c0 	call	5a2c <alt_dev_reg>
    5db4:	00800374 	movhi	r2,13
    5db8:	10abdc04 	addi	r2,r2,-20624
    5dbc:	10800a17 	ldw	r2,40(r2)
    5dc0:	10800017 	ldw	r2,0(r2)
    5dc4:	1007883a 	mov	r3,r2
    5dc8:	00800374 	movhi	r2,13
    5dcc:	10abdc04 	addi	r2,r2,-20624
    5dd0:	10c00b15 	stw	r3,44(r2)
    5dd4:	00800374 	movhi	r2,13
    5dd8:	10abdc04 	addi	r2,r2,-20624
    5ddc:	10800a17 	ldw	r2,40(r2)
    5de0:	10800104 	addi	r2,r2,4
    5de4:	10800017 	ldw	r2,0(r2)
    5de8:	1007883a 	mov	r3,r2
    5dec:	00800374 	movhi	r2,13
    5df0:	10abdc04 	addi	r2,r2,-20624
    5df4:	10c00c15 	stw	r3,48(r2)
    5df8:	00800374 	movhi	r2,13
    5dfc:	10abdc04 	addi	r2,r2,-20624
    5e00:	10800a17 	ldw	r2,40(r2)
    5e04:	10800204 	addi	r2,r2,8
    5e08:	10800017 	ldw	r2,0(r2)
    5e0c:	10ffffcc 	andi	r3,r2,65535
    5e10:	00800374 	movhi	r2,13
    5e14:	10abdc04 	addi	r2,r2,-20624
    5e18:	10c01115 	stw	r3,68(r2)
    5e1c:	00800374 	movhi	r2,13
    5e20:	10abdc04 	addi	r2,r2,-20624
    5e24:	10800a17 	ldw	r2,40(r2)
    5e28:	10800204 	addi	r2,r2,8
    5e2c:	10800017 	ldw	r2,0(r2)
    5e30:	1006d43a 	srli	r3,r2,16
    5e34:	00800374 	movhi	r2,13
    5e38:	10abdc04 	addi	r2,r2,-20624
    5e3c:	10c01215 	stw	r3,72(r2)
    5e40:	00800374 	movhi	r2,13
    5e44:	10abdc04 	addi	r2,r2,-20624
    5e48:	10800a17 	ldw	r2,40(r2)
    5e4c:	10800304 	addi	r2,r2,12
    5e50:	10800017 	ldw	r2,0(r2)
    5e54:	1005d07a 	srai	r2,r2,1
    5e58:	10c0004c 	andi	r3,r2,1
    5e5c:	00800374 	movhi	r2,13
    5e60:	10abdc04 	addi	r2,r2,-20624
    5e64:	10c00d15 	stw	r3,52(r2)
    5e68:	00800374 	movhi	r2,13
    5e6c:	10abdc04 	addi	r2,r2,-20624
    5e70:	10800a17 	ldw	r2,40(r2)
    5e74:	10800304 	addi	r2,r2,12
    5e78:	10800017 	ldw	r2,0(r2)
    5e7c:	1005d23a 	srai	r2,r2,8
    5e80:	108003cc 	andi	r2,r2,15
    5e84:	10800044 	addi	r2,r2,1
    5e88:	1007883a 	mov	r3,r2
    5e8c:	00800374 	movhi	r2,13
    5e90:	10abdc04 	addi	r2,r2,-20624
    5e94:	10c00e15 	stw	r3,56(r2)
    5e98:	00800374 	movhi	r2,13
    5e9c:	10abdc04 	addi	r2,r2,-20624
    5ea0:	10800a17 	ldw	r2,40(r2)
    5ea4:	10800304 	addi	r2,r2,12
    5ea8:	10800017 	ldw	r2,0(r2)
    5eac:	1005d1ba 	srai	r2,r2,6
    5eb0:	108000cc 	andi	r2,r2,3
    5eb4:	10800044 	addi	r2,r2,1
    5eb8:	1007883a 	mov	r3,r2
    5ebc:	00800374 	movhi	r2,13
    5ec0:	10abdc04 	addi	r2,r2,-20624
    5ec4:	10c00f15 	stw	r3,60(r2)
    5ec8:	00800374 	movhi	r2,13
    5ecc:	10abdc04 	addi	r2,r2,-20624
    5ed0:	10800e17 	ldw	r2,56(r2)
    5ed4:	1007883a 	mov	r3,r2
    5ed8:	00800374 	movhi	r2,13
    5edc:	10abdc04 	addi	r2,r2,-20624
    5ee0:	10800f17 	ldw	r2,60(r2)
    5ee4:	1885383a 	mul	r2,r3,r2
    5ee8:	e0bffec5 	stb	r2,-5(fp)
    5eec:	e0bffec3 	ldbu	r2,-5(fp)
    5ef0:	10800268 	cmpgeui	r2,r2,9
    5ef4:	1000051e 	bne	r2,zero,5f0c <alt_sys_init+0x474>
    5ef8:	00800374 	movhi	r2,13
    5efc:	10abdc04 	addi	r2,r2,-20624
    5f00:	00c00044 	movi	r3,1
    5f04:	10c01015 	stw	r3,64(r2)
    5f08:	00000c06 	br	5f3c <alt_sys_init+0x4a4>
    5f0c:	e0bffec3 	ldbu	r2,-5(fp)
    5f10:	10800468 	cmpgeui	r2,r2,17
    5f14:	1000051e 	bne	r2,zero,5f2c <alt_sys_init+0x494>
    5f18:	00800374 	movhi	r2,13
    5f1c:	10abdc04 	addi	r2,r2,-20624
    5f20:	00c00084 	movi	r3,2
    5f24:	10c01015 	stw	r3,64(r2)
    5f28:	00000406 	br	5f3c <alt_sys_init+0x4a4>
    5f2c:	00800374 	movhi	r2,13
    5f30:	10abdc04 	addi	r2,r2,-20624
    5f34:	00c00104 	movi	r3,4
    5f38:	10c01015 	stw	r3,64(r2)
    5f3c:	00800374 	movhi	r2,13
    5f40:	10abdc04 	addi	r2,r2,-20624
    5f44:	10800a17 	ldw	r2,40(r2)
    5f48:	10800304 	addi	r2,r2,12
    5f4c:	10800017 	ldw	r2,0(r2)
    5f50:	1005d43a 	srai	r2,r2,16
    5f54:	e0bfff05 	stb	r2,-4(fp)
    5f58:	00800374 	movhi	r2,13
    5f5c:	10abdc04 	addi	r2,r2,-20624
    5f60:	10800a17 	ldw	r2,40(r2)
    5f64:	10800304 	addi	r2,r2,12
    5f68:	10800017 	ldw	r2,0(r2)
    5f6c:	1004d63a 	srli	r2,r2,24
    5f70:	e0bfff45 	stb	r2,-3(fp)
    5f74:	00800374 	movhi	r2,13
